
outputs/output.elf:     file format elf32-littlearm


Disassembly of section .text:

00000000 <interrupt_vectors>:
       0:	00 80 00 20 4d 29 00 00 49 29 00 00 49 29 00 00     ... M)..I)..I)..
	...
      2c:	49 29 00 00 00 00 00 00 00 00 00 00 49 29 00 00     I)..........I)..
      3c:	49 29 00 00 49 29 00 00 e5 24 00 00 49 29 00 00     I)..I)...$..I)..
      4c:	49 29 00 00 49 29 00 00 00 00 00 00 49 29 00 00     I)..I)......I)..
      5c:	49 29 00 00 49 29 00 00 49 29 00 00 85 2a 00 00     I)..I)..I)...*..
      6c:	49 29 00 00 49 29 00 00 49 29 00 00 49 29 00 00     I)..I)..I)..I)..
      7c:	49 29 00 00 49 29 00 00 49 29 00 00 49 29 00 00     I)..I)..I)..I)..
      8c:	49 29 00 00 49 29 00 00 49 29 00 00 49 29 00 00     I)..I)..I)..I)..
      9c:	49 29 00 00 49 29 00 00 49 29 00 00 00 00 00 00     I)..I)..I)......
	...

000000c0 <__udivsi3>:
      c0:	2200      	movs	r2, #0
      c2:	0843      	lsrs	r3, r0, #1
      c4:	428b      	cmp	r3, r1
      c6:	d374      	bcc.n	1b2 <__udivsi3+0xf2>
      c8:	0903      	lsrs	r3, r0, #4
      ca:	428b      	cmp	r3, r1
      cc:	d35f      	bcc.n	18e <__udivsi3+0xce>
      ce:	0a03      	lsrs	r3, r0, #8
      d0:	428b      	cmp	r3, r1
      d2:	d344      	bcc.n	15e <__udivsi3+0x9e>
      d4:	0b03      	lsrs	r3, r0, #12
      d6:	428b      	cmp	r3, r1
      d8:	d328      	bcc.n	12c <__udivsi3+0x6c>
      da:	0c03      	lsrs	r3, r0, #16
      dc:	428b      	cmp	r3, r1
      de:	d30d      	bcc.n	fc <__udivsi3+0x3c>
      e0:	22ff      	movs	r2, #255	; 0xff
      e2:	0209      	lsls	r1, r1, #8
      e4:	ba12      	rev	r2, r2
      e6:	0c03      	lsrs	r3, r0, #16
      e8:	428b      	cmp	r3, r1
      ea:	d302      	bcc.n	f2 <__udivsi3+0x32>
      ec:	1212      	asrs	r2, r2, #8
      ee:	0209      	lsls	r1, r1, #8
      f0:	d065      	beq.n	1be <__udivsi3+0xfe>
      f2:	0b03      	lsrs	r3, r0, #12
      f4:	428b      	cmp	r3, r1
      f6:	d319      	bcc.n	12c <__udivsi3+0x6c>
      f8:	e000      	b.n	fc <__udivsi3+0x3c>
      fa:	0a09      	lsrs	r1, r1, #8
      fc:	0bc3      	lsrs	r3, r0, #15
      fe:	428b      	cmp	r3, r1
     100:	d301      	bcc.n	106 <__udivsi3+0x46>
     102:	03cb      	lsls	r3, r1, #15
     104:	1ac0      	subs	r0, r0, r3
     106:	4152      	adcs	r2, r2
     108:	0b83      	lsrs	r3, r0, #14
     10a:	428b      	cmp	r3, r1
     10c:	d301      	bcc.n	112 <__udivsi3+0x52>
     10e:	038b      	lsls	r3, r1, #14
     110:	1ac0      	subs	r0, r0, r3
     112:	4152      	adcs	r2, r2
     114:	0b43      	lsrs	r3, r0, #13
     116:	428b      	cmp	r3, r1
     118:	d301      	bcc.n	11e <__udivsi3+0x5e>
     11a:	034b      	lsls	r3, r1, #13
     11c:	1ac0      	subs	r0, r0, r3
     11e:	4152      	adcs	r2, r2
     120:	0b03      	lsrs	r3, r0, #12
     122:	428b      	cmp	r3, r1
     124:	d301      	bcc.n	12a <__udivsi3+0x6a>
     126:	030b      	lsls	r3, r1, #12
     128:	1ac0      	subs	r0, r0, r3
     12a:	4152      	adcs	r2, r2
     12c:	0ac3      	lsrs	r3, r0, #11
     12e:	428b      	cmp	r3, r1
     130:	d301      	bcc.n	136 <__udivsi3+0x76>
     132:	02cb      	lsls	r3, r1, #11
     134:	1ac0      	subs	r0, r0, r3
     136:	4152      	adcs	r2, r2
     138:	0a83      	lsrs	r3, r0, #10
     13a:	428b      	cmp	r3, r1
     13c:	d301      	bcc.n	142 <__udivsi3+0x82>
     13e:	028b      	lsls	r3, r1, #10
     140:	1ac0      	subs	r0, r0, r3
     142:	4152      	adcs	r2, r2
     144:	0a43      	lsrs	r3, r0, #9
     146:	428b      	cmp	r3, r1
     148:	d301      	bcc.n	14e <__udivsi3+0x8e>
     14a:	024b      	lsls	r3, r1, #9
     14c:	1ac0      	subs	r0, r0, r3
     14e:	4152      	adcs	r2, r2
     150:	0a03      	lsrs	r3, r0, #8
     152:	428b      	cmp	r3, r1
     154:	d301      	bcc.n	15a <__udivsi3+0x9a>
     156:	020b      	lsls	r3, r1, #8
     158:	1ac0      	subs	r0, r0, r3
     15a:	4152      	adcs	r2, r2
     15c:	d2cd      	bcs.n	fa <__udivsi3+0x3a>
     15e:	09c3      	lsrs	r3, r0, #7
     160:	428b      	cmp	r3, r1
     162:	d301      	bcc.n	168 <__udivsi3+0xa8>
     164:	01cb      	lsls	r3, r1, #7
     166:	1ac0      	subs	r0, r0, r3
     168:	4152      	adcs	r2, r2
     16a:	0983      	lsrs	r3, r0, #6
     16c:	428b      	cmp	r3, r1
     16e:	d301      	bcc.n	174 <__udivsi3+0xb4>
     170:	018b      	lsls	r3, r1, #6
     172:	1ac0      	subs	r0, r0, r3
     174:	4152      	adcs	r2, r2
     176:	0943      	lsrs	r3, r0, #5
     178:	428b      	cmp	r3, r1
     17a:	d301      	bcc.n	180 <__udivsi3+0xc0>
     17c:	014b      	lsls	r3, r1, #5
     17e:	1ac0      	subs	r0, r0, r3
     180:	4152      	adcs	r2, r2
     182:	0903      	lsrs	r3, r0, #4
     184:	428b      	cmp	r3, r1
     186:	d301      	bcc.n	18c <__udivsi3+0xcc>
     188:	010b      	lsls	r3, r1, #4
     18a:	1ac0      	subs	r0, r0, r3
     18c:	4152      	adcs	r2, r2
     18e:	08c3      	lsrs	r3, r0, #3
     190:	428b      	cmp	r3, r1
     192:	d301      	bcc.n	198 <__udivsi3+0xd8>
     194:	00cb      	lsls	r3, r1, #3
     196:	1ac0      	subs	r0, r0, r3
     198:	4152      	adcs	r2, r2
     19a:	0883      	lsrs	r3, r0, #2
     19c:	428b      	cmp	r3, r1
     19e:	d301      	bcc.n	1a4 <__udivsi3+0xe4>
     1a0:	008b      	lsls	r3, r1, #2
     1a2:	1ac0      	subs	r0, r0, r3
     1a4:	4152      	adcs	r2, r2
     1a6:	0843      	lsrs	r3, r0, #1
     1a8:	428b      	cmp	r3, r1
     1aa:	d301      	bcc.n	1b0 <__udivsi3+0xf0>
     1ac:	004b      	lsls	r3, r1, #1
     1ae:	1ac0      	subs	r0, r0, r3
     1b0:	4152      	adcs	r2, r2
     1b2:	1a41      	subs	r1, r0, r1
     1b4:	d200      	bcs.n	1b8 <__udivsi3+0xf8>
     1b6:	4601      	mov	r1, r0
     1b8:	4152      	adcs	r2, r2
     1ba:	4610      	mov	r0, r2
     1bc:	4770      	bx	lr
     1be:	e7ff      	b.n	1c0 <__udivsi3+0x100>
     1c0:	b501      	push	{r0, lr}
     1c2:	2000      	movs	r0, #0
     1c4:	f000 f8f0 	bl	3a8 <__aeabi_idiv0>
     1c8:	bd02      	pop	{r1, pc}
     1ca:	46c0      	nop			; (mov r8, r8)

000001cc <__aeabi_uidivmod>:
     1cc:	2900      	cmp	r1, #0
     1ce:	d0f7      	beq.n	1c0 <__udivsi3+0x100>
     1d0:	e776      	b.n	c0 <__udivsi3>
     1d2:	4770      	bx	lr

000001d4 <__divsi3>:
     1d4:	4603      	mov	r3, r0
     1d6:	430b      	orrs	r3, r1
     1d8:	d47f      	bmi.n	2da <__divsi3+0x106>
     1da:	2200      	movs	r2, #0
     1dc:	0843      	lsrs	r3, r0, #1
     1de:	428b      	cmp	r3, r1
     1e0:	d374      	bcc.n	2cc <__divsi3+0xf8>
     1e2:	0903      	lsrs	r3, r0, #4
     1e4:	428b      	cmp	r3, r1
     1e6:	d35f      	bcc.n	2a8 <__divsi3+0xd4>
     1e8:	0a03      	lsrs	r3, r0, #8
     1ea:	428b      	cmp	r3, r1
     1ec:	d344      	bcc.n	278 <__divsi3+0xa4>
     1ee:	0b03      	lsrs	r3, r0, #12
     1f0:	428b      	cmp	r3, r1
     1f2:	d328      	bcc.n	246 <__divsi3+0x72>
     1f4:	0c03      	lsrs	r3, r0, #16
     1f6:	428b      	cmp	r3, r1
     1f8:	d30d      	bcc.n	216 <__divsi3+0x42>
     1fa:	22ff      	movs	r2, #255	; 0xff
     1fc:	0209      	lsls	r1, r1, #8
     1fe:	ba12      	rev	r2, r2
     200:	0c03      	lsrs	r3, r0, #16
     202:	428b      	cmp	r3, r1
     204:	d302      	bcc.n	20c <__divsi3+0x38>
     206:	1212      	asrs	r2, r2, #8
     208:	0209      	lsls	r1, r1, #8
     20a:	d065      	beq.n	2d8 <__divsi3+0x104>
     20c:	0b03      	lsrs	r3, r0, #12
     20e:	428b      	cmp	r3, r1
     210:	d319      	bcc.n	246 <__divsi3+0x72>
     212:	e000      	b.n	216 <__divsi3+0x42>
     214:	0a09      	lsrs	r1, r1, #8
     216:	0bc3      	lsrs	r3, r0, #15
     218:	428b      	cmp	r3, r1
     21a:	d301      	bcc.n	220 <__divsi3+0x4c>
     21c:	03cb      	lsls	r3, r1, #15
     21e:	1ac0      	subs	r0, r0, r3
     220:	4152      	adcs	r2, r2
     222:	0b83      	lsrs	r3, r0, #14
     224:	428b      	cmp	r3, r1
     226:	d301      	bcc.n	22c <__divsi3+0x58>
     228:	038b      	lsls	r3, r1, #14
     22a:	1ac0      	subs	r0, r0, r3
     22c:	4152      	adcs	r2, r2
     22e:	0b43      	lsrs	r3, r0, #13
     230:	428b      	cmp	r3, r1
     232:	d301      	bcc.n	238 <__divsi3+0x64>
     234:	034b      	lsls	r3, r1, #13
     236:	1ac0      	subs	r0, r0, r3
     238:	4152      	adcs	r2, r2
     23a:	0b03      	lsrs	r3, r0, #12
     23c:	428b      	cmp	r3, r1
     23e:	d301      	bcc.n	244 <__divsi3+0x70>
     240:	030b      	lsls	r3, r1, #12
     242:	1ac0      	subs	r0, r0, r3
     244:	4152      	adcs	r2, r2
     246:	0ac3      	lsrs	r3, r0, #11
     248:	428b      	cmp	r3, r1
     24a:	d301      	bcc.n	250 <__divsi3+0x7c>
     24c:	02cb      	lsls	r3, r1, #11
     24e:	1ac0      	subs	r0, r0, r3
     250:	4152      	adcs	r2, r2
     252:	0a83      	lsrs	r3, r0, #10
     254:	428b      	cmp	r3, r1
     256:	d301      	bcc.n	25c <__divsi3+0x88>
     258:	028b      	lsls	r3, r1, #10
     25a:	1ac0      	subs	r0, r0, r3
     25c:	4152      	adcs	r2, r2
     25e:	0a43      	lsrs	r3, r0, #9
     260:	428b      	cmp	r3, r1
     262:	d301      	bcc.n	268 <__divsi3+0x94>
     264:	024b      	lsls	r3, r1, #9
     266:	1ac0      	subs	r0, r0, r3
     268:	4152      	adcs	r2, r2
     26a:	0a03      	lsrs	r3, r0, #8
     26c:	428b      	cmp	r3, r1
     26e:	d301      	bcc.n	274 <__divsi3+0xa0>
     270:	020b      	lsls	r3, r1, #8
     272:	1ac0      	subs	r0, r0, r3
     274:	4152      	adcs	r2, r2
     276:	d2cd      	bcs.n	214 <__divsi3+0x40>
     278:	09c3      	lsrs	r3, r0, #7
     27a:	428b      	cmp	r3, r1
     27c:	d301      	bcc.n	282 <__divsi3+0xae>
     27e:	01cb      	lsls	r3, r1, #7
     280:	1ac0      	subs	r0, r0, r3
     282:	4152      	adcs	r2, r2
     284:	0983      	lsrs	r3, r0, #6
     286:	428b      	cmp	r3, r1
     288:	d301      	bcc.n	28e <__divsi3+0xba>
     28a:	018b      	lsls	r3, r1, #6
     28c:	1ac0      	subs	r0, r0, r3
     28e:	4152      	adcs	r2, r2
     290:	0943      	lsrs	r3, r0, #5
     292:	428b      	cmp	r3, r1
     294:	d301      	bcc.n	29a <__divsi3+0xc6>
     296:	014b      	lsls	r3, r1, #5
     298:	1ac0      	subs	r0, r0, r3
     29a:	4152      	adcs	r2, r2
     29c:	0903      	lsrs	r3, r0, #4
     29e:	428b      	cmp	r3, r1
     2a0:	d301      	bcc.n	2a6 <__divsi3+0xd2>
     2a2:	010b      	lsls	r3, r1, #4
     2a4:	1ac0      	subs	r0, r0, r3
     2a6:	4152      	adcs	r2, r2
     2a8:	08c3      	lsrs	r3, r0, #3
     2aa:	428b      	cmp	r3, r1
     2ac:	d301      	bcc.n	2b2 <__divsi3+0xde>
     2ae:	00cb      	lsls	r3, r1, #3
     2b0:	1ac0      	subs	r0, r0, r3
     2b2:	4152      	adcs	r2, r2
     2b4:	0883      	lsrs	r3, r0, #2
     2b6:	428b      	cmp	r3, r1
     2b8:	d301      	bcc.n	2be <__divsi3+0xea>
     2ba:	008b      	lsls	r3, r1, #2
     2bc:	1ac0      	subs	r0, r0, r3
     2be:	4152      	adcs	r2, r2
     2c0:	0843      	lsrs	r3, r0, #1
     2c2:	428b      	cmp	r3, r1
     2c4:	d301      	bcc.n	2ca <__divsi3+0xf6>
     2c6:	004b      	lsls	r3, r1, #1
     2c8:	1ac0      	subs	r0, r0, r3
     2ca:	4152      	adcs	r2, r2
     2cc:	1a41      	subs	r1, r0, r1
     2ce:	d200      	bcs.n	2d2 <__divsi3+0xfe>
     2d0:	4601      	mov	r1, r0
     2d2:	4152      	adcs	r2, r2
     2d4:	4610      	mov	r0, r2
     2d6:	4770      	bx	lr
     2d8:	e05d      	b.n	396 <__divsi3+0x1c2>
     2da:	0fca      	lsrs	r2, r1, #31
     2dc:	d000      	beq.n	2e0 <__divsi3+0x10c>
     2de:	4249      	negs	r1, r1
     2e0:	1003      	asrs	r3, r0, #32
     2e2:	d300      	bcc.n	2e6 <__divsi3+0x112>
     2e4:	4240      	negs	r0, r0
     2e6:	4053      	eors	r3, r2
     2e8:	2200      	movs	r2, #0
     2ea:	469c      	mov	ip, r3
     2ec:	0903      	lsrs	r3, r0, #4
     2ee:	428b      	cmp	r3, r1
     2f0:	d32d      	bcc.n	34e <__divsi3+0x17a>
     2f2:	0a03      	lsrs	r3, r0, #8
     2f4:	428b      	cmp	r3, r1
     2f6:	d312      	bcc.n	31e <__divsi3+0x14a>
     2f8:	22fc      	movs	r2, #252	; 0xfc
     2fa:	0189      	lsls	r1, r1, #6
     2fc:	ba12      	rev	r2, r2
     2fe:	0a03      	lsrs	r3, r0, #8
     300:	428b      	cmp	r3, r1
     302:	d30c      	bcc.n	31e <__divsi3+0x14a>
     304:	0189      	lsls	r1, r1, #6
     306:	1192      	asrs	r2, r2, #6
     308:	428b      	cmp	r3, r1
     30a:	d308      	bcc.n	31e <__divsi3+0x14a>
     30c:	0189      	lsls	r1, r1, #6
     30e:	1192      	asrs	r2, r2, #6
     310:	428b      	cmp	r3, r1
     312:	d304      	bcc.n	31e <__divsi3+0x14a>
     314:	0189      	lsls	r1, r1, #6
     316:	d03a      	beq.n	38e <__divsi3+0x1ba>
     318:	1192      	asrs	r2, r2, #6
     31a:	e000      	b.n	31e <__divsi3+0x14a>
     31c:	0989      	lsrs	r1, r1, #6
     31e:	09c3      	lsrs	r3, r0, #7
     320:	428b      	cmp	r3, r1
     322:	d301      	bcc.n	328 <__divsi3+0x154>
     324:	01cb      	lsls	r3, r1, #7
     326:	1ac0      	subs	r0, r0, r3
     328:	4152      	adcs	r2, r2
     32a:	0983      	lsrs	r3, r0, #6
     32c:	428b      	cmp	r3, r1
     32e:	d301      	bcc.n	334 <__divsi3+0x160>
     330:	018b      	lsls	r3, r1, #6
     332:	1ac0      	subs	r0, r0, r3
     334:	4152      	adcs	r2, r2
     336:	0943      	lsrs	r3, r0, #5
     338:	428b      	cmp	r3, r1
     33a:	d301      	bcc.n	340 <__divsi3+0x16c>
     33c:	014b      	lsls	r3, r1, #5
     33e:	1ac0      	subs	r0, r0, r3
     340:	4152      	adcs	r2, r2
     342:	0903      	lsrs	r3, r0, #4
     344:	428b      	cmp	r3, r1
     346:	d301      	bcc.n	34c <__divsi3+0x178>
     348:	010b      	lsls	r3, r1, #4
     34a:	1ac0      	subs	r0, r0, r3
     34c:	4152      	adcs	r2, r2
     34e:	08c3      	lsrs	r3, r0, #3
     350:	428b      	cmp	r3, r1
     352:	d301      	bcc.n	358 <__divsi3+0x184>
     354:	00cb      	lsls	r3, r1, #3
     356:	1ac0      	subs	r0, r0, r3
     358:	4152      	adcs	r2, r2
     35a:	0883      	lsrs	r3, r0, #2
     35c:	428b      	cmp	r3, r1
     35e:	d301      	bcc.n	364 <__divsi3+0x190>
     360:	008b      	lsls	r3, r1, #2
     362:	1ac0      	subs	r0, r0, r3
     364:	4152      	adcs	r2, r2
     366:	d2d9      	bcs.n	31c <__divsi3+0x148>
     368:	0843      	lsrs	r3, r0, #1
     36a:	428b      	cmp	r3, r1
     36c:	d301      	bcc.n	372 <__divsi3+0x19e>
     36e:	004b      	lsls	r3, r1, #1
     370:	1ac0      	subs	r0, r0, r3
     372:	4152      	adcs	r2, r2
     374:	1a41      	subs	r1, r0, r1
     376:	d200      	bcs.n	37a <__divsi3+0x1a6>
     378:	4601      	mov	r1, r0
     37a:	4663      	mov	r3, ip
     37c:	4152      	adcs	r2, r2
     37e:	105b      	asrs	r3, r3, #1
     380:	4610      	mov	r0, r2
     382:	d301      	bcc.n	388 <__divsi3+0x1b4>
     384:	4240      	negs	r0, r0
     386:	2b00      	cmp	r3, #0
     388:	d500      	bpl.n	38c <__divsi3+0x1b8>
     38a:	4249      	negs	r1, r1
     38c:	4770      	bx	lr
     38e:	4663      	mov	r3, ip
     390:	105b      	asrs	r3, r3, #1
     392:	d300      	bcc.n	396 <__divsi3+0x1c2>
     394:	4240      	negs	r0, r0
     396:	b501      	push	{r0, lr}
     398:	2000      	movs	r0, #0
     39a:	f000 f805 	bl	3a8 <__aeabi_idiv0>
     39e:	bd02      	pop	{r1, pc}

000003a0 <__aeabi_idivmod>:
     3a0:	2900      	cmp	r1, #0
     3a2:	d0f8      	beq.n	396 <__divsi3+0x1c2>
     3a4:	e716      	b.n	1d4 <__divsi3>
     3a6:	4770      	bx	lr

000003a8 <__aeabi_idiv0>:
     3a8:	4770      	bx	lr
     3aa:	46c0      	nop			; (mov r8, r8)

000003ac <__aeabi_cdrcmple>:
     3ac:	4684      	mov	ip, r0
     3ae:	0010      	movs	r0, r2
     3b0:	4662      	mov	r2, ip
     3b2:	468c      	mov	ip, r1
     3b4:	0019      	movs	r1, r3
     3b6:	4663      	mov	r3, ip
     3b8:	e000      	b.n	3bc <__aeabi_cdcmpeq>
     3ba:	46c0      	nop			; (mov r8, r8)

000003bc <__aeabi_cdcmpeq>:
     3bc:	b51f      	push	{r0, r1, r2, r3, r4, lr}
     3be:	f000 fff9 	bl	13b4 <__ledf2>
     3c2:	2800      	cmp	r0, #0
     3c4:	d401      	bmi.n	3ca <__aeabi_cdcmpeq+0xe>
     3c6:	2100      	movs	r1, #0
     3c8:	42c8      	cmn	r0, r1
     3ca:	bd1f      	pop	{r0, r1, r2, r3, r4, pc}

000003cc <__aeabi_dcmpeq>:
     3cc:	b510      	push	{r4, lr}
     3ce:	f000 ff49 	bl	1264 <__eqdf2>
     3d2:	4240      	negs	r0, r0
     3d4:	3001      	adds	r0, #1
     3d6:	bd10      	pop	{r4, pc}

000003d8 <__aeabi_dcmplt>:
     3d8:	b510      	push	{r4, lr}
     3da:	f000 ffeb 	bl	13b4 <__ledf2>
     3de:	2800      	cmp	r0, #0
     3e0:	db01      	blt.n	3e6 <__aeabi_dcmplt+0xe>
     3e2:	2000      	movs	r0, #0
     3e4:	bd10      	pop	{r4, pc}
     3e6:	2001      	movs	r0, #1
     3e8:	bd10      	pop	{r4, pc}
     3ea:	46c0      	nop			; (mov r8, r8)

000003ec <__aeabi_dcmple>:
     3ec:	b510      	push	{r4, lr}
     3ee:	f000 ffe1 	bl	13b4 <__ledf2>
     3f2:	2800      	cmp	r0, #0
     3f4:	dd01      	ble.n	3fa <__aeabi_dcmple+0xe>
     3f6:	2000      	movs	r0, #0
     3f8:	bd10      	pop	{r4, pc}
     3fa:	2001      	movs	r0, #1
     3fc:	bd10      	pop	{r4, pc}
     3fe:	46c0      	nop			; (mov r8, r8)

00000400 <__aeabi_dcmpgt>:
     400:	b510      	push	{r4, lr}
     402:	f000 ff71 	bl	12e8 <__gedf2>
     406:	2800      	cmp	r0, #0
     408:	dc01      	bgt.n	40e <__aeabi_dcmpgt+0xe>
     40a:	2000      	movs	r0, #0
     40c:	bd10      	pop	{r4, pc}
     40e:	2001      	movs	r0, #1
     410:	bd10      	pop	{r4, pc}
     412:	46c0      	nop			; (mov r8, r8)

00000414 <__aeabi_dcmpge>:
     414:	b510      	push	{r4, lr}
     416:	f000 ff67 	bl	12e8 <__gedf2>
     41a:	2800      	cmp	r0, #0
     41c:	da01      	bge.n	422 <__aeabi_dcmpge+0xe>
     41e:	2000      	movs	r0, #0
     420:	bd10      	pop	{r4, pc}
     422:	2001      	movs	r0, #1
     424:	bd10      	pop	{r4, pc}
     426:	46c0      	nop			; (mov r8, r8)

00000428 <__aeabi_uldivmod>:
     428:	2b00      	cmp	r3, #0
     42a:	d111      	bne.n	450 <__aeabi_uldivmod+0x28>
     42c:	2a00      	cmp	r2, #0
     42e:	d10f      	bne.n	450 <__aeabi_uldivmod+0x28>
     430:	2900      	cmp	r1, #0
     432:	d100      	bne.n	436 <__aeabi_uldivmod+0xe>
     434:	2800      	cmp	r0, #0
     436:	d002      	beq.n	43e <__aeabi_uldivmod+0x16>
     438:	2100      	movs	r1, #0
     43a:	43c9      	mvns	r1, r1
     43c:	0008      	movs	r0, r1
     43e:	b407      	push	{r0, r1, r2}
     440:	4802      	ldr	r0, [pc, #8]	; (44c <__aeabi_uldivmod+0x24>)
     442:	a102      	add	r1, pc, #8	; (adr r1, 44c <__aeabi_uldivmod+0x24>)
     444:	1840      	adds	r0, r0, r1
     446:	9002      	str	r0, [sp, #8]
     448:	bd03      	pop	{r0, r1, pc}
     44a:	46c0      	nop			; (mov r8, r8)
     44c:	ffffff5d 	.word	0xffffff5d
     450:	b403      	push	{r0, r1}
     452:	4668      	mov	r0, sp
     454:	b501      	push	{r0, lr}
     456:	9802      	ldr	r0, [sp, #8]
     458:	f000 f806 	bl	468 <__udivmoddi4>
     45c:	9b01      	ldr	r3, [sp, #4]
     45e:	469e      	mov	lr, r3
     460:	b002      	add	sp, #8
     462:	bc0c      	pop	{r2, r3}
     464:	4770      	bx	lr
     466:	46c0      	nop			; (mov r8, r8)

00000468 <__udivmoddi4>:
     468:	b5f0      	push	{r4, r5, r6, r7, lr}
     46a:	4657      	mov	r7, sl
     46c:	464e      	mov	r6, r9
     46e:	4645      	mov	r5, r8
     470:	46de      	mov	lr, fp
     472:	b5e0      	push	{r5, r6, r7, lr}
     474:	0004      	movs	r4, r0
     476:	000d      	movs	r5, r1
     478:	4692      	mov	sl, r2
     47a:	4699      	mov	r9, r3
     47c:	b083      	sub	sp, #12
     47e:	428b      	cmp	r3, r1
     480:	d830      	bhi.n	4e4 <__udivmoddi4+0x7c>
     482:	d02d      	beq.n	4e0 <__udivmoddi4+0x78>
     484:	4649      	mov	r1, r9
     486:	4650      	mov	r0, sl
     488:	f001 febe 	bl	2208 <__clzdi2>
     48c:	0029      	movs	r1, r5
     48e:	0006      	movs	r6, r0
     490:	0020      	movs	r0, r4
     492:	f001 feb9 	bl	2208 <__clzdi2>
     496:	1a33      	subs	r3, r6, r0
     498:	4698      	mov	r8, r3
     49a:	3b20      	subs	r3, #32
     49c:	469b      	mov	fp, r3
     49e:	d433      	bmi.n	508 <__udivmoddi4+0xa0>
     4a0:	465a      	mov	r2, fp
     4a2:	4653      	mov	r3, sl
     4a4:	4093      	lsls	r3, r2
     4a6:	4642      	mov	r2, r8
     4a8:	001f      	movs	r7, r3
     4aa:	4653      	mov	r3, sl
     4ac:	4093      	lsls	r3, r2
     4ae:	001e      	movs	r6, r3
     4b0:	42af      	cmp	r7, r5
     4b2:	d83a      	bhi.n	52a <__udivmoddi4+0xc2>
     4b4:	42af      	cmp	r7, r5
     4b6:	d100      	bne.n	4ba <__udivmoddi4+0x52>
     4b8:	e078      	b.n	5ac <__udivmoddi4+0x144>
     4ba:	465b      	mov	r3, fp
     4bc:	1ba4      	subs	r4, r4, r6
     4be:	41bd      	sbcs	r5, r7
     4c0:	2b00      	cmp	r3, #0
     4c2:	da00      	bge.n	4c6 <__udivmoddi4+0x5e>
     4c4:	e075      	b.n	5b2 <__udivmoddi4+0x14a>
     4c6:	2200      	movs	r2, #0
     4c8:	2300      	movs	r3, #0
     4ca:	9200      	str	r2, [sp, #0]
     4cc:	9301      	str	r3, [sp, #4]
     4ce:	2301      	movs	r3, #1
     4d0:	465a      	mov	r2, fp
     4d2:	4093      	lsls	r3, r2
     4d4:	9301      	str	r3, [sp, #4]
     4d6:	2301      	movs	r3, #1
     4d8:	4642      	mov	r2, r8
     4da:	4093      	lsls	r3, r2
     4dc:	9300      	str	r3, [sp, #0]
     4de:	e028      	b.n	532 <__udivmoddi4+0xca>
     4e0:	4282      	cmp	r2, r0
     4e2:	d9cf      	bls.n	484 <__udivmoddi4+0x1c>
     4e4:	2200      	movs	r2, #0
     4e6:	2300      	movs	r3, #0
     4e8:	9200      	str	r2, [sp, #0]
     4ea:	9301      	str	r3, [sp, #4]
     4ec:	9b0c      	ldr	r3, [sp, #48]	; 0x30
     4ee:	2b00      	cmp	r3, #0
     4f0:	d001      	beq.n	4f6 <__udivmoddi4+0x8e>
     4f2:	601c      	str	r4, [r3, #0]
     4f4:	605d      	str	r5, [r3, #4]
     4f6:	9800      	ldr	r0, [sp, #0]
     4f8:	9901      	ldr	r1, [sp, #4]
     4fa:	b003      	add	sp, #12
     4fc:	bcf0      	pop	{r4, r5, r6, r7}
     4fe:	46bb      	mov	fp, r7
     500:	46b2      	mov	sl, r6
     502:	46a9      	mov	r9, r5
     504:	46a0      	mov	r8, r4
     506:	bdf0      	pop	{r4, r5, r6, r7, pc}
     508:	4642      	mov	r2, r8
     50a:	2320      	movs	r3, #32
     50c:	1a9b      	subs	r3, r3, r2
     50e:	4652      	mov	r2, sl
     510:	40da      	lsrs	r2, r3
     512:	4641      	mov	r1, r8
     514:	0013      	movs	r3, r2
     516:	464a      	mov	r2, r9
     518:	408a      	lsls	r2, r1
     51a:	0017      	movs	r7, r2
     51c:	4642      	mov	r2, r8
     51e:	431f      	orrs	r7, r3
     520:	4653      	mov	r3, sl
     522:	4093      	lsls	r3, r2
     524:	001e      	movs	r6, r3
     526:	42af      	cmp	r7, r5
     528:	d9c4      	bls.n	4b4 <__udivmoddi4+0x4c>
     52a:	2200      	movs	r2, #0
     52c:	2300      	movs	r3, #0
     52e:	9200      	str	r2, [sp, #0]
     530:	9301      	str	r3, [sp, #4]
     532:	4643      	mov	r3, r8
     534:	2b00      	cmp	r3, #0
     536:	d0d9      	beq.n	4ec <__udivmoddi4+0x84>
     538:	07fb      	lsls	r3, r7, #31
     53a:	0872      	lsrs	r2, r6, #1
     53c:	431a      	orrs	r2, r3
     53e:	4646      	mov	r6, r8
     540:	087b      	lsrs	r3, r7, #1
     542:	e00e      	b.n	562 <__udivmoddi4+0xfa>
     544:	42ab      	cmp	r3, r5
     546:	d101      	bne.n	54c <__udivmoddi4+0xe4>
     548:	42a2      	cmp	r2, r4
     54a:	d80c      	bhi.n	566 <__udivmoddi4+0xfe>
     54c:	1aa4      	subs	r4, r4, r2
     54e:	419d      	sbcs	r5, r3
     550:	2001      	movs	r0, #1
     552:	1924      	adds	r4, r4, r4
     554:	416d      	adcs	r5, r5
     556:	2100      	movs	r1, #0
     558:	3e01      	subs	r6, #1
     55a:	1824      	adds	r4, r4, r0
     55c:	414d      	adcs	r5, r1
     55e:	2e00      	cmp	r6, #0
     560:	d006      	beq.n	570 <__udivmoddi4+0x108>
     562:	42ab      	cmp	r3, r5
     564:	d9ee      	bls.n	544 <__udivmoddi4+0xdc>
     566:	3e01      	subs	r6, #1
     568:	1924      	adds	r4, r4, r4
     56a:	416d      	adcs	r5, r5
     56c:	2e00      	cmp	r6, #0
     56e:	d1f8      	bne.n	562 <__udivmoddi4+0xfa>
     570:	9800      	ldr	r0, [sp, #0]
     572:	9901      	ldr	r1, [sp, #4]
     574:	465b      	mov	r3, fp
     576:	1900      	adds	r0, r0, r4
     578:	4169      	adcs	r1, r5
     57a:	2b00      	cmp	r3, #0
     57c:	db24      	blt.n	5c8 <__udivmoddi4+0x160>
     57e:	002b      	movs	r3, r5
     580:	465a      	mov	r2, fp
     582:	4644      	mov	r4, r8
     584:	40d3      	lsrs	r3, r2
     586:	002a      	movs	r2, r5
     588:	40e2      	lsrs	r2, r4
     58a:	001c      	movs	r4, r3
     58c:	465b      	mov	r3, fp
     58e:	0015      	movs	r5, r2
     590:	2b00      	cmp	r3, #0
     592:	db2a      	blt.n	5ea <__udivmoddi4+0x182>
     594:	0026      	movs	r6, r4
     596:	409e      	lsls	r6, r3
     598:	0033      	movs	r3, r6
     59a:	0026      	movs	r6, r4
     59c:	4647      	mov	r7, r8
     59e:	40be      	lsls	r6, r7
     5a0:	0032      	movs	r2, r6
     5a2:	1a80      	subs	r0, r0, r2
     5a4:	4199      	sbcs	r1, r3
     5a6:	9000      	str	r0, [sp, #0]
     5a8:	9101      	str	r1, [sp, #4]
     5aa:	e79f      	b.n	4ec <__udivmoddi4+0x84>
     5ac:	42a3      	cmp	r3, r4
     5ae:	d8bc      	bhi.n	52a <__udivmoddi4+0xc2>
     5b0:	e783      	b.n	4ba <__udivmoddi4+0x52>
     5b2:	4642      	mov	r2, r8
     5b4:	2320      	movs	r3, #32
     5b6:	2100      	movs	r1, #0
     5b8:	1a9b      	subs	r3, r3, r2
     5ba:	2200      	movs	r2, #0
     5bc:	9100      	str	r1, [sp, #0]
     5be:	9201      	str	r2, [sp, #4]
     5c0:	2201      	movs	r2, #1
     5c2:	40da      	lsrs	r2, r3
     5c4:	9201      	str	r2, [sp, #4]
     5c6:	e786      	b.n	4d6 <__udivmoddi4+0x6e>
     5c8:	4642      	mov	r2, r8
     5ca:	2320      	movs	r3, #32
     5cc:	1a9b      	subs	r3, r3, r2
     5ce:	002a      	movs	r2, r5
     5d0:	4646      	mov	r6, r8
     5d2:	409a      	lsls	r2, r3
     5d4:	0023      	movs	r3, r4
     5d6:	40f3      	lsrs	r3, r6
     5d8:	4644      	mov	r4, r8
     5da:	4313      	orrs	r3, r2
     5dc:	002a      	movs	r2, r5
     5de:	40e2      	lsrs	r2, r4
     5e0:	001c      	movs	r4, r3
     5e2:	465b      	mov	r3, fp
     5e4:	0015      	movs	r5, r2
     5e6:	2b00      	cmp	r3, #0
     5e8:	dad4      	bge.n	594 <__udivmoddi4+0x12c>
     5ea:	4642      	mov	r2, r8
     5ec:	002f      	movs	r7, r5
     5ee:	2320      	movs	r3, #32
     5f0:	0026      	movs	r6, r4
     5f2:	4097      	lsls	r7, r2
     5f4:	1a9b      	subs	r3, r3, r2
     5f6:	40de      	lsrs	r6, r3
     5f8:	003b      	movs	r3, r7
     5fa:	4333      	orrs	r3, r6
     5fc:	e7cd      	b.n	59a <__udivmoddi4+0x132>
     5fe:	46c0      	nop			; (mov r8, r8)

00000600 <__aeabi_dadd>:
     600:	b5f0      	push	{r4, r5, r6, r7, lr}
     602:	464f      	mov	r7, r9
     604:	4646      	mov	r6, r8
     606:	46d6      	mov	lr, sl
     608:	000d      	movs	r5, r1
     60a:	0004      	movs	r4, r0
     60c:	b5c0      	push	{r6, r7, lr}
     60e:	001f      	movs	r7, r3
     610:	0011      	movs	r1, r2
     612:	0328      	lsls	r0, r5, #12
     614:	0f62      	lsrs	r2, r4, #29
     616:	0a40      	lsrs	r0, r0, #9
     618:	4310      	orrs	r0, r2
     61a:	007a      	lsls	r2, r7, #1
     61c:	0d52      	lsrs	r2, r2, #21
     61e:	00e3      	lsls	r3, r4, #3
     620:	033c      	lsls	r4, r7, #12
     622:	4691      	mov	r9, r2
     624:	0a64      	lsrs	r4, r4, #9
     626:	0ffa      	lsrs	r2, r7, #31
     628:	0f4f      	lsrs	r7, r1, #29
     62a:	006e      	lsls	r6, r5, #1
     62c:	4327      	orrs	r7, r4
     62e:	4692      	mov	sl, r2
     630:	46b8      	mov	r8, r7
     632:	0d76      	lsrs	r6, r6, #21
     634:	0fed      	lsrs	r5, r5, #31
     636:	00c9      	lsls	r1, r1, #3
     638:	4295      	cmp	r5, r2
     63a:	d100      	bne.n	63e <__aeabi_dadd+0x3e>
     63c:	e099      	b.n	772 <__aeabi_dadd+0x172>
     63e:	464c      	mov	r4, r9
     640:	1b34      	subs	r4, r6, r4
     642:	46a4      	mov	ip, r4
     644:	2c00      	cmp	r4, #0
     646:	dc00      	bgt.n	64a <__aeabi_dadd+0x4a>
     648:	e07c      	b.n	744 <__aeabi_dadd+0x144>
     64a:	464a      	mov	r2, r9
     64c:	2a00      	cmp	r2, #0
     64e:	d100      	bne.n	652 <__aeabi_dadd+0x52>
     650:	e0b8      	b.n	7c4 <__aeabi_dadd+0x1c4>
     652:	4ac5      	ldr	r2, [pc, #788]	; (968 <_minimum_stack_size+0x168>)
     654:	4296      	cmp	r6, r2
     656:	d100      	bne.n	65a <__aeabi_dadd+0x5a>
     658:	e11c      	b.n	894 <_minimum_stack_size+0x94>
     65a:	2280      	movs	r2, #128	; 0x80
     65c:	003c      	movs	r4, r7
     65e:	0412      	lsls	r2, r2, #16
     660:	4314      	orrs	r4, r2
     662:	46a0      	mov	r8, r4
     664:	4662      	mov	r2, ip
     666:	2a38      	cmp	r2, #56	; 0x38
     668:	dd00      	ble.n	66c <__aeabi_dadd+0x6c>
     66a:	e161      	b.n	930 <_minimum_stack_size+0x130>
     66c:	2a1f      	cmp	r2, #31
     66e:	dd00      	ble.n	672 <__aeabi_dadd+0x72>
     670:	e1cc      	b.n	a0c <_minimum_stack_size+0x20c>
     672:	4664      	mov	r4, ip
     674:	2220      	movs	r2, #32
     676:	1b12      	subs	r2, r2, r4
     678:	4644      	mov	r4, r8
     67a:	4094      	lsls	r4, r2
     67c:	000f      	movs	r7, r1
     67e:	46a1      	mov	r9, r4
     680:	4664      	mov	r4, ip
     682:	4091      	lsls	r1, r2
     684:	40e7      	lsrs	r7, r4
     686:	464c      	mov	r4, r9
     688:	1e4a      	subs	r2, r1, #1
     68a:	4191      	sbcs	r1, r2
     68c:	433c      	orrs	r4, r7
     68e:	4642      	mov	r2, r8
     690:	4321      	orrs	r1, r4
     692:	4664      	mov	r4, ip
     694:	40e2      	lsrs	r2, r4
     696:	1a80      	subs	r0, r0, r2
     698:	1a5c      	subs	r4, r3, r1
     69a:	42a3      	cmp	r3, r4
     69c:	419b      	sbcs	r3, r3
     69e:	425f      	negs	r7, r3
     6a0:	1bc7      	subs	r7, r0, r7
     6a2:	023b      	lsls	r3, r7, #8
     6a4:	d400      	bmi.n	6a8 <__aeabi_dadd+0xa8>
     6a6:	e0d0      	b.n	84a <_minimum_stack_size+0x4a>
     6a8:	027f      	lsls	r7, r7, #9
     6aa:	0a7f      	lsrs	r7, r7, #9
     6ac:	2f00      	cmp	r7, #0
     6ae:	d100      	bne.n	6b2 <__aeabi_dadd+0xb2>
     6b0:	e0ff      	b.n	8b2 <_minimum_stack_size+0xb2>
     6b2:	0038      	movs	r0, r7
     6b4:	f001 fd8a 	bl	21cc <__clzsi2>
     6b8:	0001      	movs	r1, r0
     6ba:	3908      	subs	r1, #8
     6bc:	2320      	movs	r3, #32
     6be:	0022      	movs	r2, r4
     6c0:	1a5b      	subs	r3, r3, r1
     6c2:	408f      	lsls	r7, r1
     6c4:	40da      	lsrs	r2, r3
     6c6:	408c      	lsls	r4, r1
     6c8:	4317      	orrs	r7, r2
     6ca:	42b1      	cmp	r1, r6
     6cc:	da00      	bge.n	6d0 <__aeabi_dadd+0xd0>
     6ce:	e0ff      	b.n	8d0 <_minimum_stack_size+0xd0>
     6d0:	1b89      	subs	r1, r1, r6
     6d2:	1c4b      	adds	r3, r1, #1
     6d4:	2b1f      	cmp	r3, #31
     6d6:	dd00      	ble.n	6da <__aeabi_dadd+0xda>
     6d8:	e0a8      	b.n	82c <_minimum_stack_size+0x2c>
     6da:	2220      	movs	r2, #32
     6dc:	0039      	movs	r1, r7
     6de:	1ad2      	subs	r2, r2, r3
     6e0:	0020      	movs	r0, r4
     6e2:	4094      	lsls	r4, r2
     6e4:	4091      	lsls	r1, r2
     6e6:	40d8      	lsrs	r0, r3
     6e8:	1e62      	subs	r2, r4, #1
     6ea:	4194      	sbcs	r4, r2
     6ec:	40df      	lsrs	r7, r3
     6ee:	2600      	movs	r6, #0
     6f0:	4301      	orrs	r1, r0
     6f2:	430c      	orrs	r4, r1
     6f4:	0763      	lsls	r3, r4, #29
     6f6:	d009      	beq.n	70c <__aeabi_dadd+0x10c>
     6f8:	230f      	movs	r3, #15
     6fa:	4023      	ands	r3, r4
     6fc:	2b04      	cmp	r3, #4
     6fe:	d005      	beq.n	70c <__aeabi_dadd+0x10c>
     700:	1d23      	adds	r3, r4, #4
     702:	42a3      	cmp	r3, r4
     704:	41a4      	sbcs	r4, r4
     706:	4264      	negs	r4, r4
     708:	193f      	adds	r7, r7, r4
     70a:	001c      	movs	r4, r3
     70c:	023b      	lsls	r3, r7, #8
     70e:	d400      	bmi.n	712 <__aeabi_dadd+0x112>
     710:	e09e      	b.n	850 <_minimum_stack_size+0x50>
     712:	4b95      	ldr	r3, [pc, #596]	; (968 <_minimum_stack_size+0x168>)
     714:	3601      	adds	r6, #1
     716:	429e      	cmp	r6, r3
     718:	d100      	bne.n	71c <__aeabi_dadd+0x11c>
     71a:	e0b7      	b.n	88c <_minimum_stack_size+0x8c>
     71c:	4a93      	ldr	r2, [pc, #588]	; (96c <_minimum_stack_size+0x16c>)
     71e:	08e4      	lsrs	r4, r4, #3
     720:	4017      	ands	r7, r2
     722:	077b      	lsls	r3, r7, #29
     724:	0571      	lsls	r1, r6, #21
     726:	027f      	lsls	r7, r7, #9
     728:	4323      	orrs	r3, r4
     72a:	0b3f      	lsrs	r7, r7, #12
     72c:	0d4a      	lsrs	r2, r1, #21
     72e:	0512      	lsls	r2, r2, #20
     730:	433a      	orrs	r2, r7
     732:	07ed      	lsls	r5, r5, #31
     734:	432a      	orrs	r2, r5
     736:	0018      	movs	r0, r3
     738:	0011      	movs	r1, r2
     73a:	bce0      	pop	{r5, r6, r7}
     73c:	46ba      	mov	sl, r7
     73e:	46b1      	mov	r9, r6
     740:	46a8      	mov	r8, r5
     742:	bdf0      	pop	{r4, r5, r6, r7, pc}
     744:	2c00      	cmp	r4, #0
     746:	d04b      	beq.n	7e0 <__aeabi_dadd+0x1e0>
     748:	464c      	mov	r4, r9
     74a:	1ba4      	subs	r4, r4, r6
     74c:	46a4      	mov	ip, r4
     74e:	2e00      	cmp	r6, #0
     750:	d000      	beq.n	754 <__aeabi_dadd+0x154>
     752:	e123      	b.n	99c <_minimum_stack_size+0x19c>
     754:	0004      	movs	r4, r0
     756:	431c      	orrs	r4, r3
     758:	d100      	bne.n	75c <__aeabi_dadd+0x15c>
     75a:	e1af      	b.n	abc <_minimum_stack_size+0x2bc>
     75c:	4662      	mov	r2, ip
     75e:	1e54      	subs	r4, r2, #1
     760:	2a01      	cmp	r2, #1
     762:	d100      	bne.n	766 <__aeabi_dadd+0x166>
     764:	e215      	b.n	b92 <_minimum_stack_size+0x392>
     766:	4d80      	ldr	r5, [pc, #512]	; (968 <_minimum_stack_size+0x168>)
     768:	45ac      	cmp	ip, r5
     76a:	d100      	bne.n	76e <__aeabi_dadd+0x16e>
     76c:	e1c8      	b.n	b00 <_minimum_stack_size+0x300>
     76e:	46a4      	mov	ip, r4
     770:	e11b      	b.n	9aa <_minimum_stack_size+0x1aa>
     772:	464a      	mov	r2, r9
     774:	1ab2      	subs	r2, r6, r2
     776:	4694      	mov	ip, r2
     778:	2a00      	cmp	r2, #0
     77a:	dc00      	bgt.n	77e <__aeabi_dadd+0x17e>
     77c:	e0ac      	b.n	8d8 <_minimum_stack_size+0xd8>
     77e:	464a      	mov	r2, r9
     780:	2a00      	cmp	r2, #0
     782:	d043      	beq.n	80c <_minimum_stack_size+0xc>
     784:	4a78      	ldr	r2, [pc, #480]	; (968 <_minimum_stack_size+0x168>)
     786:	4296      	cmp	r6, r2
     788:	d100      	bne.n	78c <__aeabi_dadd+0x18c>
     78a:	e1af      	b.n	aec <_minimum_stack_size+0x2ec>
     78c:	2280      	movs	r2, #128	; 0x80
     78e:	003c      	movs	r4, r7
     790:	0412      	lsls	r2, r2, #16
     792:	4314      	orrs	r4, r2
     794:	46a0      	mov	r8, r4
     796:	4662      	mov	r2, ip
     798:	2a38      	cmp	r2, #56	; 0x38
     79a:	dc67      	bgt.n	86c <_minimum_stack_size+0x6c>
     79c:	2a1f      	cmp	r2, #31
     79e:	dc00      	bgt.n	7a2 <__aeabi_dadd+0x1a2>
     7a0:	e15f      	b.n	a62 <_minimum_stack_size+0x262>
     7a2:	4647      	mov	r7, r8
     7a4:	3a20      	subs	r2, #32
     7a6:	40d7      	lsrs	r7, r2
     7a8:	4662      	mov	r2, ip
     7aa:	2a20      	cmp	r2, #32
     7ac:	d005      	beq.n	7ba <__aeabi_dadd+0x1ba>
     7ae:	4664      	mov	r4, ip
     7b0:	2240      	movs	r2, #64	; 0x40
     7b2:	1b12      	subs	r2, r2, r4
     7b4:	4644      	mov	r4, r8
     7b6:	4094      	lsls	r4, r2
     7b8:	4321      	orrs	r1, r4
     7ba:	1e4a      	subs	r2, r1, #1
     7bc:	4191      	sbcs	r1, r2
     7be:	000c      	movs	r4, r1
     7c0:	433c      	orrs	r4, r7
     7c2:	e057      	b.n	874 <_minimum_stack_size+0x74>
     7c4:	003a      	movs	r2, r7
     7c6:	430a      	orrs	r2, r1
     7c8:	d100      	bne.n	7cc <__aeabi_dadd+0x1cc>
     7ca:	e105      	b.n	9d8 <_minimum_stack_size+0x1d8>
     7cc:	0022      	movs	r2, r4
     7ce:	3a01      	subs	r2, #1
     7d0:	2c01      	cmp	r4, #1
     7d2:	d100      	bne.n	7d6 <__aeabi_dadd+0x1d6>
     7d4:	e182      	b.n	adc <_minimum_stack_size+0x2dc>
     7d6:	4c64      	ldr	r4, [pc, #400]	; (968 <_minimum_stack_size+0x168>)
     7d8:	45a4      	cmp	ip, r4
     7da:	d05b      	beq.n	894 <_minimum_stack_size+0x94>
     7dc:	4694      	mov	ip, r2
     7de:	e741      	b.n	664 <__aeabi_dadd+0x64>
     7e0:	4c63      	ldr	r4, [pc, #396]	; (970 <_minimum_stack_size+0x170>)
     7e2:	1c77      	adds	r7, r6, #1
     7e4:	4227      	tst	r7, r4
     7e6:	d000      	beq.n	7ea <__aeabi_dadd+0x1ea>
     7e8:	e0c4      	b.n	974 <_minimum_stack_size+0x174>
     7ea:	0004      	movs	r4, r0
     7ec:	431c      	orrs	r4, r3
     7ee:	2e00      	cmp	r6, #0
     7f0:	d000      	beq.n	7f4 <__aeabi_dadd+0x1f4>
     7f2:	e169      	b.n	ac8 <_minimum_stack_size+0x2c8>
     7f4:	2c00      	cmp	r4, #0
     7f6:	d100      	bne.n	7fa <__aeabi_dadd+0x1fa>
     7f8:	e1bf      	b.n	b7a <_minimum_stack_size+0x37a>
     7fa:	4644      	mov	r4, r8
     7fc:	430c      	orrs	r4, r1
     7fe:	d000      	beq.n	802 <_minimum_stack_size+0x2>
     800:	e1d0      	b.n	ba4 <_minimum_stack_size+0x3a4>
     802:	0742      	lsls	r2, r0, #29
     804:	08db      	lsrs	r3, r3, #3
     806:	4313      	orrs	r3, r2
     808:	08c0      	lsrs	r0, r0, #3
     80a:	e029      	b.n	860 <_minimum_stack_size+0x60>
     80c:	003a      	movs	r2, r7
     80e:	430a      	orrs	r2, r1
     810:	d100      	bne.n	814 <_minimum_stack_size+0x14>
     812:	e170      	b.n	af6 <_minimum_stack_size+0x2f6>
     814:	4662      	mov	r2, ip
     816:	4664      	mov	r4, ip
     818:	3a01      	subs	r2, #1
     81a:	2c01      	cmp	r4, #1
     81c:	d100      	bne.n	820 <_minimum_stack_size+0x20>
     81e:	e0e0      	b.n	9e2 <_minimum_stack_size+0x1e2>
     820:	4c51      	ldr	r4, [pc, #324]	; (968 <_minimum_stack_size+0x168>)
     822:	45a4      	cmp	ip, r4
     824:	d100      	bne.n	828 <_minimum_stack_size+0x28>
     826:	e161      	b.n	aec <_minimum_stack_size+0x2ec>
     828:	4694      	mov	ip, r2
     82a:	e7b4      	b.n	796 <__aeabi_dadd+0x196>
     82c:	003a      	movs	r2, r7
     82e:	391f      	subs	r1, #31
     830:	40ca      	lsrs	r2, r1
     832:	0011      	movs	r1, r2
     834:	2b20      	cmp	r3, #32
     836:	d003      	beq.n	840 <_minimum_stack_size+0x40>
     838:	2240      	movs	r2, #64	; 0x40
     83a:	1ad3      	subs	r3, r2, r3
     83c:	409f      	lsls	r7, r3
     83e:	433c      	orrs	r4, r7
     840:	1e63      	subs	r3, r4, #1
     842:	419c      	sbcs	r4, r3
     844:	2700      	movs	r7, #0
     846:	2600      	movs	r6, #0
     848:	430c      	orrs	r4, r1
     84a:	0763      	lsls	r3, r4, #29
     84c:	d000      	beq.n	850 <_minimum_stack_size+0x50>
     84e:	e753      	b.n	6f8 <__aeabi_dadd+0xf8>
     850:	46b4      	mov	ip, r6
     852:	08e4      	lsrs	r4, r4, #3
     854:	077b      	lsls	r3, r7, #29
     856:	4323      	orrs	r3, r4
     858:	08f8      	lsrs	r0, r7, #3
     85a:	4a43      	ldr	r2, [pc, #268]	; (968 <_minimum_stack_size+0x168>)
     85c:	4594      	cmp	ip, r2
     85e:	d01d      	beq.n	89c <_minimum_stack_size+0x9c>
     860:	4662      	mov	r2, ip
     862:	0307      	lsls	r7, r0, #12
     864:	0552      	lsls	r2, r2, #21
     866:	0b3f      	lsrs	r7, r7, #12
     868:	0d52      	lsrs	r2, r2, #21
     86a:	e760      	b.n	72e <__aeabi_dadd+0x12e>
     86c:	4644      	mov	r4, r8
     86e:	430c      	orrs	r4, r1
     870:	1e62      	subs	r2, r4, #1
     872:	4194      	sbcs	r4, r2
     874:	18e4      	adds	r4, r4, r3
     876:	429c      	cmp	r4, r3
     878:	419b      	sbcs	r3, r3
     87a:	425f      	negs	r7, r3
     87c:	183f      	adds	r7, r7, r0
     87e:	023b      	lsls	r3, r7, #8
     880:	d5e3      	bpl.n	84a <_minimum_stack_size+0x4a>
     882:	4b39      	ldr	r3, [pc, #228]	; (968 <_minimum_stack_size+0x168>)
     884:	3601      	adds	r6, #1
     886:	429e      	cmp	r6, r3
     888:	d000      	beq.n	88c <_minimum_stack_size+0x8c>
     88a:	e0b5      	b.n	9f8 <_minimum_stack_size+0x1f8>
     88c:	0032      	movs	r2, r6
     88e:	2700      	movs	r7, #0
     890:	2300      	movs	r3, #0
     892:	e74c      	b.n	72e <__aeabi_dadd+0x12e>
     894:	0742      	lsls	r2, r0, #29
     896:	08db      	lsrs	r3, r3, #3
     898:	4313      	orrs	r3, r2
     89a:	08c0      	lsrs	r0, r0, #3
     89c:	001a      	movs	r2, r3
     89e:	4302      	orrs	r2, r0
     8a0:	d100      	bne.n	8a4 <_minimum_stack_size+0xa4>
     8a2:	e1e1      	b.n	c68 <_minimum_stack_size+0x468>
     8a4:	2780      	movs	r7, #128	; 0x80
     8a6:	033f      	lsls	r7, r7, #12
     8a8:	4307      	orrs	r7, r0
     8aa:	033f      	lsls	r7, r7, #12
     8ac:	4a2e      	ldr	r2, [pc, #184]	; (968 <_minimum_stack_size+0x168>)
     8ae:	0b3f      	lsrs	r7, r7, #12
     8b0:	e73d      	b.n	72e <__aeabi_dadd+0x12e>
     8b2:	0020      	movs	r0, r4
     8b4:	f001 fc8a 	bl	21cc <__clzsi2>
     8b8:	0001      	movs	r1, r0
     8ba:	3118      	adds	r1, #24
     8bc:	291f      	cmp	r1, #31
     8be:	dc00      	bgt.n	8c2 <_minimum_stack_size+0xc2>
     8c0:	e6fc      	b.n	6bc <__aeabi_dadd+0xbc>
     8c2:	3808      	subs	r0, #8
     8c4:	4084      	lsls	r4, r0
     8c6:	0027      	movs	r7, r4
     8c8:	2400      	movs	r4, #0
     8ca:	42b1      	cmp	r1, r6
     8cc:	db00      	blt.n	8d0 <_minimum_stack_size+0xd0>
     8ce:	e6ff      	b.n	6d0 <__aeabi_dadd+0xd0>
     8d0:	4a26      	ldr	r2, [pc, #152]	; (96c <_minimum_stack_size+0x16c>)
     8d2:	1a76      	subs	r6, r6, r1
     8d4:	4017      	ands	r7, r2
     8d6:	e70d      	b.n	6f4 <__aeabi_dadd+0xf4>
     8d8:	2a00      	cmp	r2, #0
     8da:	d02f      	beq.n	93c <_minimum_stack_size+0x13c>
     8dc:	464a      	mov	r2, r9
     8de:	1b92      	subs	r2, r2, r6
     8e0:	4694      	mov	ip, r2
     8e2:	2e00      	cmp	r6, #0
     8e4:	d100      	bne.n	8e8 <_minimum_stack_size+0xe8>
     8e6:	e0ad      	b.n	a44 <_minimum_stack_size+0x244>
     8e8:	4a1f      	ldr	r2, [pc, #124]	; (968 <_minimum_stack_size+0x168>)
     8ea:	4591      	cmp	r9, r2
     8ec:	d100      	bne.n	8f0 <_minimum_stack_size+0xf0>
     8ee:	e10f      	b.n	b10 <_minimum_stack_size+0x310>
     8f0:	2280      	movs	r2, #128	; 0x80
     8f2:	0412      	lsls	r2, r2, #16
     8f4:	4310      	orrs	r0, r2
     8f6:	4662      	mov	r2, ip
     8f8:	2a38      	cmp	r2, #56	; 0x38
     8fa:	dd00      	ble.n	8fe <_minimum_stack_size+0xfe>
     8fc:	e10f      	b.n	b1e <_minimum_stack_size+0x31e>
     8fe:	2a1f      	cmp	r2, #31
     900:	dd00      	ble.n	904 <_minimum_stack_size+0x104>
     902:	e180      	b.n	c06 <_minimum_stack_size+0x406>
     904:	4664      	mov	r4, ip
     906:	2220      	movs	r2, #32
     908:	001e      	movs	r6, r3
     90a:	1b12      	subs	r2, r2, r4
     90c:	4667      	mov	r7, ip
     90e:	0004      	movs	r4, r0
     910:	4093      	lsls	r3, r2
     912:	4094      	lsls	r4, r2
     914:	40fe      	lsrs	r6, r7
     916:	1e5a      	subs	r2, r3, #1
     918:	4193      	sbcs	r3, r2
     91a:	40f8      	lsrs	r0, r7
     91c:	4334      	orrs	r4, r6
     91e:	431c      	orrs	r4, r3
     920:	4480      	add	r8, r0
     922:	1864      	adds	r4, r4, r1
     924:	428c      	cmp	r4, r1
     926:	41bf      	sbcs	r7, r7
     928:	427f      	negs	r7, r7
     92a:	464e      	mov	r6, r9
     92c:	4447      	add	r7, r8
     92e:	e7a6      	b.n	87e <_minimum_stack_size+0x7e>
     930:	4642      	mov	r2, r8
     932:	430a      	orrs	r2, r1
     934:	0011      	movs	r1, r2
     936:	1e4a      	subs	r2, r1, #1
     938:	4191      	sbcs	r1, r2
     93a:	e6ad      	b.n	698 <__aeabi_dadd+0x98>
     93c:	4c0c      	ldr	r4, [pc, #48]	; (970 <_minimum_stack_size+0x170>)
     93e:	1c72      	adds	r2, r6, #1
     940:	4222      	tst	r2, r4
     942:	d000      	beq.n	946 <_minimum_stack_size+0x146>
     944:	e0a1      	b.n	a8a <_minimum_stack_size+0x28a>
     946:	0002      	movs	r2, r0
     948:	431a      	orrs	r2, r3
     94a:	2e00      	cmp	r6, #0
     94c:	d000      	beq.n	950 <_minimum_stack_size+0x150>
     94e:	e0fa      	b.n	b46 <_minimum_stack_size+0x346>
     950:	2a00      	cmp	r2, #0
     952:	d100      	bne.n	956 <_minimum_stack_size+0x156>
     954:	e145      	b.n	be2 <_minimum_stack_size+0x3e2>
     956:	003a      	movs	r2, r7
     958:	430a      	orrs	r2, r1
     95a:	d000      	beq.n	95e <_minimum_stack_size+0x15e>
     95c:	e146      	b.n	bec <_minimum_stack_size+0x3ec>
     95e:	0742      	lsls	r2, r0, #29
     960:	08db      	lsrs	r3, r3, #3
     962:	4313      	orrs	r3, r2
     964:	08c0      	lsrs	r0, r0, #3
     966:	e77b      	b.n	860 <_minimum_stack_size+0x60>
     968:	000007ff 	.word	0x000007ff
     96c:	ff7fffff 	.word	0xff7fffff
     970:	000007fe 	.word	0x000007fe
     974:	4647      	mov	r7, r8
     976:	1a5c      	subs	r4, r3, r1
     978:	1bc2      	subs	r2, r0, r7
     97a:	42a3      	cmp	r3, r4
     97c:	41bf      	sbcs	r7, r7
     97e:	427f      	negs	r7, r7
     980:	46b9      	mov	r9, r7
     982:	0017      	movs	r7, r2
     984:	464a      	mov	r2, r9
     986:	1abf      	subs	r7, r7, r2
     988:	023a      	lsls	r2, r7, #8
     98a:	d500      	bpl.n	98e <_minimum_stack_size+0x18e>
     98c:	e08d      	b.n	aaa <_minimum_stack_size+0x2aa>
     98e:	0023      	movs	r3, r4
     990:	433b      	orrs	r3, r7
     992:	d000      	beq.n	996 <_minimum_stack_size+0x196>
     994:	e68a      	b.n	6ac <__aeabi_dadd+0xac>
     996:	2000      	movs	r0, #0
     998:	2500      	movs	r5, #0
     99a:	e761      	b.n	860 <_minimum_stack_size+0x60>
     99c:	4cb4      	ldr	r4, [pc, #720]	; (c70 <_minimum_stack_size+0x470>)
     99e:	45a1      	cmp	r9, r4
     9a0:	d100      	bne.n	9a4 <_minimum_stack_size+0x1a4>
     9a2:	e0ad      	b.n	b00 <_minimum_stack_size+0x300>
     9a4:	2480      	movs	r4, #128	; 0x80
     9a6:	0424      	lsls	r4, r4, #16
     9a8:	4320      	orrs	r0, r4
     9aa:	4664      	mov	r4, ip
     9ac:	2c38      	cmp	r4, #56	; 0x38
     9ae:	dc3d      	bgt.n	a2c <_minimum_stack_size+0x22c>
     9b0:	4662      	mov	r2, ip
     9b2:	2c1f      	cmp	r4, #31
     9b4:	dd00      	ble.n	9b8 <_minimum_stack_size+0x1b8>
     9b6:	e0b7      	b.n	b28 <_minimum_stack_size+0x328>
     9b8:	2520      	movs	r5, #32
     9ba:	001e      	movs	r6, r3
     9bc:	1b2d      	subs	r5, r5, r4
     9be:	0004      	movs	r4, r0
     9c0:	40ab      	lsls	r3, r5
     9c2:	40ac      	lsls	r4, r5
     9c4:	40d6      	lsrs	r6, r2
     9c6:	40d0      	lsrs	r0, r2
     9c8:	4642      	mov	r2, r8
     9ca:	1e5d      	subs	r5, r3, #1
     9cc:	41ab      	sbcs	r3, r5
     9ce:	4334      	orrs	r4, r6
     9d0:	1a12      	subs	r2, r2, r0
     9d2:	4690      	mov	r8, r2
     9d4:	4323      	orrs	r3, r4
     9d6:	e02c      	b.n	a32 <_minimum_stack_size+0x232>
     9d8:	0742      	lsls	r2, r0, #29
     9da:	08db      	lsrs	r3, r3, #3
     9dc:	4313      	orrs	r3, r2
     9de:	08c0      	lsrs	r0, r0, #3
     9e0:	e73b      	b.n	85a <_minimum_stack_size+0x5a>
     9e2:	185c      	adds	r4, r3, r1
     9e4:	429c      	cmp	r4, r3
     9e6:	419b      	sbcs	r3, r3
     9e8:	4440      	add	r0, r8
     9ea:	425b      	negs	r3, r3
     9ec:	18c7      	adds	r7, r0, r3
     9ee:	2601      	movs	r6, #1
     9f0:	023b      	lsls	r3, r7, #8
     9f2:	d400      	bmi.n	9f6 <_minimum_stack_size+0x1f6>
     9f4:	e729      	b.n	84a <_minimum_stack_size+0x4a>
     9f6:	2602      	movs	r6, #2
     9f8:	4a9e      	ldr	r2, [pc, #632]	; (c74 <_minimum_stack_size+0x474>)
     9fa:	0863      	lsrs	r3, r4, #1
     9fc:	4017      	ands	r7, r2
     9fe:	2201      	movs	r2, #1
     a00:	4014      	ands	r4, r2
     a02:	431c      	orrs	r4, r3
     a04:	07fb      	lsls	r3, r7, #31
     a06:	431c      	orrs	r4, r3
     a08:	087f      	lsrs	r7, r7, #1
     a0a:	e673      	b.n	6f4 <__aeabi_dadd+0xf4>
     a0c:	4644      	mov	r4, r8
     a0e:	3a20      	subs	r2, #32
     a10:	40d4      	lsrs	r4, r2
     a12:	4662      	mov	r2, ip
     a14:	2a20      	cmp	r2, #32
     a16:	d005      	beq.n	a24 <_minimum_stack_size+0x224>
     a18:	4667      	mov	r7, ip
     a1a:	2240      	movs	r2, #64	; 0x40
     a1c:	1bd2      	subs	r2, r2, r7
     a1e:	4647      	mov	r7, r8
     a20:	4097      	lsls	r7, r2
     a22:	4339      	orrs	r1, r7
     a24:	1e4a      	subs	r2, r1, #1
     a26:	4191      	sbcs	r1, r2
     a28:	4321      	orrs	r1, r4
     a2a:	e635      	b.n	698 <__aeabi_dadd+0x98>
     a2c:	4303      	orrs	r3, r0
     a2e:	1e58      	subs	r0, r3, #1
     a30:	4183      	sbcs	r3, r0
     a32:	1acc      	subs	r4, r1, r3
     a34:	42a1      	cmp	r1, r4
     a36:	41bf      	sbcs	r7, r7
     a38:	4643      	mov	r3, r8
     a3a:	427f      	negs	r7, r7
     a3c:	4655      	mov	r5, sl
     a3e:	464e      	mov	r6, r9
     a40:	1bdf      	subs	r7, r3, r7
     a42:	e62e      	b.n	6a2 <__aeabi_dadd+0xa2>
     a44:	0002      	movs	r2, r0
     a46:	431a      	orrs	r2, r3
     a48:	d100      	bne.n	a4c <_minimum_stack_size+0x24c>
     a4a:	e0bd      	b.n	bc8 <_minimum_stack_size+0x3c8>
     a4c:	4662      	mov	r2, ip
     a4e:	4664      	mov	r4, ip
     a50:	3a01      	subs	r2, #1
     a52:	2c01      	cmp	r4, #1
     a54:	d100      	bne.n	a58 <_minimum_stack_size+0x258>
     a56:	e0e5      	b.n	c24 <_minimum_stack_size+0x424>
     a58:	4c85      	ldr	r4, [pc, #532]	; (c70 <_minimum_stack_size+0x470>)
     a5a:	45a4      	cmp	ip, r4
     a5c:	d058      	beq.n	b10 <_minimum_stack_size+0x310>
     a5e:	4694      	mov	ip, r2
     a60:	e749      	b.n	8f6 <_minimum_stack_size+0xf6>
     a62:	4664      	mov	r4, ip
     a64:	2220      	movs	r2, #32
     a66:	1b12      	subs	r2, r2, r4
     a68:	4644      	mov	r4, r8
     a6a:	4094      	lsls	r4, r2
     a6c:	000f      	movs	r7, r1
     a6e:	46a1      	mov	r9, r4
     a70:	4664      	mov	r4, ip
     a72:	4091      	lsls	r1, r2
     a74:	40e7      	lsrs	r7, r4
     a76:	464c      	mov	r4, r9
     a78:	1e4a      	subs	r2, r1, #1
     a7a:	4191      	sbcs	r1, r2
     a7c:	433c      	orrs	r4, r7
     a7e:	4642      	mov	r2, r8
     a80:	430c      	orrs	r4, r1
     a82:	4661      	mov	r1, ip
     a84:	40ca      	lsrs	r2, r1
     a86:	1880      	adds	r0, r0, r2
     a88:	e6f4      	b.n	874 <_minimum_stack_size+0x74>
     a8a:	4c79      	ldr	r4, [pc, #484]	; (c70 <_minimum_stack_size+0x470>)
     a8c:	42a2      	cmp	r2, r4
     a8e:	d100      	bne.n	a92 <_minimum_stack_size+0x292>
     a90:	e6fd      	b.n	88e <_minimum_stack_size+0x8e>
     a92:	1859      	adds	r1, r3, r1
     a94:	4299      	cmp	r1, r3
     a96:	419b      	sbcs	r3, r3
     a98:	4440      	add	r0, r8
     a9a:	425f      	negs	r7, r3
     a9c:	19c7      	adds	r7, r0, r7
     a9e:	07fc      	lsls	r4, r7, #31
     aa0:	0849      	lsrs	r1, r1, #1
     aa2:	0016      	movs	r6, r2
     aa4:	430c      	orrs	r4, r1
     aa6:	087f      	lsrs	r7, r7, #1
     aa8:	e6cf      	b.n	84a <_minimum_stack_size+0x4a>
     aaa:	1acc      	subs	r4, r1, r3
     aac:	42a1      	cmp	r1, r4
     aae:	41bf      	sbcs	r7, r7
     ab0:	4643      	mov	r3, r8
     ab2:	427f      	negs	r7, r7
     ab4:	1a18      	subs	r0, r3, r0
     ab6:	4655      	mov	r5, sl
     ab8:	1bc7      	subs	r7, r0, r7
     aba:	e5f7      	b.n	6ac <__aeabi_dadd+0xac>
     abc:	08c9      	lsrs	r1, r1, #3
     abe:	077b      	lsls	r3, r7, #29
     ac0:	4655      	mov	r5, sl
     ac2:	430b      	orrs	r3, r1
     ac4:	08f8      	lsrs	r0, r7, #3
     ac6:	e6c8      	b.n	85a <_minimum_stack_size+0x5a>
     ac8:	2c00      	cmp	r4, #0
     aca:	d000      	beq.n	ace <_minimum_stack_size+0x2ce>
     acc:	e081      	b.n	bd2 <_minimum_stack_size+0x3d2>
     ace:	4643      	mov	r3, r8
     ad0:	430b      	orrs	r3, r1
     ad2:	d115      	bne.n	b00 <_minimum_stack_size+0x300>
     ad4:	2080      	movs	r0, #128	; 0x80
     ad6:	2500      	movs	r5, #0
     ad8:	0300      	lsls	r0, r0, #12
     ada:	e6e3      	b.n	8a4 <_minimum_stack_size+0xa4>
     adc:	1a5c      	subs	r4, r3, r1
     ade:	42a3      	cmp	r3, r4
     ae0:	419b      	sbcs	r3, r3
     ae2:	1bc7      	subs	r7, r0, r7
     ae4:	425b      	negs	r3, r3
     ae6:	2601      	movs	r6, #1
     ae8:	1aff      	subs	r7, r7, r3
     aea:	e5da      	b.n	6a2 <__aeabi_dadd+0xa2>
     aec:	0742      	lsls	r2, r0, #29
     aee:	08db      	lsrs	r3, r3, #3
     af0:	4313      	orrs	r3, r2
     af2:	08c0      	lsrs	r0, r0, #3
     af4:	e6d2      	b.n	89c <_minimum_stack_size+0x9c>
     af6:	0742      	lsls	r2, r0, #29
     af8:	08db      	lsrs	r3, r3, #3
     afa:	4313      	orrs	r3, r2
     afc:	08c0      	lsrs	r0, r0, #3
     afe:	e6ac      	b.n	85a <_minimum_stack_size+0x5a>
     b00:	4643      	mov	r3, r8
     b02:	4642      	mov	r2, r8
     b04:	08c9      	lsrs	r1, r1, #3
     b06:	075b      	lsls	r3, r3, #29
     b08:	4655      	mov	r5, sl
     b0a:	430b      	orrs	r3, r1
     b0c:	08d0      	lsrs	r0, r2, #3
     b0e:	e6c5      	b.n	89c <_minimum_stack_size+0x9c>
     b10:	4643      	mov	r3, r8
     b12:	4642      	mov	r2, r8
     b14:	075b      	lsls	r3, r3, #29
     b16:	08c9      	lsrs	r1, r1, #3
     b18:	430b      	orrs	r3, r1
     b1a:	08d0      	lsrs	r0, r2, #3
     b1c:	e6be      	b.n	89c <_minimum_stack_size+0x9c>
     b1e:	4303      	orrs	r3, r0
     b20:	001c      	movs	r4, r3
     b22:	1e63      	subs	r3, r4, #1
     b24:	419c      	sbcs	r4, r3
     b26:	e6fc      	b.n	922 <_minimum_stack_size+0x122>
     b28:	0002      	movs	r2, r0
     b2a:	3c20      	subs	r4, #32
     b2c:	40e2      	lsrs	r2, r4
     b2e:	0014      	movs	r4, r2
     b30:	4662      	mov	r2, ip
     b32:	2a20      	cmp	r2, #32
     b34:	d003      	beq.n	b3e <_minimum_stack_size+0x33e>
     b36:	2540      	movs	r5, #64	; 0x40
     b38:	1aad      	subs	r5, r5, r2
     b3a:	40a8      	lsls	r0, r5
     b3c:	4303      	orrs	r3, r0
     b3e:	1e58      	subs	r0, r3, #1
     b40:	4183      	sbcs	r3, r0
     b42:	4323      	orrs	r3, r4
     b44:	e775      	b.n	a32 <_minimum_stack_size+0x232>
     b46:	2a00      	cmp	r2, #0
     b48:	d0e2      	beq.n	b10 <_minimum_stack_size+0x310>
     b4a:	003a      	movs	r2, r7
     b4c:	430a      	orrs	r2, r1
     b4e:	d0cd      	beq.n	aec <_minimum_stack_size+0x2ec>
     b50:	0742      	lsls	r2, r0, #29
     b52:	08db      	lsrs	r3, r3, #3
     b54:	4313      	orrs	r3, r2
     b56:	2280      	movs	r2, #128	; 0x80
     b58:	08c0      	lsrs	r0, r0, #3
     b5a:	0312      	lsls	r2, r2, #12
     b5c:	4210      	tst	r0, r2
     b5e:	d006      	beq.n	b6e <_minimum_stack_size+0x36e>
     b60:	08fc      	lsrs	r4, r7, #3
     b62:	4214      	tst	r4, r2
     b64:	d103      	bne.n	b6e <_minimum_stack_size+0x36e>
     b66:	0020      	movs	r0, r4
     b68:	08cb      	lsrs	r3, r1, #3
     b6a:	077a      	lsls	r2, r7, #29
     b6c:	4313      	orrs	r3, r2
     b6e:	0f5a      	lsrs	r2, r3, #29
     b70:	00db      	lsls	r3, r3, #3
     b72:	0752      	lsls	r2, r2, #29
     b74:	08db      	lsrs	r3, r3, #3
     b76:	4313      	orrs	r3, r2
     b78:	e690      	b.n	89c <_minimum_stack_size+0x9c>
     b7a:	4643      	mov	r3, r8
     b7c:	430b      	orrs	r3, r1
     b7e:	d100      	bne.n	b82 <_minimum_stack_size+0x382>
     b80:	e709      	b.n	996 <_minimum_stack_size+0x196>
     b82:	4643      	mov	r3, r8
     b84:	4642      	mov	r2, r8
     b86:	08c9      	lsrs	r1, r1, #3
     b88:	075b      	lsls	r3, r3, #29
     b8a:	4655      	mov	r5, sl
     b8c:	430b      	orrs	r3, r1
     b8e:	08d0      	lsrs	r0, r2, #3
     b90:	e666      	b.n	860 <_minimum_stack_size+0x60>
     b92:	1acc      	subs	r4, r1, r3
     b94:	42a1      	cmp	r1, r4
     b96:	4189      	sbcs	r1, r1
     b98:	1a3f      	subs	r7, r7, r0
     b9a:	4249      	negs	r1, r1
     b9c:	4655      	mov	r5, sl
     b9e:	2601      	movs	r6, #1
     ba0:	1a7f      	subs	r7, r7, r1
     ba2:	e57e      	b.n	6a2 <__aeabi_dadd+0xa2>
     ba4:	4642      	mov	r2, r8
     ba6:	1a5c      	subs	r4, r3, r1
     ba8:	1a87      	subs	r7, r0, r2
     baa:	42a3      	cmp	r3, r4
     bac:	4192      	sbcs	r2, r2
     bae:	4252      	negs	r2, r2
     bb0:	1abf      	subs	r7, r7, r2
     bb2:	023a      	lsls	r2, r7, #8
     bb4:	d53d      	bpl.n	c32 <_minimum_stack_size+0x432>
     bb6:	1acc      	subs	r4, r1, r3
     bb8:	42a1      	cmp	r1, r4
     bba:	4189      	sbcs	r1, r1
     bbc:	4643      	mov	r3, r8
     bbe:	4249      	negs	r1, r1
     bc0:	1a1f      	subs	r7, r3, r0
     bc2:	4655      	mov	r5, sl
     bc4:	1a7f      	subs	r7, r7, r1
     bc6:	e595      	b.n	6f4 <__aeabi_dadd+0xf4>
     bc8:	077b      	lsls	r3, r7, #29
     bca:	08c9      	lsrs	r1, r1, #3
     bcc:	430b      	orrs	r3, r1
     bce:	08f8      	lsrs	r0, r7, #3
     bd0:	e643      	b.n	85a <_minimum_stack_size+0x5a>
     bd2:	4644      	mov	r4, r8
     bd4:	08db      	lsrs	r3, r3, #3
     bd6:	430c      	orrs	r4, r1
     bd8:	d130      	bne.n	c3c <_minimum_stack_size+0x43c>
     bda:	0742      	lsls	r2, r0, #29
     bdc:	4313      	orrs	r3, r2
     bde:	08c0      	lsrs	r0, r0, #3
     be0:	e65c      	b.n	89c <_minimum_stack_size+0x9c>
     be2:	077b      	lsls	r3, r7, #29
     be4:	08c9      	lsrs	r1, r1, #3
     be6:	430b      	orrs	r3, r1
     be8:	08f8      	lsrs	r0, r7, #3
     bea:	e639      	b.n	860 <_minimum_stack_size+0x60>
     bec:	185c      	adds	r4, r3, r1
     bee:	429c      	cmp	r4, r3
     bf0:	419b      	sbcs	r3, r3
     bf2:	4440      	add	r0, r8
     bf4:	425b      	negs	r3, r3
     bf6:	18c7      	adds	r7, r0, r3
     bf8:	023b      	lsls	r3, r7, #8
     bfa:	d400      	bmi.n	bfe <_minimum_stack_size+0x3fe>
     bfc:	e625      	b.n	84a <_minimum_stack_size+0x4a>
     bfe:	4b1d      	ldr	r3, [pc, #116]	; (c74 <_minimum_stack_size+0x474>)
     c00:	2601      	movs	r6, #1
     c02:	401f      	ands	r7, r3
     c04:	e621      	b.n	84a <_minimum_stack_size+0x4a>
     c06:	0004      	movs	r4, r0
     c08:	3a20      	subs	r2, #32
     c0a:	40d4      	lsrs	r4, r2
     c0c:	4662      	mov	r2, ip
     c0e:	2a20      	cmp	r2, #32
     c10:	d004      	beq.n	c1c <_minimum_stack_size+0x41c>
     c12:	2240      	movs	r2, #64	; 0x40
     c14:	4666      	mov	r6, ip
     c16:	1b92      	subs	r2, r2, r6
     c18:	4090      	lsls	r0, r2
     c1a:	4303      	orrs	r3, r0
     c1c:	1e5a      	subs	r2, r3, #1
     c1e:	4193      	sbcs	r3, r2
     c20:	431c      	orrs	r4, r3
     c22:	e67e      	b.n	922 <_minimum_stack_size+0x122>
     c24:	185c      	adds	r4, r3, r1
     c26:	428c      	cmp	r4, r1
     c28:	4189      	sbcs	r1, r1
     c2a:	4440      	add	r0, r8
     c2c:	4249      	negs	r1, r1
     c2e:	1847      	adds	r7, r0, r1
     c30:	e6dd      	b.n	9ee <_minimum_stack_size+0x1ee>
     c32:	0023      	movs	r3, r4
     c34:	433b      	orrs	r3, r7
     c36:	d100      	bne.n	c3a <_minimum_stack_size+0x43a>
     c38:	e6ad      	b.n	996 <_minimum_stack_size+0x196>
     c3a:	e606      	b.n	84a <_minimum_stack_size+0x4a>
     c3c:	0744      	lsls	r4, r0, #29
     c3e:	4323      	orrs	r3, r4
     c40:	2480      	movs	r4, #128	; 0x80
     c42:	08c0      	lsrs	r0, r0, #3
     c44:	0324      	lsls	r4, r4, #12
     c46:	4220      	tst	r0, r4
     c48:	d008      	beq.n	c5c <_minimum_stack_size+0x45c>
     c4a:	4642      	mov	r2, r8
     c4c:	08d6      	lsrs	r6, r2, #3
     c4e:	4226      	tst	r6, r4
     c50:	d104      	bne.n	c5c <_minimum_stack_size+0x45c>
     c52:	4655      	mov	r5, sl
     c54:	0030      	movs	r0, r6
     c56:	08cb      	lsrs	r3, r1, #3
     c58:	0751      	lsls	r1, r2, #29
     c5a:	430b      	orrs	r3, r1
     c5c:	0f5a      	lsrs	r2, r3, #29
     c5e:	00db      	lsls	r3, r3, #3
     c60:	08db      	lsrs	r3, r3, #3
     c62:	0752      	lsls	r2, r2, #29
     c64:	4313      	orrs	r3, r2
     c66:	e619      	b.n	89c <_minimum_stack_size+0x9c>
     c68:	2300      	movs	r3, #0
     c6a:	4a01      	ldr	r2, [pc, #4]	; (c70 <_minimum_stack_size+0x470>)
     c6c:	001f      	movs	r7, r3
     c6e:	e55e      	b.n	72e <__aeabi_dadd+0x12e>
     c70:	000007ff 	.word	0x000007ff
     c74:	ff7fffff 	.word	0xff7fffff

00000c78 <__aeabi_ddiv>:
     c78:	b5f0      	push	{r4, r5, r6, r7, lr}
     c7a:	4657      	mov	r7, sl
     c7c:	464e      	mov	r6, r9
     c7e:	4645      	mov	r5, r8
     c80:	46de      	mov	lr, fp
     c82:	b5e0      	push	{r5, r6, r7, lr}
     c84:	4681      	mov	r9, r0
     c86:	0005      	movs	r5, r0
     c88:	030c      	lsls	r4, r1, #12
     c8a:	0048      	lsls	r0, r1, #1
     c8c:	4692      	mov	sl, r2
     c8e:	001f      	movs	r7, r3
     c90:	b085      	sub	sp, #20
     c92:	0b24      	lsrs	r4, r4, #12
     c94:	0d40      	lsrs	r0, r0, #21
     c96:	0fce      	lsrs	r6, r1, #31
     c98:	2800      	cmp	r0, #0
     c9a:	d100      	bne.n	c9e <__aeabi_ddiv+0x26>
     c9c:	e156      	b.n	f4c <__aeabi_ddiv+0x2d4>
     c9e:	4bd4      	ldr	r3, [pc, #848]	; (ff0 <__aeabi_ddiv+0x378>)
     ca0:	4298      	cmp	r0, r3
     ca2:	d100      	bne.n	ca6 <__aeabi_ddiv+0x2e>
     ca4:	e172      	b.n	f8c <__aeabi_ddiv+0x314>
     ca6:	0f6b      	lsrs	r3, r5, #29
     ca8:	00e4      	lsls	r4, r4, #3
     caa:	431c      	orrs	r4, r3
     cac:	2380      	movs	r3, #128	; 0x80
     cae:	041b      	lsls	r3, r3, #16
     cb0:	4323      	orrs	r3, r4
     cb2:	4698      	mov	r8, r3
     cb4:	4bcf      	ldr	r3, [pc, #828]	; (ff4 <__aeabi_ddiv+0x37c>)
     cb6:	00ed      	lsls	r5, r5, #3
     cb8:	469b      	mov	fp, r3
     cba:	2300      	movs	r3, #0
     cbc:	4699      	mov	r9, r3
     cbe:	4483      	add	fp, r0
     cc0:	9300      	str	r3, [sp, #0]
     cc2:	033c      	lsls	r4, r7, #12
     cc4:	007b      	lsls	r3, r7, #1
     cc6:	4650      	mov	r0, sl
     cc8:	0b24      	lsrs	r4, r4, #12
     cca:	0d5b      	lsrs	r3, r3, #21
     ccc:	0fff      	lsrs	r7, r7, #31
     cce:	2b00      	cmp	r3, #0
     cd0:	d100      	bne.n	cd4 <__aeabi_ddiv+0x5c>
     cd2:	e11f      	b.n	f14 <__aeabi_ddiv+0x29c>
     cd4:	4ac6      	ldr	r2, [pc, #792]	; (ff0 <__aeabi_ddiv+0x378>)
     cd6:	4293      	cmp	r3, r2
     cd8:	d100      	bne.n	cdc <__aeabi_ddiv+0x64>
     cda:	e162      	b.n	fa2 <__aeabi_ddiv+0x32a>
     cdc:	49c5      	ldr	r1, [pc, #788]	; (ff4 <__aeabi_ddiv+0x37c>)
     cde:	0f42      	lsrs	r2, r0, #29
     ce0:	468c      	mov	ip, r1
     ce2:	00e4      	lsls	r4, r4, #3
     ce4:	4659      	mov	r1, fp
     ce6:	4314      	orrs	r4, r2
     ce8:	2280      	movs	r2, #128	; 0x80
     cea:	4463      	add	r3, ip
     cec:	0412      	lsls	r2, r2, #16
     cee:	1acb      	subs	r3, r1, r3
     cf0:	4314      	orrs	r4, r2
     cf2:	469b      	mov	fp, r3
     cf4:	00c2      	lsls	r2, r0, #3
     cf6:	2000      	movs	r0, #0
     cf8:	0033      	movs	r3, r6
     cfa:	407b      	eors	r3, r7
     cfc:	469a      	mov	sl, r3
     cfe:	464b      	mov	r3, r9
     d00:	2b0f      	cmp	r3, #15
     d02:	d827      	bhi.n	d54 <__aeabi_ddiv+0xdc>
     d04:	49bc      	ldr	r1, [pc, #752]	; (ff8 <__aeabi_ddiv+0x380>)
     d06:	009b      	lsls	r3, r3, #2
     d08:	58cb      	ldr	r3, [r1, r3]
     d0a:	469f      	mov	pc, r3
     d0c:	46b2      	mov	sl, r6
     d0e:	9b00      	ldr	r3, [sp, #0]
     d10:	2b02      	cmp	r3, #2
     d12:	d016      	beq.n	d42 <__aeabi_ddiv+0xca>
     d14:	2b03      	cmp	r3, #3
     d16:	d100      	bne.n	d1a <__aeabi_ddiv+0xa2>
     d18:	e28e      	b.n	1238 <__aeabi_ddiv+0x5c0>
     d1a:	2b01      	cmp	r3, #1
     d1c:	d000      	beq.n	d20 <__aeabi_ddiv+0xa8>
     d1e:	e0d9      	b.n	ed4 <__aeabi_ddiv+0x25c>
     d20:	2300      	movs	r3, #0
     d22:	2400      	movs	r4, #0
     d24:	2500      	movs	r5, #0
     d26:	4652      	mov	r2, sl
     d28:	051b      	lsls	r3, r3, #20
     d2a:	4323      	orrs	r3, r4
     d2c:	07d2      	lsls	r2, r2, #31
     d2e:	4313      	orrs	r3, r2
     d30:	0028      	movs	r0, r5
     d32:	0019      	movs	r1, r3
     d34:	b005      	add	sp, #20
     d36:	bcf0      	pop	{r4, r5, r6, r7}
     d38:	46bb      	mov	fp, r7
     d3a:	46b2      	mov	sl, r6
     d3c:	46a9      	mov	r9, r5
     d3e:	46a0      	mov	r8, r4
     d40:	bdf0      	pop	{r4, r5, r6, r7, pc}
     d42:	2400      	movs	r4, #0
     d44:	2500      	movs	r5, #0
     d46:	4baa      	ldr	r3, [pc, #680]	; (ff0 <__aeabi_ddiv+0x378>)
     d48:	e7ed      	b.n	d26 <__aeabi_ddiv+0xae>
     d4a:	46ba      	mov	sl, r7
     d4c:	46a0      	mov	r8, r4
     d4e:	0015      	movs	r5, r2
     d50:	9000      	str	r0, [sp, #0]
     d52:	e7dc      	b.n	d0e <__aeabi_ddiv+0x96>
     d54:	4544      	cmp	r4, r8
     d56:	d200      	bcs.n	d5a <__aeabi_ddiv+0xe2>
     d58:	e1c7      	b.n	10ea <__aeabi_ddiv+0x472>
     d5a:	d100      	bne.n	d5e <__aeabi_ddiv+0xe6>
     d5c:	e1c2      	b.n	10e4 <__aeabi_ddiv+0x46c>
     d5e:	2301      	movs	r3, #1
     d60:	425b      	negs	r3, r3
     d62:	469c      	mov	ip, r3
     d64:	002e      	movs	r6, r5
     d66:	4640      	mov	r0, r8
     d68:	2500      	movs	r5, #0
     d6a:	44e3      	add	fp, ip
     d6c:	0223      	lsls	r3, r4, #8
     d6e:	0e14      	lsrs	r4, r2, #24
     d70:	431c      	orrs	r4, r3
     d72:	0c1b      	lsrs	r3, r3, #16
     d74:	4699      	mov	r9, r3
     d76:	0423      	lsls	r3, r4, #16
     d78:	0c1f      	lsrs	r7, r3, #16
     d7a:	0212      	lsls	r2, r2, #8
     d7c:	4649      	mov	r1, r9
     d7e:	9200      	str	r2, [sp, #0]
     d80:	9701      	str	r7, [sp, #4]
     d82:	f7ff fa23 	bl	1cc <__aeabi_uidivmod>
     d86:	0002      	movs	r2, r0
     d88:	437a      	muls	r2, r7
     d8a:	040b      	lsls	r3, r1, #16
     d8c:	0c31      	lsrs	r1, r6, #16
     d8e:	4680      	mov	r8, r0
     d90:	4319      	orrs	r1, r3
     d92:	428a      	cmp	r2, r1
     d94:	d907      	bls.n	da6 <__aeabi_ddiv+0x12e>
     d96:	2301      	movs	r3, #1
     d98:	425b      	negs	r3, r3
     d9a:	469c      	mov	ip, r3
     d9c:	1909      	adds	r1, r1, r4
     d9e:	44e0      	add	r8, ip
     da0:	428c      	cmp	r4, r1
     da2:	d800      	bhi.n	da6 <__aeabi_ddiv+0x12e>
     da4:	e207      	b.n	11b6 <__aeabi_ddiv+0x53e>
     da6:	1a88      	subs	r0, r1, r2
     da8:	4649      	mov	r1, r9
     daa:	f7ff fa0f 	bl	1cc <__aeabi_uidivmod>
     dae:	0409      	lsls	r1, r1, #16
     db0:	468c      	mov	ip, r1
     db2:	0431      	lsls	r1, r6, #16
     db4:	4666      	mov	r6, ip
     db6:	9a01      	ldr	r2, [sp, #4]
     db8:	0c09      	lsrs	r1, r1, #16
     dba:	4342      	muls	r2, r0
     dbc:	0003      	movs	r3, r0
     dbe:	4331      	orrs	r1, r6
     dc0:	428a      	cmp	r2, r1
     dc2:	d904      	bls.n	dce <__aeabi_ddiv+0x156>
     dc4:	1909      	adds	r1, r1, r4
     dc6:	3b01      	subs	r3, #1
     dc8:	428c      	cmp	r4, r1
     dca:	d800      	bhi.n	dce <__aeabi_ddiv+0x156>
     dcc:	e1ed      	b.n	11aa <__aeabi_ddiv+0x532>
     dce:	1a88      	subs	r0, r1, r2
     dd0:	4642      	mov	r2, r8
     dd2:	0412      	lsls	r2, r2, #16
     dd4:	431a      	orrs	r2, r3
     dd6:	4690      	mov	r8, r2
     dd8:	4641      	mov	r1, r8
     dda:	9b00      	ldr	r3, [sp, #0]
     ddc:	040e      	lsls	r6, r1, #16
     dde:	0c1b      	lsrs	r3, r3, #16
     de0:	001f      	movs	r7, r3
     de2:	9302      	str	r3, [sp, #8]
     de4:	9b00      	ldr	r3, [sp, #0]
     de6:	0c36      	lsrs	r6, r6, #16
     de8:	041b      	lsls	r3, r3, #16
     dea:	0c19      	lsrs	r1, r3, #16
     dec:	000b      	movs	r3, r1
     dee:	4373      	muls	r3, r6
     df0:	0c12      	lsrs	r2, r2, #16
     df2:	437e      	muls	r6, r7
     df4:	9103      	str	r1, [sp, #12]
     df6:	4351      	muls	r1, r2
     df8:	437a      	muls	r2, r7
     dfa:	0c1f      	lsrs	r7, r3, #16
     dfc:	46bc      	mov	ip, r7
     dfe:	1876      	adds	r6, r6, r1
     e00:	4466      	add	r6, ip
     e02:	42b1      	cmp	r1, r6
     e04:	d903      	bls.n	e0e <__aeabi_ddiv+0x196>
     e06:	2180      	movs	r1, #128	; 0x80
     e08:	0249      	lsls	r1, r1, #9
     e0a:	468c      	mov	ip, r1
     e0c:	4462      	add	r2, ip
     e0e:	0c31      	lsrs	r1, r6, #16
     e10:	188a      	adds	r2, r1, r2
     e12:	0431      	lsls	r1, r6, #16
     e14:	041e      	lsls	r6, r3, #16
     e16:	0c36      	lsrs	r6, r6, #16
     e18:	198e      	adds	r6, r1, r6
     e1a:	4290      	cmp	r0, r2
     e1c:	d302      	bcc.n	e24 <__aeabi_ddiv+0x1ac>
     e1e:	d112      	bne.n	e46 <__aeabi_ddiv+0x1ce>
     e20:	42b5      	cmp	r5, r6
     e22:	d210      	bcs.n	e46 <__aeabi_ddiv+0x1ce>
     e24:	4643      	mov	r3, r8
     e26:	1e59      	subs	r1, r3, #1
     e28:	9b00      	ldr	r3, [sp, #0]
     e2a:	469c      	mov	ip, r3
     e2c:	4465      	add	r5, ip
     e2e:	001f      	movs	r7, r3
     e30:	429d      	cmp	r5, r3
     e32:	419b      	sbcs	r3, r3
     e34:	425b      	negs	r3, r3
     e36:	191b      	adds	r3, r3, r4
     e38:	18c0      	adds	r0, r0, r3
     e3a:	4284      	cmp	r4, r0
     e3c:	d200      	bcs.n	e40 <__aeabi_ddiv+0x1c8>
     e3e:	e1a0      	b.n	1182 <__aeabi_ddiv+0x50a>
     e40:	d100      	bne.n	e44 <__aeabi_ddiv+0x1cc>
     e42:	e19b      	b.n	117c <__aeabi_ddiv+0x504>
     e44:	4688      	mov	r8, r1
     e46:	1bae      	subs	r6, r5, r6
     e48:	42b5      	cmp	r5, r6
     e4a:	41ad      	sbcs	r5, r5
     e4c:	1a80      	subs	r0, r0, r2
     e4e:	426d      	negs	r5, r5
     e50:	1b40      	subs	r0, r0, r5
     e52:	4284      	cmp	r4, r0
     e54:	d100      	bne.n	e58 <__aeabi_ddiv+0x1e0>
     e56:	e1d5      	b.n	1204 <__aeabi_ddiv+0x58c>
     e58:	4649      	mov	r1, r9
     e5a:	f7ff f9b7 	bl	1cc <__aeabi_uidivmod>
     e5e:	9a01      	ldr	r2, [sp, #4]
     e60:	040b      	lsls	r3, r1, #16
     e62:	4342      	muls	r2, r0
     e64:	0c31      	lsrs	r1, r6, #16
     e66:	0005      	movs	r5, r0
     e68:	4319      	orrs	r1, r3
     e6a:	428a      	cmp	r2, r1
     e6c:	d900      	bls.n	e70 <__aeabi_ddiv+0x1f8>
     e6e:	e16c      	b.n	114a <__aeabi_ddiv+0x4d2>
     e70:	1a88      	subs	r0, r1, r2
     e72:	4649      	mov	r1, r9
     e74:	f7ff f9aa 	bl	1cc <__aeabi_uidivmod>
     e78:	9a01      	ldr	r2, [sp, #4]
     e7a:	0436      	lsls	r6, r6, #16
     e7c:	4342      	muls	r2, r0
     e7e:	0409      	lsls	r1, r1, #16
     e80:	0c36      	lsrs	r6, r6, #16
     e82:	0003      	movs	r3, r0
     e84:	430e      	orrs	r6, r1
     e86:	42b2      	cmp	r2, r6
     e88:	d900      	bls.n	e8c <__aeabi_ddiv+0x214>
     e8a:	e153      	b.n	1134 <__aeabi_ddiv+0x4bc>
     e8c:	9803      	ldr	r0, [sp, #12]
     e8e:	1ab6      	subs	r6, r6, r2
     e90:	0002      	movs	r2, r0
     e92:	042d      	lsls	r5, r5, #16
     e94:	431d      	orrs	r5, r3
     e96:	9f02      	ldr	r7, [sp, #8]
     e98:	042b      	lsls	r3, r5, #16
     e9a:	0c1b      	lsrs	r3, r3, #16
     e9c:	435a      	muls	r2, r3
     e9e:	437b      	muls	r3, r7
     ea0:	469c      	mov	ip, r3
     ea2:	0c29      	lsrs	r1, r5, #16
     ea4:	4348      	muls	r0, r1
     ea6:	0c13      	lsrs	r3, r2, #16
     ea8:	4484      	add	ip, r0
     eaa:	4463      	add	r3, ip
     eac:	4379      	muls	r1, r7
     eae:	4298      	cmp	r0, r3
     eb0:	d903      	bls.n	eba <__aeabi_ddiv+0x242>
     eb2:	2080      	movs	r0, #128	; 0x80
     eb4:	0240      	lsls	r0, r0, #9
     eb6:	4684      	mov	ip, r0
     eb8:	4461      	add	r1, ip
     eba:	0c18      	lsrs	r0, r3, #16
     ebc:	0412      	lsls	r2, r2, #16
     ebe:	041b      	lsls	r3, r3, #16
     ec0:	0c12      	lsrs	r2, r2, #16
     ec2:	1841      	adds	r1, r0, r1
     ec4:	189b      	adds	r3, r3, r2
     ec6:	428e      	cmp	r6, r1
     ec8:	d200      	bcs.n	ecc <__aeabi_ddiv+0x254>
     eca:	e0ff      	b.n	10cc <__aeabi_ddiv+0x454>
     ecc:	d100      	bne.n	ed0 <__aeabi_ddiv+0x258>
     ece:	e0fa      	b.n	10c6 <__aeabi_ddiv+0x44e>
     ed0:	2301      	movs	r3, #1
     ed2:	431d      	orrs	r5, r3
     ed4:	4a49      	ldr	r2, [pc, #292]	; (ffc <__aeabi_ddiv+0x384>)
     ed6:	445a      	add	r2, fp
     ed8:	2a00      	cmp	r2, #0
     eda:	dc00      	bgt.n	ede <__aeabi_ddiv+0x266>
     edc:	e0aa      	b.n	1034 <__aeabi_ddiv+0x3bc>
     ede:	076b      	lsls	r3, r5, #29
     ee0:	d000      	beq.n	ee4 <__aeabi_ddiv+0x26c>
     ee2:	e13d      	b.n	1160 <__aeabi_ddiv+0x4e8>
     ee4:	08ed      	lsrs	r5, r5, #3
     ee6:	4643      	mov	r3, r8
     ee8:	01db      	lsls	r3, r3, #7
     eea:	d506      	bpl.n	efa <__aeabi_ddiv+0x282>
     eec:	4642      	mov	r2, r8
     eee:	4b44      	ldr	r3, [pc, #272]	; (1000 <__aeabi_ddiv+0x388>)
     ef0:	401a      	ands	r2, r3
     ef2:	4690      	mov	r8, r2
     ef4:	2280      	movs	r2, #128	; 0x80
     ef6:	00d2      	lsls	r2, r2, #3
     ef8:	445a      	add	r2, fp
     efa:	4b42      	ldr	r3, [pc, #264]	; (1004 <__aeabi_ddiv+0x38c>)
     efc:	429a      	cmp	r2, r3
     efe:	dd00      	ble.n	f02 <__aeabi_ddiv+0x28a>
     f00:	e71f      	b.n	d42 <__aeabi_ddiv+0xca>
     f02:	4643      	mov	r3, r8
     f04:	075b      	lsls	r3, r3, #29
     f06:	431d      	orrs	r5, r3
     f08:	4643      	mov	r3, r8
     f0a:	0552      	lsls	r2, r2, #21
     f0c:	025c      	lsls	r4, r3, #9
     f0e:	0b24      	lsrs	r4, r4, #12
     f10:	0d53      	lsrs	r3, r2, #21
     f12:	e708      	b.n	d26 <__aeabi_ddiv+0xae>
     f14:	4652      	mov	r2, sl
     f16:	4322      	orrs	r2, r4
     f18:	d100      	bne.n	f1c <__aeabi_ddiv+0x2a4>
     f1a:	e07b      	b.n	1014 <__aeabi_ddiv+0x39c>
     f1c:	2c00      	cmp	r4, #0
     f1e:	d100      	bne.n	f22 <__aeabi_ddiv+0x2aa>
     f20:	e0fa      	b.n	1118 <__aeabi_ddiv+0x4a0>
     f22:	0020      	movs	r0, r4
     f24:	f001 f952 	bl	21cc <__clzsi2>
     f28:	0002      	movs	r2, r0
     f2a:	3a0b      	subs	r2, #11
     f2c:	231d      	movs	r3, #29
     f2e:	0001      	movs	r1, r0
     f30:	1a9b      	subs	r3, r3, r2
     f32:	4652      	mov	r2, sl
     f34:	3908      	subs	r1, #8
     f36:	40da      	lsrs	r2, r3
     f38:	408c      	lsls	r4, r1
     f3a:	4314      	orrs	r4, r2
     f3c:	4652      	mov	r2, sl
     f3e:	408a      	lsls	r2, r1
     f40:	4b31      	ldr	r3, [pc, #196]	; (1008 <__aeabi_ddiv+0x390>)
     f42:	4458      	add	r0, fp
     f44:	469b      	mov	fp, r3
     f46:	4483      	add	fp, r0
     f48:	2000      	movs	r0, #0
     f4a:	e6d5      	b.n	cf8 <__aeabi_ddiv+0x80>
     f4c:	464b      	mov	r3, r9
     f4e:	4323      	orrs	r3, r4
     f50:	4698      	mov	r8, r3
     f52:	d044      	beq.n	fde <__aeabi_ddiv+0x366>
     f54:	2c00      	cmp	r4, #0
     f56:	d100      	bne.n	f5a <__aeabi_ddiv+0x2e2>
     f58:	e0ce      	b.n	10f8 <__aeabi_ddiv+0x480>
     f5a:	0020      	movs	r0, r4
     f5c:	f001 f936 	bl	21cc <__clzsi2>
     f60:	0001      	movs	r1, r0
     f62:	0002      	movs	r2, r0
     f64:	390b      	subs	r1, #11
     f66:	231d      	movs	r3, #29
     f68:	1a5b      	subs	r3, r3, r1
     f6a:	4649      	mov	r1, r9
     f6c:	0010      	movs	r0, r2
     f6e:	40d9      	lsrs	r1, r3
     f70:	3808      	subs	r0, #8
     f72:	4084      	lsls	r4, r0
     f74:	000b      	movs	r3, r1
     f76:	464d      	mov	r5, r9
     f78:	4323      	orrs	r3, r4
     f7a:	4698      	mov	r8, r3
     f7c:	4085      	lsls	r5, r0
     f7e:	4823      	ldr	r0, [pc, #140]	; (100c <__aeabi_ddiv+0x394>)
     f80:	1a83      	subs	r3, r0, r2
     f82:	469b      	mov	fp, r3
     f84:	2300      	movs	r3, #0
     f86:	4699      	mov	r9, r3
     f88:	9300      	str	r3, [sp, #0]
     f8a:	e69a      	b.n	cc2 <__aeabi_ddiv+0x4a>
     f8c:	464b      	mov	r3, r9
     f8e:	4323      	orrs	r3, r4
     f90:	4698      	mov	r8, r3
     f92:	d11d      	bne.n	fd0 <__aeabi_ddiv+0x358>
     f94:	2308      	movs	r3, #8
     f96:	4699      	mov	r9, r3
     f98:	3b06      	subs	r3, #6
     f9a:	2500      	movs	r5, #0
     f9c:	4683      	mov	fp, r0
     f9e:	9300      	str	r3, [sp, #0]
     fa0:	e68f      	b.n	cc2 <__aeabi_ddiv+0x4a>
     fa2:	4652      	mov	r2, sl
     fa4:	4322      	orrs	r2, r4
     fa6:	d109      	bne.n	fbc <__aeabi_ddiv+0x344>
     fa8:	2302      	movs	r3, #2
     faa:	4649      	mov	r1, r9
     fac:	4319      	orrs	r1, r3
     fae:	4b18      	ldr	r3, [pc, #96]	; (1010 <__aeabi_ddiv+0x398>)
     fb0:	4689      	mov	r9, r1
     fb2:	469c      	mov	ip, r3
     fb4:	2400      	movs	r4, #0
     fb6:	2002      	movs	r0, #2
     fb8:	44e3      	add	fp, ip
     fba:	e69d      	b.n	cf8 <__aeabi_ddiv+0x80>
     fbc:	2303      	movs	r3, #3
     fbe:	464a      	mov	r2, r9
     fc0:	431a      	orrs	r2, r3
     fc2:	4b13      	ldr	r3, [pc, #76]	; (1010 <__aeabi_ddiv+0x398>)
     fc4:	4691      	mov	r9, r2
     fc6:	469c      	mov	ip, r3
     fc8:	4652      	mov	r2, sl
     fca:	2003      	movs	r0, #3
     fcc:	44e3      	add	fp, ip
     fce:	e693      	b.n	cf8 <__aeabi_ddiv+0x80>
     fd0:	230c      	movs	r3, #12
     fd2:	4699      	mov	r9, r3
     fd4:	3b09      	subs	r3, #9
     fd6:	46a0      	mov	r8, r4
     fd8:	4683      	mov	fp, r0
     fda:	9300      	str	r3, [sp, #0]
     fdc:	e671      	b.n	cc2 <__aeabi_ddiv+0x4a>
     fde:	2304      	movs	r3, #4
     fe0:	4699      	mov	r9, r3
     fe2:	2300      	movs	r3, #0
     fe4:	469b      	mov	fp, r3
     fe6:	3301      	adds	r3, #1
     fe8:	2500      	movs	r5, #0
     fea:	9300      	str	r3, [sp, #0]
     fec:	e669      	b.n	cc2 <__aeabi_ddiv+0x4a>
     fee:	46c0      	nop			; (mov r8, r8)
     ff0:	000007ff 	.word	0x000007ff
     ff4:	fffffc01 	.word	0xfffffc01
     ff8:	00008dcc 	.word	0x00008dcc
     ffc:	000003ff 	.word	0x000003ff
    1000:	feffffff 	.word	0xfeffffff
    1004:	000007fe 	.word	0x000007fe
    1008:	000003f3 	.word	0x000003f3
    100c:	fffffc0d 	.word	0xfffffc0d
    1010:	fffff801 	.word	0xfffff801
    1014:	4649      	mov	r1, r9
    1016:	2301      	movs	r3, #1
    1018:	4319      	orrs	r1, r3
    101a:	4689      	mov	r9, r1
    101c:	2400      	movs	r4, #0
    101e:	2001      	movs	r0, #1
    1020:	e66a      	b.n	cf8 <__aeabi_ddiv+0x80>
    1022:	2300      	movs	r3, #0
    1024:	2480      	movs	r4, #128	; 0x80
    1026:	469a      	mov	sl, r3
    1028:	2500      	movs	r5, #0
    102a:	4b8a      	ldr	r3, [pc, #552]	; (1254 <__aeabi_ddiv+0x5dc>)
    102c:	0324      	lsls	r4, r4, #12
    102e:	e67a      	b.n	d26 <__aeabi_ddiv+0xae>
    1030:	2501      	movs	r5, #1
    1032:	426d      	negs	r5, r5
    1034:	2301      	movs	r3, #1
    1036:	1a9b      	subs	r3, r3, r2
    1038:	2b38      	cmp	r3, #56	; 0x38
    103a:	dd00      	ble.n	103e <__aeabi_ddiv+0x3c6>
    103c:	e670      	b.n	d20 <__aeabi_ddiv+0xa8>
    103e:	2b1f      	cmp	r3, #31
    1040:	dc00      	bgt.n	1044 <__aeabi_ddiv+0x3cc>
    1042:	e0bf      	b.n	11c4 <__aeabi_ddiv+0x54c>
    1044:	211f      	movs	r1, #31
    1046:	4249      	negs	r1, r1
    1048:	1a8a      	subs	r2, r1, r2
    104a:	4641      	mov	r1, r8
    104c:	40d1      	lsrs	r1, r2
    104e:	000a      	movs	r2, r1
    1050:	2b20      	cmp	r3, #32
    1052:	d004      	beq.n	105e <__aeabi_ddiv+0x3e6>
    1054:	4641      	mov	r1, r8
    1056:	4b80      	ldr	r3, [pc, #512]	; (1258 <__aeabi_ddiv+0x5e0>)
    1058:	445b      	add	r3, fp
    105a:	4099      	lsls	r1, r3
    105c:	430d      	orrs	r5, r1
    105e:	1e6b      	subs	r3, r5, #1
    1060:	419d      	sbcs	r5, r3
    1062:	2307      	movs	r3, #7
    1064:	432a      	orrs	r2, r5
    1066:	001d      	movs	r5, r3
    1068:	2400      	movs	r4, #0
    106a:	4015      	ands	r5, r2
    106c:	4213      	tst	r3, r2
    106e:	d100      	bne.n	1072 <__aeabi_ddiv+0x3fa>
    1070:	e0d4      	b.n	121c <__aeabi_ddiv+0x5a4>
    1072:	210f      	movs	r1, #15
    1074:	2300      	movs	r3, #0
    1076:	4011      	ands	r1, r2
    1078:	2904      	cmp	r1, #4
    107a:	d100      	bne.n	107e <__aeabi_ddiv+0x406>
    107c:	e0cb      	b.n	1216 <__aeabi_ddiv+0x59e>
    107e:	1d11      	adds	r1, r2, #4
    1080:	4291      	cmp	r1, r2
    1082:	4192      	sbcs	r2, r2
    1084:	4252      	negs	r2, r2
    1086:	189b      	adds	r3, r3, r2
    1088:	000a      	movs	r2, r1
    108a:	0219      	lsls	r1, r3, #8
    108c:	d400      	bmi.n	1090 <__aeabi_ddiv+0x418>
    108e:	e0c2      	b.n	1216 <__aeabi_ddiv+0x59e>
    1090:	2301      	movs	r3, #1
    1092:	2400      	movs	r4, #0
    1094:	2500      	movs	r5, #0
    1096:	e646      	b.n	d26 <__aeabi_ddiv+0xae>
    1098:	2380      	movs	r3, #128	; 0x80
    109a:	4641      	mov	r1, r8
    109c:	031b      	lsls	r3, r3, #12
    109e:	4219      	tst	r1, r3
    10a0:	d008      	beq.n	10b4 <__aeabi_ddiv+0x43c>
    10a2:	421c      	tst	r4, r3
    10a4:	d106      	bne.n	10b4 <__aeabi_ddiv+0x43c>
    10a6:	431c      	orrs	r4, r3
    10a8:	0324      	lsls	r4, r4, #12
    10aa:	46ba      	mov	sl, r7
    10ac:	0015      	movs	r5, r2
    10ae:	4b69      	ldr	r3, [pc, #420]	; (1254 <__aeabi_ddiv+0x5dc>)
    10b0:	0b24      	lsrs	r4, r4, #12
    10b2:	e638      	b.n	d26 <__aeabi_ddiv+0xae>
    10b4:	2480      	movs	r4, #128	; 0x80
    10b6:	4643      	mov	r3, r8
    10b8:	0324      	lsls	r4, r4, #12
    10ba:	431c      	orrs	r4, r3
    10bc:	0324      	lsls	r4, r4, #12
    10be:	46b2      	mov	sl, r6
    10c0:	4b64      	ldr	r3, [pc, #400]	; (1254 <__aeabi_ddiv+0x5dc>)
    10c2:	0b24      	lsrs	r4, r4, #12
    10c4:	e62f      	b.n	d26 <__aeabi_ddiv+0xae>
    10c6:	2b00      	cmp	r3, #0
    10c8:	d100      	bne.n	10cc <__aeabi_ddiv+0x454>
    10ca:	e703      	b.n	ed4 <__aeabi_ddiv+0x25c>
    10cc:	19a6      	adds	r6, r4, r6
    10ce:	1e68      	subs	r0, r5, #1
    10d0:	42a6      	cmp	r6, r4
    10d2:	d200      	bcs.n	10d6 <__aeabi_ddiv+0x45e>
    10d4:	e08d      	b.n	11f2 <__aeabi_ddiv+0x57a>
    10d6:	428e      	cmp	r6, r1
    10d8:	d200      	bcs.n	10dc <__aeabi_ddiv+0x464>
    10da:	e0a3      	b.n	1224 <__aeabi_ddiv+0x5ac>
    10dc:	d100      	bne.n	10e0 <__aeabi_ddiv+0x468>
    10de:	e0b3      	b.n	1248 <__aeabi_ddiv+0x5d0>
    10e0:	0005      	movs	r5, r0
    10e2:	e6f5      	b.n	ed0 <__aeabi_ddiv+0x258>
    10e4:	42aa      	cmp	r2, r5
    10e6:	d900      	bls.n	10ea <__aeabi_ddiv+0x472>
    10e8:	e639      	b.n	d5e <__aeabi_ddiv+0xe6>
    10ea:	4643      	mov	r3, r8
    10ec:	07de      	lsls	r6, r3, #31
    10ee:	0858      	lsrs	r0, r3, #1
    10f0:	086b      	lsrs	r3, r5, #1
    10f2:	431e      	orrs	r6, r3
    10f4:	07ed      	lsls	r5, r5, #31
    10f6:	e639      	b.n	d6c <__aeabi_ddiv+0xf4>
    10f8:	4648      	mov	r0, r9
    10fa:	f001 f867 	bl	21cc <__clzsi2>
    10fe:	0001      	movs	r1, r0
    1100:	0002      	movs	r2, r0
    1102:	3115      	adds	r1, #21
    1104:	3220      	adds	r2, #32
    1106:	291c      	cmp	r1, #28
    1108:	dc00      	bgt.n	110c <__aeabi_ddiv+0x494>
    110a:	e72c      	b.n	f66 <__aeabi_ddiv+0x2ee>
    110c:	464b      	mov	r3, r9
    110e:	3808      	subs	r0, #8
    1110:	4083      	lsls	r3, r0
    1112:	2500      	movs	r5, #0
    1114:	4698      	mov	r8, r3
    1116:	e732      	b.n	f7e <__aeabi_ddiv+0x306>
    1118:	f001 f858 	bl	21cc <__clzsi2>
    111c:	0003      	movs	r3, r0
    111e:	001a      	movs	r2, r3
    1120:	3215      	adds	r2, #21
    1122:	3020      	adds	r0, #32
    1124:	2a1c      	cmp	r2, #28
    1126:	dc00      	bgt.n	112a <__aeabi_ddiv+0x4b2>
    1128:	e700      	b.n	f2c <__aeabi_ddiv+0x2b4>
    112a:	4654      	mov	r4, sl
    112c:	3b08      	subs	r3, #8
    112e:	2200      	movs	r2, #0
    1130:	409c      	lsls	r4, r3
    1132:	e705      	b.n	f40 <__aeabi_ddiv+0x2c8>
    1134:	1936      	adds	r6, r6, r4
    1136:	3b01      	subs	r3, #1
    1138:	42b4      	cmp	r4, r6
    113a:	d900      	bls.n	113e <__aeabi_ddiv+0x4c6>
    113c:	e6a6      	b.n	e8c <__aeabi_ddiv+0x214>
    113e:	42b2      	cmp	r2, r6
    1140:	d800      	bhi.n	1144 <__aeabi_ddiv+0x4cc>
    1142:	e6a3      	b.n	e8c <__aeabi_ddiv+0x214>
    1144:	1e83      	subs	r3, r0, #2
    1146:	1936      	adds	r6, r6, r4
    1148:	e6a0      	b.n	e8c <__aeabi_ddiv+0x214>
    114a:	1909      	adds	r1, r1, r4
    114c:	3d01      	subs	r5, #1
    114e:	428c      	cmp	r4, r1
    1150:	d900      	bls.n	1154 <__aeabi_ddiv+0x4dc>
    1152:	e68d      	b.n	e70 <__aeabi_ddiv+0x1f8>
    1154:	428a      	cmp	r2, r1
    1156:	d800      	bhi.n	115a <__aeabi_ddiv+0x4e2>
    1158:	e68a      	b.n	e70 <__aeabi_ddiv+0x1f8>
    115a:	1e85      	subs	r5, r0, #2
    115c:	1909      	adds	r1, r1, r4
    115e:	e687      	b.n	e70 <__aeabi_ddiv+0x1f8>
    1160:	230f      	movs	r3, #15
    1162:	402b      	ands	r3, r5
    1164:	2b04      	cmp	r3, #4
    1166:	d100      	bne.n	116a <__aeabi_ddiv+0x4f2>
    1168:	e6bc      	b.n	ee4 <__aeabi_ddiv+0x26c>
    116a:	2305      	movs	r3, #5
    116c:	425b      	negs	r3, r3
    116e:	42ab      	cmp	r3, r5
    1170:	419b      	sbcs	r3, r3
    1172:	3504      	adds	r5, #4
    1174:	425b      	negs	r3, r3
    1176:	08ed      	lsrs	r5, r5, #3
    1178:	4498      	add	r8, r3
    117a:	e6b4      	b.n	ee6 <__aeabi_ddiv+0x26e>
    117c:	42af      	cmp	r7, r5
    117e:	d900      	bls.n	1182 <__aeabi_ddiv+0x50a>
    1180:	e660      	b.n	e44 <__aeabi_ddiv+0x1cc>
    1182:	4282      	cmp	r2, r0
    1184:	d804      	bhi.n	1190 <__aeabi_ddiv+0x518>
    1186:	d000      	beq.n	118a <__aeabi_ddiv+0x512>
    1188:	e65c      	b.n	e44 <__aeabi_ddiv+0x1cc>
    118a:	42ae      	cmp	r6, r5
    118c:	d800      	bhi.n	1190 <__aeabi_ddiv+0x518>
    118e:	e659      	b.n	e44 <__aeabi_ddiv+0x1cc>
    1190:	2302      	movs	r3, #2
    1192:	425b      	negs	r3, r3
    1194:	469c      	mov	ip, r3
    1196:	9b00      	ldr	r3, [sp, #0]
    1198:	44e0      	add	r8, ip
    119a:	469c      	mov	ip, r3
    119c:	4465      	add	r5, ip
    119e:	429d      	cmp	r5, r3
    11a0:	419b      	sbcs	r3, r3
    11a2:	425b      	negs	r3, r3
    11a4:	191b      	adds	r3, r3, r4
    11a6:	18c0      	adds	r0, r0, r3
    11a8:	e64d      	b.n	e46 <__aeabi_ddiv+0x1ce>
    11aa:	428a      	cmp	r2, r1
    11ac:	d800      	bhi.n	11b0 <__aeabi_ddiv+0x538>
    11ae:	e60e      	b.n	dce <__aeabi_ddiv+0x156>
    11b0:	1e83      	subs	r3, r0, #2
    11b2:	1909      	adds	r1, r1, r4
    11b4:	e60b      	b.n	dce <__aeabi_ddiv+0x156>
    11b6:	428a      	cmp	r2, r1
    11b8:	d800      	bhi.n	11bc <__aeabi_ddiv+0x544>
    11ba:	e5f4      	b.n	da6 <__aeabi_ddiv+0x12e>
    11bc:	1e83      	subs	r3, r0, #2
    11be:	4698      	mov	r8, r3
    11c0:	1909      	adds	r1, r1, r4
    11c2:	e5f0      	b.n	da6 <__aeabi_ddiv+0x12e>
    11c4:	4925      	ldr	r1, [pc, #148]	; (125c <__aeabi_ddiv+0x5e4>)
    11c6:	0028      	movs	r0, r5
    11c8:	4459      	add	r1, fp
    11ca:	408d      	lsls	r5, r1
    11cc:	4642      	mov	r2, r8
    11ce:	408a      	lsls	r2, r1
    11d0:	1e69      	subs	r1, r5, #1
    11d2:	418d      	sbcs	r5, r1
    11d4:	4641      	mov	r1, r8
    11d6:	40d8      	lsrs	r0, r3
    11d8:	40d9      	lsrs	r1, r3
    11da:	4302      	orrs	r2, r0
    11dc:	432a      	orrs	r2, r5
    11de:	000b      	movs	r3, r1
    11e0:	0751      	lsls	r1, r2, #29
    11e2:	d100      	bne.n	11e6 <__aeabi_ddiv+0x56e>
    11e4:	e751      	b.n	108a <__aeabi_ddiv+0x412>
    11e6:	210f      	movs	r1, #15
    11e8:	4011      	ands	r1, r2
    11ea:	2904      	cmp	r1, #4
    11ec:	d000      	beq.n	11f0 <__aeabi_ddiv+0x578>
    11ee:	e746      	b.n	107e <__aeabi_ddiv+0x406>
    11f0:	e74b      	b.n	108a <__aeabi_ddiv+0x412>
    11f2:	0005      	movs	r5, r0
    11f4:	428e      	cmp	r6, r1
    11f6:	d000      	beq.n	11fa <__aeabi_ddiv+0x582>
    11f8:	e66a      	b.n	ed0 <__aeabi_ddiv+0x258>
    11fa:	9a00      	ldr	r2, [sp, #0]
    11fc:	4293      	cmp	r3, r2
    11fe:	d000      	beq.n	1202 <__aeabi_ddiv+0x58a>
    1200:	e666      	b.n	ed0 <__aeabi_ddiv+0x258>
    1202:	e667      	b.n	ed4 <__aeabi_ddiv+0x25c>
    1204:	4a16      	ldr	r2, [pc, #88]	; (1260 <__aeabi_ddiv+0x5e8>)
    1206:	445a      	add	r2, fp
    1208:	2a00      	cmp	r2, #0
    120a:	dc00      	bgt.n	120e <__aeabi_ddiv+0x596>
    120c:	e710      	b.n	1030 <__aeabi_ddiv+0x3b8>
    120e:	2301      	movs	r3, #1
    1210:	2500      	movs	r5, #0
    1212:	4498      	add	r8, r3
    1214:	e667      	b.n	ee6 <__aeabi_ddiv+0x26e>
    1216:	075d      	lsls	r5, r3, #29
    1218:	025b      	lsls	r3, r3, #9
    121a:	0b1c      	lsrs	r4, r3, #12
    121c:	08d2      	lsrs	r2, r2, #3
    121e:	2300      	movs	r3, #0
    1220:	4315      	orrs	r5, r2
    1222:	e580      	b.n	d26 <__aeabi_ddiv+0xae>
    1224:	9800      	ldr	r0, [sp, #0]
    1226:	3d02      	subs	r5, #2
    1228:	0042      	lsls	r2, r0, #1
    122a:	4282      	cmp	r2, r0
    122c:	41bf      	sbcs	r7, r7
    122e:	427f      	negs	r7, r7
    1230:	193c      	adds	r4, r7, r4
    1232:	1936      	adds	r6, r6, r4
    1234:	9200      	str	r2, [sp, #0]
    1236:	e7dd      	b.n	11f4 <__aeabi_ddiv+0x57c>
    1238:	2480      	movs	r4, #128	; 0x80
    123a:	4643      	mov	r3, r8
    123c:	0324      	lsls	r4, r4, #12
    123e:	431c      	orrs	r4, r3
    1240:	0324      	lsls	r4, r4, #12
    1242:	4b04      	ldr	r3, [pc, #16]	; (1254 <__aeabi_ddiv+0x5dc>)
    1244:	0b24      	lsrs	r4, r4, #12
    1246:	e56e      	b.n	d26 <__aeabi_ddiv+0xae>
    1248:	9a00      	ldr	r2, [sp, #0]
    124a:	429a      	cmp	r2, r3
    124c:	d3ea      	bcc.n	1224 <__aeabi_ddiv+0x5ac>
    124e:	0005      	movs	r5, r0
    1250:	e7d3      	b.n	11fa <__aeabi_ddiv+0x582>
    1252:	46c0      	nop			; (mov r8, r8)
    1254:	000007ff 	.word	0x000007ff
    1258:	0000043e 	.word	0x0000043e
    125c:	0000041e 	.word	0x0000041e
    1260:	000003ff 	.word	0x000003ff

00001264 <__eqdf2>:
    1264:	b5f0      	push	{r4, r5, r6, r7, lr}
    1266:	464e      	mov	r6, r9
    1268:	4645      	mov	r5, r8
    126a:	46de      	mov	lr, fp
    126c:	4657      	mov	r7, sl
    126e:	4690      	mov	r8, r2
    1270:	b5e0      	push	{r5, r6, r7, lr}
    1272:	0017      	movs	r7, r2
    1274:	031a      	lsls	r2, r3, #12
    1276:	0b12      	lsrs	r2, r2, #12
    1278:	0005      	movs	r5, r0
    127a:	4684      	mov	ip, r0
    127c:	4819      	ldr	r0, [pc, #100]	; (12e4 <__eqdf2+0x80>)
    127e:	030e      	lsls	r6, r1, #12
    1280:	004c      	lsls	r4, r1, #1
    1282:	4691      	mov	r9, r2
    1284:	005a      	lsls	r2, r3, #1
    1286:	0fdb      	lsrs	r3, r3, #31
    1288:	469b      	mov	fp, r3
    128a:	0b36      	lsrs	r6, r6, #12
    128c:	0d64      	lsrs	r4, r4, #21
    128e:	0fc9      	lsrs	r1, r1, #31
    1290:	0d52      	lsrs	r2, r2, #21
    1292:	4284      	cmp	r4, r0
    1294:	d019      	beq.n	12ca <__eqdf2+0x66>
    1296:	4282      	cmp	r2, r0
    1298:	d010      	beq.n	12bc <__eqdf2+0x58>
    129a:	2001      	movs	r0, #1
    129c:	4294      	cmp	r4, r2
    129e:	d10e      	bne.n	12be <__eqdf2+0x5a>
    12a0:	454e      	cmp	r6, r9
    12a2:	d10c      	bne.n	12be <__eqdf2+0x5a>
    12a4:	2001      	movs	r0, #1
    12a6:	45c4      	cmp	ip, r8
    12a8:	d109      	bne.n	12be <__eqdf2+0x5a>
    12aa:	4559      	cmp	r1, fp
    12ac:	d017      	beq.n	12de <__eqdf2+0x7a>
    12ae:	2c00      	cmp	r4, #0
    12b0:	d105      	bne.n	12be <__eqdf2+0x5a>
    12b2:	0030      	movs	r0, r6
    12b4:	4328      	orrs	r0, r5
    12b6:	1e43      	subs	r3, r0, #1
    12b8:	4198      	sbcs	r0, r3
    12ba:	e000      	b.n	12be <__eqdf2+0x5a>
    12bc:	2001      	movs	r0, #1
    12be:	bcf0      	pop	{r4, r5, r6, r7}
    12c0:	46bb      	mov	fp, r7
    12c2:	46b2      	mov	sl, r6
    12c4:	46a9      	mov	r9, r5
    12c6:	46a0      	mov	r8, r4
    12c8:	bdf0      	pop	{r4, r5, r6, r7, pc}
    12ca:	0033      	movs	r3, r6
    12cc:	2001      	movs	r0, #1
    12ce:	432b      	orrs	r3, r5
    12d0:	d1f5      	bne.n	12be <__eqdf2+0x5a>
    12d2:	42a2      	cmp	r2, r4
    12d4:	d1f3      	bne.n	12be <__eqdf2+0x5a>
    12d6:	464b      	mov	r3, r9
    12d8:	433b      	orrs	r3, r7
    12da:	d1f0      	bne.n	12be <__eqdf2+0x5a>
    12dc:	e7e2      	b.n	12a4 <__eqdf2+0x40>
    12de:	2000      	movs	r0, #0
    12e0:	e7ed      	b.n	12be <__eqdf2+0x5a>
    12e2:	46c0      	nop			; (mov r8, r8)
    12e4:	000007ff 	.word	0x000007ff

000012e8 <__gedf2>:
    12e8:	b5f0      	push	{r4, r5, r6, r7, lr}
    12ea:	4647      	mov	r7, r8
    12ec:	46ce      	mov	lr, r9
    12ee:	0004      	movs	r4, r0
    12f0:	0018      	movs	r0, r3
    12f2:	0016      	movs	r6, r2
    12f4:	031b      	lsls	r3, r3, #12
    12f6:	0b1b      	lsrs	r3, r3, #12
    12f8:	4d2d      	ldr	r5, [pc, #180]	; (13b0 <__gedf2+0xc8>)
    12fa:	004a      	lsls	r2, r1, #1
    12fc:	4699      	mov	r9, r3
    12fe:	b580      	push	{r7, lr}
    1300:	0043      	lsls	r3, r0, #1
    1302:	030f      	lsls	r7, r1, #12
    1304:	46a4      	mov	ip, r4
    1306:	46b0      	mov	r8, r6
    1308:	0b3f      	lsrs	r7, r7, #12
    130a:	0d52      	lsrs	r2, r2, #21
    130c:	0fc9      	lsrs	r1, r1, #31
    130e:	0d5b      	lsrs	r3, r3, #21
    1310:	0fc0      	lsrs	r0, r0, #31
    1312:	42aa      	cmp	r2, r5
    1314:	d021      	beq.n	135a <__gedf2+0x72>
    1316:	42ab      	cmp	r3, r5
    1318:	d013      	beq.n	1342 <__gedf2+0x5a>
    131a:	2a00      	cmp	r2, #0
    131c:	d122      	bne.n	1364 <__gedf2+0x7c>
    131e:	433c      	orrs	r4, r7
    1320:	2b00      	cmp	r3, #0
    1322:	d102      	bne.n	132a <__gedf2+0x42>
    1324:	464d      	mov	r5, r9
    1326:	432e      	orrs	r6, r5
    1328:	d022      	beq.n	1370 <__gedf2+0x88>
    132a:	2c00      	cmp	r4, #0
    132c:	d010      	beq.n	1350 <__gedf2+0x68>
    132e:	4281      	cmp	r1, r0
    1330:	d022      	beq.n	1378 <__gedf2+0x90>
    1332:	2002      	movs	r0, #2
    1334:	3901      	subs	r1, #1
    1336:	4008      	ands	r0, r1
    1338:	3801      	subs	r0, #1
    133a:	bcc0      	pop	{r6, r7}
    133c:	46b9      	mov	r9, r7
    133e:	46b0      	mov	r8, r6
    1340:	bdf0      	pop	{r4, r5, r6, r7, pc}
    1342:	464d      	mov	r5, r9
    1344:	432e      	orrs	r6, r5
    1346:	d129      	bne.n	139c <__gedf2+0xb4>
    1348:	2a00      	cmp	r2, #0
    134a:	d1f0      	bne.n	132e <__gedf2+0x46>
    134c:	433c      	orrs	r4, r7
    134e:	d1ee      	bne.n	132e <__gedf2+0x46>
    1350:	2800      	cmp	r0, #0
    1352:	d1f2      	bne.n	133a <__gedf2+0x52>
    1354:	2001      	movs	r0, #1
    1356:	4240      	negs	r0, r0
    1358:	e7ef      	b.n	133a <__gedf2+0x52>
    135a:	003d      	movs	r5, r7
    135c:	4325      	orrs	r5, r4
    135e:	d11d      	bne.n	139c <__gedf2+0xb4>
    1360:	4293      	cmp	r3, r2
    1362:	d0ee      	beq.n	1342 <__gedf2+0x5a>
    1364:	2b00      	cmp	r3, #0
    1366:	d1e2      	bne.n	132e <__gedf2+0x46>
    1368:	464c      	mov	r4, r9
    136a:	4326      	orrs	r6, r4
    136c:	d1df      	bne.n	132e <__gedf2+0x46>
    136e:	e7e0      	b.n	1332 <__gedf2+0x4a>
    1370:	2000      	movs	r0, #0
    1372:	2c00      	cmp	r4, #0
    1374:	d0e1      	beq.n	133a <__gedf2+0x52>
    1376:	e7dc      	b.n	1332 <__gedf2+0x4a>
    1378:	429a      	cmp	r2, r3
    137a:	dc0a      	bgt.n	1392 <__gedf2+0xaa>
    137c:	dbe8      	blt.n	1350 <__gedf2+0x68>
    137e:	454f      	cmp	r7, r9
    1380:	d8d7      	bhi.n	1332 <__gedf2+0x4a>
    1382:	d00e      	beq.n	13a2 <__gedf2+0xba>
    1384:	2000      	movs	r0, #0
    1386:	454f      	cmp	r7, r9
    1388:	d2d7      	bcs.n	133a <__gedf2+0x52>
    138a:	2900      	cmp	r1, #0
    138c:	d0e2      	beq.n	1354 <__gedf2+0x6c>
    138e:	0008      	movs	r0, r1
    1390:	e7d3      	b.n	133a <__gedf2+0x52>
    1392:	4243      	negs	r3, r0
    1394:	4158      	adcs	r0, r3
    1396:	0040      	lsls	r0, r0, #1
    1398:	3801      	subs	r0, #1
    139a:	e7ce      	b.n	133a <__gedf2+0x52>
    139c:	2002      	movs	r0, #2
    139e:	4240      	negs	r0, r0
    13a0:	e7cb      	b.n	133a <__gedf2+0x52>
    13a2:	45c4      	cmp	ip, r8
    13a4:	d8c5      	bhi.n	1332 <__gedf2+0x4a>
    13a6:	2000      	movs	r0, #0
    13a8:	45c4      	cmp	ip, r8
    13aa:	d2c6      	bcs.n	133a <__gedf2+0x52>
    13ac:	e7ed      	b.n	138a <__gedf2+0xa2>
    13ae:	46c0      	nop			; (mov r8, r8)
    13b0:	000007ff 	.word	0x000007ff

000013b4 <__ledf2>:
    13b4:	b5f0      	push	{r4, r5, r6, r7, lr}
    13b6:	4647      	mov	r7, r8
    13b8:	46ce      	mov	lr, r9
    13ba:	0004      	movs	r4, r0
    13bc:	0018      	movs	r0, r3
    13be:	0016      	movs	r6, r2
    13c0:	031b      	lsls	r3, r3, #12
    13c2:	0b1b      	lsrs	r3, r3, #12
    13c4:	4d2c      	ldr	r5, [pc, #176]	; (1478 <__ledf2+0xc4>)
    13c6:	004a      	lsls	r2, r1, #1
    13c8:	4699      	mov	r9, r3
    13ca:	b580      	push	{r7, lr}
    13cc:	0043      	lsls	r3, r0, #1
    13ce:	030f      	lsls	r7, r1, #12
    13d0:	46a4      	mov	ip, r4
    13d2:	46b0      	mov	r8, r6
    13d4:	0b3f      	lsrs	r7, r7, #12
    13d6:	0d52      	lsrs	r2, r2, #21
    13d8:	0fc9      	lsrs	r1, r1, #31
    13da:	0d5b      	lsrs	r3, r3, #21
    13dc:	0fc0      	lsrs	r0, r0, #31
    13de:	42aa      	cmp	r2, r5
    13e0:	d00d      	beq.n	13fe <__ledf2+0x4a>
    13e2:	42ab      	cmp	r3, r5
    13e4:	d010      	beq.n	1408 <__ledf2+0x54>
    13e6:	2a00      	cmp	r2, #0
    13e8:	d127      	bne.n	143a <__ledf2+0x86>
    13ea:	433c      	orrs	r4, r7
    13ec:	2b00      	cmp	r3, #0
    13ee:	d111      	bne.n	1414 <__ledf2+0x60>
    13f0:	464d      	mov	r5, r9
    13f2:	432e      	orrs	r6, r5
    13f4:	d10e      	bne.n	1414 <__ledf2+0x60>
    13f6:	2000      	movs	r0, #0
    13f8:	2c00      	cmp	r4, #0
    13fa:	d015      	beq.n	1428 <__ledf2+0x74>
    13fc:	e00e      	b.n	141c <__ledf2+0x68>
    13fe:	003d      	movs	r5, r7
    1400:	4325      	orrs	r5, r4
    1402:	d110      	bne.n	1426 <__ledf2+0x72>
    1404:	4293      	cmp	r3, r2
    1406:	d118      	bne.n	143a <__ledf2+0x86>
    1408:	464d      	mov	r5, r9
    140a:	432e      	orrs	r6, r5
    140c:	d10b      	bne.n	1426 <__ledf2+0x72>
    140e:	2a00      	cmp	r2, #0
    1410:	d102      	bne.n	1418 <__ledf2+0x64>
    1412:	433c      	orrs	r4, r7
    1414:	2c00      	cmp	r4, #0
    1416:	d00b      	beq.n	1430 <__ledf2+0x7c>
    1418:	4281      	cmp	r1, r0
    141a:	d014      	beq.n	1446 <__ledf2+0x92>
    141c:	2002      	movs	r0, #2
    141e:	3901      	subs	r1, #1
    1420:	4008      	ands	r0, r1
    1422:	3801      	subs	r0, #1
    1424:	e000      	b.n	1428 <__ledf2+0x74>
    1426:	2002      	movs	r0, #2
    1428:	bcc0      	pop	{r6, r7}
    142a:	46b9      	mov	r9, r7
    142c:	46b0      	mov	r8, r6
    142e:	bdf0      	pop	{r4, r5, r6, r7, pc}
    1430:	2800      	cmp	r0, #0
    1432:	d1f9      	bne.n	1428 <__ledf2+0x74>
    1434:	2001      	movs	r0, #1
    1436:	4240      	negs	r0, r0
    1438:	e7f6      	b.n	1428 <__ledf2+0x74>
    143a:	2b00      	cmp	r3, #0
    143c:	d1ec      	bne.n	1418 <__ledf2+0x64>
    143e:	464c      	mov	r4, r9
    1440:	4326      	orrs	r6, r4
    1442:	d1e9      	bne.n	1418 <__ledf2+0x64>
    1444:	e7ea      	b.n	141c <__ledf2+0x68>
    1446:	429a      	cmp	r2, r3
    1448:	dd04      	ble.n	1454 <__ledf2+0xa0>
    144a:	4243      	negs	r3, r0
    144c:	4158      	adcs	r0, r3
    144e:	0040      	lsls	r0, r0, #1
    1450:	3801      	subs	r0, #1
    1452:	e7e9      	b.n	1428 <__ledf2+0x74>
    1454:	429a      	cmp	r2, r3
    1456:	dbeb      	blt.n	1430 <__ledf2+0x7c>
    1458:	454f      	cmp	r7, r9
    145a:	d8df      	bhi.n	141c <__ledf2+0x68>
    145c:	d006      	beq.n	146c <__ledf2+0xb8>
    145e:	2000      	movs	r0, #0
    1460:	454f      	cmp	r7, r9
    1462:	d2e1      	bcs.n	1428 <__ledf2+0x74>
    1464:	2900      	cmp	r1, #0
    1466:	d0e5      	beq.n	1434 <__ledf2+0x80>
    1468:	0008      	movs	r0, r1
    146a:	e7dd      	b.n	1428 <__ledf2+0x74>
    146c:	45c4      	cmp	ip, r8
    146e:	d8d5      	bhi.n	141c <__ledf2+0x68>
    1470:	2000      	movs	r0, #0
    1472:	45c4      	cmp	ip, r8
    1474:	d2d8      	bcs.n	1428 <__ledf2+0x74>
    1476:	e7f5      	b.n	1464 <__ledf2+0xb0>
    1478:	000007ff 	.word	0x000007ff

0000147c <__aeabi_dmul>:
    147c:	b5f0      	push	{r4, r5, r6, r7, lr}
    147e:	4657      	mov	r7, sl
    1480:	464e      	mov	r6, r9
    1482:	4645      	mov	r5, r8
    1484:	46de      	mov	lr, fp
    1486:	b5e0      	push	{r5, r6, r7, lr}
    1488:	4698      	mov	r8, r3
    148a:	030c      	lsls	r4, r1, #12
    148c:	004b      	lsls	r3, r1, #1
    148e:	0006      	movs	r6, r0
    1490:	4692      	mov	sl, r2
    1492:	b087      	sub	sp, #28
    1494:	0b24      	lsrs	r4, r4, #12
    1496:	0d5b      	lsrs	r3, r3, #21
    1498:	0fcf      	lsrs	r7, r1, #31
    149a:	2b00      	cmp	r3, #0
    149c:	d100      	bne.n	14a0 <__aeabi_dmul+0x24>
    149e:	e15c      	b.n	175a <__aeabi_dmul+0x2de>
    14a0:	4ad9      	ldr	r2, [pc, #868]	; (1808 <__aeabi_dmul+0x38c>)
    14a2:	4293      	cmp	r3, r2
    14a4:	d100      	bne.n	14a8 <__aeabi_dmul+0x2c>
    14a6:	e175      	b.n	1794 <__aeabi_dmul+0x318>
    14a8:	0f42      	lsrs	r2, r0, #29
    14aa:	00e4      	lsls	r4, r4, #3
    14ac:	4314      	orrs	r4, r2
    14ae:	2280      	movs	r2, #128	; 0x80
    14b0:	0412      	lsls	r2, r2, #16
    14b2:	4314      	orrs	r4, r2
    14b4:	4ad5      	ldr	r2, [pc, #852]	; (180c <__aeabi_dmul+0x390>)
    14b6:	00c5      	lsls	r5, r0, #3
    14b8:	4694      	mov	ip, r2
    14ba:	4463      	add	r3, ip
    14bc:	9300      	str	r3, [sp, #0]
    14be:	2300      	movs	r3, #0
    14c0:	4699      	mov	r9, r3
    14c2:	469b      	mov	fp, r3
    14c4:	4643      	mov	r3, r8
    14c6:	4642      	mov	r2, r8
    14c8:	031e      	lsls	r6, r3, #12
    14ca:	0fd2      	lsrs	r2, r2, #31
    14cc:	005b      	lsls	r3, r3, #1
    14ce:	4650      	mov	r0, sl
    14d0:	4690      	mov	r8, r2
    14d2:	0b36      	lsrs	r6, r6, #12
    14d4:	0d5b      	lsrs	r3, r3, #21
    14d6:	d100      	bne.n	14da <__aeabi_dmul+0x5e>
    14d8:	e120      	b.n	171c <__aeabi_dmul+0x2a0>
    14da:	4acb      	ldr	r2, [pc, #812]	; (1808 <__aeabi_dmul+0x38c>)
    14dc:	4293      	cmp	r3, r2
    14de:	d100      	bne.n	14e2 <__aeabi_dmul+0x66>
    14e0:	e162      	b.n	17a8 <__aeabi_dmul+0x32c>
    14e2:	49ca      	ldr	r1, [pc, #808]	; (180c <__aeabi_dmul+0x390>)
    14e4:	0f42      	lsrs	r2, r0, #29
    14e6:	468c      	mov	ip, r1
    14e8:	9900      	ldr	r1, [sp, #0]
    14ea:	4463      	add	r3, ip
    14ec:	00f6      	lsls	r6, r6, #3
    14ee:	468c      	mov	ip, r1
    14f0:	4316      	orrs	r6, r2
    14f2:	2280      	movs	r2, #128	; 0x80
    14f4:	449c      	add	ip, r3
    14f6:	0412      	lsls	r2, r2, #16
    14f8:	4663      	mov	r3, ip
    14fa:	4316      	orrs	r6, r2
    14fc:	00c2      	lsls	r2, r0, #3
    14fe:	2000      	movs	r0, #0
    1500:	9300      	str	r3, [sp, #0]
    1502:	9900      	ldr	r1, [sp, #0]
    1504:	4643      	mov	r3, r8
    1506:	3101      	adds	r1, #1
    1508:	468c      	mov	ip, r1
    150a:	4649      	mov	r1, r9
    150c:	407b      	eors	r3, r7
    150e:	9301      	str	r3, [sp, #4]
    1510:	290f      	cmp	r1, #15
    1512:	d826      	bhi.n	1562 <__aeabi_dmul+0xe6>
    1514:	4bbe      	ldr	r3, [pc, #760]	; (1810 <__aeabi_dmul+0x394>)
    1516:	0089      	lsls	r1, r1, #2
    1518:	5859      	ldr	r1, [r3, r1]
    151a:	468f      	mov	pc, r1
    151c:	4643      	mov	r3, r8
    151e:	9301      	str	r3, [sp, #4]
    1520:	0034      	movs	r4, r6
    1522:	0015      	movs	r5, r2
    1524:	4683      	mov	fp, r0
    1526:	465b      	mov	r3, fp
    1528:	2b02      	cmp	r3, #2
    152a:	d016      	beq.n	155a <__aeabi_dmul+0xde>
    152c:	2b03      	cmp	r3, #3
    152e:	d100      	bne.n	1532 <__aeabi_dmul+0xb6>
    1530:	e203      	b.n	193a <__aeabi_dmul+0x4be>
    1532:	2b01      	cmp	r3, #1
    1534:	d000      	beq.n	1538 <__aeabi_dmul+0xbc>
    1536:	e0cd      	b.n	16d4 <__aeabi_dmul+0x258>
    1538:	2200      	movs	r2, #0
    153a:	2400      	movs	r4, #0
    153c:	2500      	movs	r5, #0
    153e:	9b01      	ldr	r3, [sp, #4]
    1540:	0512      	lsls	r2, r2, #20
    1542:	4322      	orrs	r2, r4
    1544:	07db      	lsls	r3, r3, #31
    1546:	431a      	orrs	r2, r3
    1548:	0028      	movs	r0, r5
    154a:	0011      	movs	r1, r2
    154c:	b007      	add	sp, #28
    154e:	bcf0      	pop	{r4, r5, r6, r7}
    1550:	46bb      	mov	fp, r7
    1552:	46b2      	mov	sl, r6
    1554:	46a9      	mov	r9, r5
    1556:	46a0      	mov	r8, r4
    1558:	bdf0      	pop	{r4, r5, r6, r7, pc}
    155a:	2400      	movs	r4, #0
    155c:	2500      	movs	r5, #0
    155e:	4aaa      	ldr	r2, [pc, #680]	; (1808 <__aeabi_dmul+0x38c>)
    1560:	e7ed      	b.n	153e <__aeabi_dmul+0xc2>
    1562:	0c28      	lsrs	r0, r5, #16
    1564:	042d      	lsls	r5, r5, #16
    1566:	0c2d      	lsrs	r5, r5, #16
    1568:	002b      	movs	r3, r5
    156a:	0c11      	lsrs	r1, r2, #16
    156c:	0412      	lsls	r2, r2, #16
    156e:	0c12      	lsrs	r2, r2, #16
    1570:	4353      	muls	r3, r2
    1572:	4698      	mov	r8, r3
    1574:	0013      	movs	r3, r2
    1576:	002f      	movs	r7, r5
    1578:	4343      	muls	r3, r0
    157a:	4699      	mov	r9, r3
    157c:	434f      	muls	r7, r1
    157e:	444f      	add	r7, r9
    1580:	46bb      	mov	fp, r7
    1582:	4647      	mov	r7, r8
    1584:	000b      	movs	r3, r1
    1586:	0c3f      	lsrs	r7, r7, #16
    1588:	46ba      	mov	sl, r7
    158a:	4343      	muls	r3, r0
    158c:	44da      	add	sl, fp
    158e:	9302      	str	r3, [sp, #8]
    1590:	45d1      	cmp	r9, sl
    1592:	d904      	bls.n	159e <__aeabi_dmul+0x122>
    1594:	2780      	movs	r7, #128	; 0x80
    1596:	027f      	lsls	r7, r7, #9
    1598:	46b9      	mov	r9, r7
    159a:	444b      	add	r3, r9
    159c:	9302      	str	r3, [sp, #8]
    159e:	4653      	mov	r3, sl
    15a0:	0c1b      	lsrs	r3, r3, #16
    15a2:	469b      	mov	fp, r3
    15a4:	4653      	mov	r3, sl
    15a6:	041f      	lsls	r7, r3, #16
    15a8:	4643      	mov	r3, r8
    15aa:	041b      	lsls	r3, r3, #16
    15ac:	0c1b      	lsrs	r3, r3, #16
    15ae:	4698      	mov	r8, r3
    15b0:	003b      	movs	r3, r7
    15b2:	4443      	add	r3, r8
    15b4:	9304      	str	r3, [sp, #16]
    15b6:	0c33      	lsrs	r3, r6, #16
    15b8:	0436      	lsls	r6, r6, #16
    15ba:	0c36      	lsrs	r6, r6, #16
    15bc:	4698      	mov	r8, r3
    15be:	0033      	movs	r3, r6
    15c0:	4343      	muls	r3, r0
    15c2:	4699      	mov	r9, r3
    15c4:	4643      	mov	r3, r8
    15c6:	4343      	muls	r3, r0
    15c8:	002f      	movs	r7, r5
    15ca:	469a      	mov	sl, r3
    15cc:	4643      	mov	r3, r8
    15ce:	4377      	muls	r7, r6
    15d0:	435d      	muls	r5, r3
    15d2:	0c38      	lsrs	r0, r7, #16
    15d4:	444d      	add	r5, r9
    15d6:	1945      	adds	r5, r0, r5
    15d8:	45a9      	cmp	r9, r5
    15da:	d903      	bls.n	15e4 <__aeabi_dmul+0x168>
    15dc:	2380      	movs	r3, #128	; 0x80
    15de:	025b      	lsls	r3, r3, #9
    15e0:	4699      	mov	r9, r3
    15e2:	44ca      	add	sl, r9
    15e4:	043f      	lsls	r7, r7, #16
    15e6:	0c28      	lsrs	r0, r5, #16
    15e8:	0c3f      	lsrs	r7, r7, #16
    15ea:	042d      	lsls	r5, r5, #16
    15ec:	19ed      	adds	r5, r5, r7
    15ee:	0c27      	lsrs	r7, r4, #16
    15f0:	0424      	lsls	r4, r4, #16
    15f2:	0c24      	lsrs	r4, r4, #16
    15f4:	0003      	movs	r3, r0
    15f6:	0020      	movs	r0, r4
    15f8:	4350      	muls	r0, r2
    15fa:	437a      	muls	r2, r7
    15fc:	4691      	mov	r9, r2
    15fe:	003a      	movs	r2, r7
    1600:	4453      	add	r3, sl
    1602:	9305      	str	r3, [sp, #20]
    1604:	0c03      	lsrs	r3, r0, #16
    1606:	469a      	mov	sl, r3
    1608:	434a      	muls	r2, r1
    160a:	4361      	muls	r1, r4
    160c:	4449      	add	r1, r9
    160e:	4451      	add	r1, sl
    1610:	44ab      	add	fp, r5
    1612:	4589      	cmp	r9, r1
    1614:	d903      	bls.n	161e <__aeabi_dmul+0x1a2>
    1616:	2380      	movs	r3, #128	; 0x80
    1618:	025b      	lsls	r3, r3, #9
    161a:	4699      	mov	r9, r3
    161c:	444a      	add	r2, r9
    161e:	0400      	lsls	r0, r0, #16
    1620:	0c0b      	lsrs	r3, r1, #16
    1622:	0c00      	lsrs	r0, r0, #16
    1624:	0409      	lsls	r1, r1, #16
    1626:	1809      	adds	r1, r1, r0
    1628:	0020      	movs	r0, r4
    162a:	4699      	mov	r9, r3
    162c:	4643      	mov	r3, r8
    162e:	4370      	muls	r0, r6
    1630:	435c      	muls	r4, r3
    1632:	437e      	muls	r6, r7
    1634:	435f      	muls	r7, r3
    1636:	0c03      	lsrs	r3, r0, #16
    1638:	4698      	mov	r8, r3
    163a:	19a4      	adds	r4, r4, r6
    163c:	4444      	add	r4, r8
    163e:	444a      	add	r2, r9
    1640:	9703      	str	r7, [sp, #12]
    1642:	42a6      	cmp	r6, r4
    1644:	d904      	bls.n	1650 <__aeabi_dmul+0x1d4>
    1646:	2380      	movs	r3, #128	; 0x80
    1648:	025b      	lsls	r3, r3, #9
    164a:	4698      	mov	r8, r3
    164c:	4447      	add	r7, r8
    164e:	9703      	str	r7, [sp, #12]
    1650:	0423      	lsls	r3, r4, #16
    1652:	9e02      	ldr	r6, [sp, #8]
    1654:	469a      	mov	sl, r3
    1656:	9b05      	ldr	r3, [sp, #20]
    1658:	445e      	add	r6, fp
    165a:	4698      	mov	r8, r3
    165c:	42ae      	cmp	r6, r5
    165e:	41ad      	sbcs	r5, r5
    1660:	1876      	adds	r6, r6, r1
    1662:	428e      	cmp	r6, r1
    1664:	4189      	sbcs	r1, r1
    1666:	0400      	lsls	r0, r0, #16
    1668:	0c00      	lsrs	r0, r0, #16
    166a:	4450      	add	r0, sl
    166c:	4440      	add	r0, r8
    166e:	426d      	negs	r5, r5
    1670:	1947      	adds	r7, r0, r5
    1672:	46b8      	mov	r8, r7
    1674:	4693      	mov	fp, r2
    1676:	4249      	negs	r1, r1
    1678:	4689      	mov	r9, r1
    167a:	44c3      	add	fp, r8
    167c:	44d9      	add	r9, fp
    167e:	4298      	cmp	r0, r3
    1680:	4180      	sbcs	r0, r0
    1682:	45a8      	cmp	r8, r5
    1684:	41ad      	sbcs	r5, r5
    1686:	4593      	cmp	fp, r2
    1688:	4192      	sbcs	r2, r2
    168a:	4589      	cmp	r9, r1
    168c:	4189      	sbcs	r1, r1
    168e:	426d      	negs	r5, r5
    1690:	4240      	negs	r0, r0
    1692:	4328      	orrs	r0, r5
    1694:	0c24      	lsrs	r4, r4, #16
    1696:	4252      	negs	r2, r2
    1698:	4249      	negs	r1, r1
    169a:	430a      	orrs	r2, r1
    169c:	9b03      	ldr	r3, [sp, #12]
    169e:	1900      	adds	r0, r0, r4
    16a0:	1880      	adds	r0, r0, r2
    16a2:	18c7      	adds	r7, r0, r3
    16a4:	464b      	mov	r3, r9
    16a6:	0ddc      	lsrs	r4, r3, #23
    16a8:	9b04      	ldr	r3, [sp, #16]
    16aa:	0275      	lsls	r5, r6, #9
    16ac:	431d      	orrs	r5, r3
    16ae:	1e6a      	subs	r2, r5, #1
    16b0:	4195      	sbcs	r5, r2
    16b2:	464b      	mov	r3, r9
    16b4:	0df6      	lsrs	r6, r6, #23
    16b6:	027f      	lsls	r7, r7, #9
    16b8:	4335      	orrs	r5, r6
    16ba:	025a      	lsls	r2, r3, #9
    16bc:	433c      	orrs	r4, r7
    16be:	4315      	orrs	r5, r2
    16c0:	01fb      	lsls	r3, r7, #7
    16c2:	d400      	bmi.n	16c6 <__aeabi_dmul+0x24a>
    16c4:	e11c      	b.n	1900 <__aeabi_dmul+0x484>
    16c6:	2101      	movs	r1, #1
    16c8:	086a      	lsrs	r2, r5, #1
    16ca:	400d      	ands	r5, r1
    16cc:	4315      	orrs	r5, r2
    16ce:	07e2      	lsls	r2, r4, #31
    16d0:	4315      	orrs	r5, r2
    16d2:	0864      	lsrs	r4, r4, #1
    16d4:	494f      	ldr	r1, [pc, #316]	; (1814 <__aeabi_dmul+0x398>)
    16d6:	4461      	add	r1, ip
    16d8:	2900      	cmp	r1, #0
    16da:	dc00      	bgt.n	16de <__aeabi_dmul+0x262>
    16dc:	e0b0      	b.n	1840 <__aeabi_dmul+0x3c4>
    16de:	076b      	lsls	r3, r5, #29
    16e0:	d009      	beq.n	16f6 <__aeabi_dmul+0x27a>
    16e2:	220f      	movs	r2, #15
    16e4:	402a      	ands	r2, r5
    16e6:	2a04      	cmp	r2, #4
    16e8:	d005      	beq.n	16f6 <__aeabi_dmul+0x27a>
    16ea:	1d2a      	adds	r2, r5, #4
    16ec:	42aa      	cmp	r2, r5
    16ee:	41ad      	sbcs	r5, r5
    16f0:	426d      	negs	r5, r5
    16f2:	1964      	adds	r4, r4, r5
    16f4:	0015      	movs	r5, r2
    16f6:	01e3      	lsls	r3, r4, #7
    16f8:	d504      	bpl.n	1704 <__aeabi_dmul+0x288>
    16fa:	2180      	movs	r1, #128	; 0x80
    16fc:	4a46      	ldr	r2, [pc, #280]	; (1818 <__aeabi_dmul+0x39c>)
    16fe:	00c9      	lsls	r1, r1, #3
    1700:	4014      	ands	r4, r2
    1702:	4461      	add	r1, ip
    1704:	4a45      	ldr	r2, [pc, #276]	; (181c <__aeabi_dmul+0x3a0>)
    1706:	4291      	cmp	r1, r2
    1708:	dd00      	ble.n	170c <__aeabi_dmul+0x290>
    170a:	e726      	b.n	155a <__aeabi_dmul+0xde>
    170c:	0762      	lsls	r2, r4, #29
    170e:	08ed      	lsrs	r5, r5, #3
    1710:	0264      	lsls	r4, r4, #9
    1712:	0549      	lsls	r1, r1, #21
    1714:	4315      	orrs	r5, r2
    1716:	0b24      	lsrs	r4, r4, #12
    1718:	0d4a      	lsrs	r2, r1, #21
    171a:	e710      	b.n	153e <__aeabi_dmul+0xc2>
    171c:	4652      	mov	r2, sl
    171e:	4332      	orrs	r2, r6
    1720:	d100      	bne.n	1724 <__aeabi_dmul+0x2a8>
    1722:	e07f      	b.n	1824 <__aeabi_dmul+0x3a8>
    1724:	2e00      	cmp	r6, #0
    1726:	d100      	bne.n	172a <__aeabi_dmul+0x2ae>
    1728:	e0dc      	b.n	18e4 <__aeabi_dmul+0x468>
    172a:	0030      	movs	r0, r6
    172c:	f000 fd4e 	bl	21cc <__clzsi2>
    1730:	0002      	movs	r2, r0
    1732:	3a0b      	subs	r2, #11
    1734:	231d      	movs	r3, #29
    1736:	0001      	movs	r1, r0
    1738:	1a9b      	subs	r3, r3, r2
    173a:	4652      	mov	r2, sl
    173c:	3908      	subs	r1, #8
    173e:	40da      	lsrs	r2, r3
    1740:	408e      	lsls	r6, r1
    1742:	4316      	orrs	r6, r2
    1744:	4652      	mov	r2, sl
    1746:	408a      	lsls	r2, r1
    1748:	9b00      	ldr	r3, [sp, #0]
    174a:	4935      	ldr	r1, [pc, #212]	; (1820 <__aeabi_dmul+0x3a4>)
    174c:	1a18      	subs	r0, r3, r0
    174e:	0003      	movs	r3, r0
    1750:	468c      	mov	ip, r1
    1752:	4463      	add	r3, ip
    1754:	2000      	movs	r0, #0
    1756:	9300      	str	r3, [sp, #0]
    1758:	e6d3      	b.n	1502 <__aeabi_dmul+0x86>
    175a:	0025      	movs	r5, r4
    175c:	4305      	orrs	r5, r0
    175e:	d04a      	beq.n	17f6 <__aeabi_dmul+0x37a>
    1760:	2c00      	cmp	r4, #0
    1762:	d100      	bne.n	1766 <__aeabi_dmul+0x2ea>
    1764:	e0b0      	b.n	18c8 <__aeabi_dmul+0x44c>
    1766:	0020      	movs	r0, r4
    1768:	f000 fd30 	bl	21cc <__clzsi2>
    176c:	0001      	movs	r1, r0
    176e:	0002      	movs	r2, r0
    1770:	390b      	subs	r1, #11
    1772:	231d      	movs	r3, #29
    1774:	0010      	movs	r0, r2
    1776:	1a5b      	subs	r3, r3, r1
    1778:	0031      	movs	r1, r6
    177a:	0035      	movs	r5, r6
    177c:	3808      	subs	r0, #8
    177e:	4084      	lsls	r4, r0
    1780:	40d9      	lsrs	r1, r3
    1782:	4085      	lsls	r5, r0
    1784:	430c      	orrs	r4, r1
    1786:	4826      	ldr	r0, [pc, #152]	; (1820 <__aeabi_dmul+0x3a4>)
    1788:	1a83      	subs	r3, r0, r2
    178a:	9300      	str	r3, [sp, #0]
    178c:	2300      	movs	r3, #0
    178e:	4699      	mov	r9, r3
    1790:	469b      	mov	fp, r3
    1792:	e697      	b.n	14c4 <__aeabi_dmul+0x48>
    1794:	0005      	movs	r5, r0
    1796:	4325      	orrs	r5, r4
    1798:	d126      	bne.n	17e8 <__aeabi_dmul+0x36c>
    179a:	2208      	movs	r2, #8
    179c:	9300      	str	r3, [sp, #0]
    179e:	2302      	movs	r3, #2
    17a0:	2400      	movs	r4, #0
    17a2:	4691      	mov	r9, r2
    17a4:	469b      	mov	fp, r3
    17a6:	e68d      	b.n	14c4 <__aeabi_dmul+0x48>
    17a8:	4652      	mov	r2, sl
    17aa:	9b00      	ldr	r3, [sp, #0]
    17ac:	4332      	orrs	r2, r6
    17ae:	d110      	bne.n	17d2 <__aeabi_dmul+0x356>
    17b0:	4915      	ldr	r1, [pc, #84]	; (1808 <__aeabi_dmul+0x38c>)
    17b2:	2600      	movs	r6, #0
    17b4:	468c      	mov	ip, r1
    17b6:	4463      	add	r3, ip
    17b8:	4649      	mov	r1, r9
    17ba:	9300      	str	r3, [sp, #0]
    17bc:	2302      	movs	r3, #2
    17be:	4319      	orrs	r1, r3
    17c0:	4689      	mov	r9, r1
    17c2:	2002      	movs	r0, #2
    17c4:	e69d      	b.n	1502 <__aeabi_dmul+0x86>
    17c6:	465b      	mov	r3, fp
    17c8:	9701      	str	r7, [sp, #4]
    17ca:	2b02      	cmp	r3, #2
    17cc:	d000      	beq.n	17d0 <__aeabi_dmul+0x354>
    17ce:	e6ad      	b.n	152c <__aeabi_dmul+0xb0>
    17d0:	e6c3      	b.n	155a <__aeabi_dmul+0xde>
    17d2:	4a0d      	ldr	r2, [pc, #52]	; (1808 <__aeabi_dmul+0x38c>)
    17d4:	2003      	movs	r0, #3
    17d6:	4694      	mov	ip, r2
    17d8:	4463      	add	r3, ip
    17da:	464a      	mov	r2, r9
    17dc:	9300      	str	r3, [sp, #0]
    17de:	2303      	movs	r3, #3
    17e0:	431a      	orrs	r2, r3
    17e2:	4691      	mov	r9, r2
    17e4:	4652      	mov	r2, sl
    17e6:	e68c      	b.n	1502 <__aeabi_dmul+0x86>
    17e8:	220c      	movs	r2, #12
    17ea:	9300      	str	r3, [sp, #0]
    17ec:	2303      	movs	r3, #3
    17ee:	0005      	movs	r5, r0
    17f0:	4691      	mov	r9, r2
    17f2:	469b      	mov	fp, r3
    17f4:	e666      	b.n	14c4 <__aeabi_dmul+0x48>
    17f6:	2304      	movs	r3, #4
    17f8:	4699      	mov	r9, r3
    17fa:	2300      	movs	r3, #0
    17fc:	9300      	str	r3, [sp, #0]
    17fe:	3301      	adds	r3, #1
    1800:	2400      	movs	r4, #0
    1802:	469b      	mov	fp, r3
    1804:	e65e      	b.n	14c4 <__aeabi_dmul+0x48>
    1806:	46c0      	nop			; (mov r8, r8)
    1808:	000007ff 	.word	0x000007ff
    180c:	fffffc01 	.word	0xfffffc01
    1810:	00008e0c 	.word	0x00008e0c
    1814:	000003ff 	.word	0x000003ff
    1818:	feffffff 	.word	0xfeffffff
    181c:	000007fe 	.word	0x000007fe
    1820:	fffffc0d 	.word	0xfffffc0d
    1824:	4649      	mov	r1, r9
    1826:	2301      	movs	r3, #1
    1828:	4319      	orrs	r1, r3
    182a:	4689      	mov	r9, r1
    182c:	2600      	movs	r6, #0
    182e:	2001      	movs	r0, #1
    1830:	e667      	b.n	1502 <__aeabi_dmul+0x86>
    1832:	2300      	movs	r3, #0
    1834:	2480      	movs	r4, #128	; 0x80
    1836:	2500      	movs	r5, #0
    1838:	4a43      	ldr	r2, [pc, #268]	; (1948 <__aeabi_dmul+0x4cc>)
    183a:	9301      	str	r3, [sp, #4]
    183c:	0324      	lsls	r4, r4, #12
    183e:	e67e      	b.n	153e <__aeabi_dmul+0xc2>
    1840:	2001      	movs	r0, #1
    1842:	1a40      	subs	r0, r0, r1
    1844:	2838      	cmp	r0, #56	; 0x38
    1846:	dd00      	ble.n	184a <__aeabi_dmul+0x3ce>
    1848:	e676      	b.n	1538 <__aeabi_dmul+0xbc>
    184a:	281f      	cmp	r0, #31
    184c:	dd5b      	ble.n	1906 <__aeabi_dmul+0x48a>
    184e:	221f      	movs	r2, #31
    1850:	0023      	movs	r3, r4
    1852:	4252      	negs	r2, r2
    1854:	1a51      	subs	r1, r2, r1
    1856:	40cb      	lsrs	r3, r1
    1858:	0019      	movs	r1, r3
    185a:	2820      	cmp	r0, #32
    185c:	d003      	beq.n	1866 <__aeabi_dmul+0x3ea>
    185e:	4a3b      	ldr	r2, [pc, #236]	; (194c <__aeabi_dmul+0x4d0>)
    1860:	4462      	add	r2, ip
    1862:	4094      	lsls	r4, r2
    1864:	4325      	orrs	r5, r4
    1866:	1e6a      	subs	r2, r5, #1
    1868:	4195      	sbcs	r5, r2
    186a:	002a      	movs	r2, r5
    186c:	430a      	orrs	r2, r1
    186e:	2107      	movs	r1, #7
    1870:	000d      	movs	r5, r1
    1872:	2400      	movs	r4, #0
    1874:	4015      	ands	r5, r2
    1876:	4211      	tst	r1, r2
    1878:	d05b      	beq.n	1932 <__aeabi_dmul+0x4b6>
    187a:	210f      	movs	r1, #15
    187c:	2400      	movs	r4, #0
    187e:	4011      	ands	r1, r2
    1880:	2904      	cmp	r1, #4
    1882:	d053      	beq.n	192c <__aeabi_dmul+0x4b0>
    1884:	1d11      	adds	r1, r2, #4
    1886:	4291      	cmp	r1, r2
    1888:	4192      	sbcs	r2, r2
    188a:	4252      	negs	r2, r2
    188c:	18a4      	adds	r4, r4, r2
    188e:	000a      	movs	r2, r1
    1890:	0223      	lsls	r3, r4, #8
    1892:	d54b      	bpl.n	192c <__aeabi_dmul+0x4b0>
    1894:	2201      	movs	r2, #1
    1896:	2400      	movs	r4, #0
    1898:	2500      	movs	r5, #0
    189a:	e650      	b.n	153e <__aeabi_dmul+0xc2>
    189c:	2380      	movs	r3, #128	; 0x80
    189e:	031b      	lsls	r3, r3, #12
    18a0:	421c      	tst	r4, r3
    18a2:	d009      	beq.n	18b8 <__aeabi_dmul+0x43c>
    18a4:	421e      	tst	r6, r3
    18a6:	d107      	bne.n	18b8 <__aeabi_dmul+0x43c>
    18a8:	4333      	orrs	r3, r6
    18aa:	031c      	lsls	r4, r3, #12
    18ac:	4643      	mov	r3, r8
    18ae:	0015      	movs	r5, r2
    18b0:	0b24      	lsrs	r4, r4, #12
    18b2:	4a25      	ldr	r2, [pc, #148]	; (1948 <__aeabi_dmul+0x4cc>)
    18b4:	9301      	str	r3, [sp, #4]
    18b6:	e642      	b.n	153e <__aeabi_dmul+0xc2>
    18b8:	2280      	movs	r2, #128	; 0x80
    18ba:	0312      	lsls	r2, r2, #12
    18bc:	4314      	orrs	r4, r2
    18be:	0324      	lsls	r4, r4, #12
    18c0:	4a21      	ldr	r2, [pc, #132]	; (1948 <__aeabi_dmul+0x4cc>)
    18c2:	0b24      	lsrs	r4, r4, #12
    18c4:	9701      	str	r7, [sp, #4]
    18c6:	e63a      	b.n	153e <__aeabi_dmul+0xc2>
    18c8:	f000 fc80 	bl	21cc <__clzsi2>
    18cc:	0001      	movs	r1, r0
    18ce:	0002      	movs	r2, r0
    18d0:	3115      	adds	r1, #21
    18d2:	3220      	adds	r2, #32
    18d4:	291c      	cmp	r1, #28
    18d6:	dc00      	bgt.n	18da <__aeabi_dmul+0x45e>
    18d8:	e74b      	b.n	1772 <__aeabi_dmul+0x2f6>
    18da:	0034      	movs	r4, r6
    18dc:	3808      	subs	r0, #8
    18de:	2500      	movs	r5, #0
    18e0:	4084      	lsls	r4, r0
    18e2:	e750      	b.n	1786 <__aeabi_dmul+0x30a>
    18e4:	f000 fc72 	bl	21cc <__clzsi2>
    18e8:	0003      	movs	r3, r0
    18ea:	001a      	movs	r2, r3
    18ec:	3215      	adds	r2, #21
    18ee:	3020      	adds	r0, #32
    18f0:	2a1c      	cmp	r2, #28
    18f2:	dc00      	bgt.n	18f6 <__aeabi_dmul+0x47a>
    18f4:	e71e      	b.n	1734 <__aeabi_dmul+0x2b8>
    18f6:	4656      	mov	r6, sl
    18f8:	3b08      	subs	r3, #8
    18fa:	2200      	movs	r2, #0
    18fc:	409e      	lsls	r6, r3
    18fe:	e723      	b.n	1748 <__aeabi_dmul+0x2cc>
    1900:	9b00      	ldr	r3, [sp, #0]
    1902:	469c      	mov	ip, r3
    1904:	e6e6      	b.n	16d4 <__aeabi_dmul+0x258>
    1906:	4912      	ldr	r1, [pc, #72]	; (1950 <__aeabi_dmul+0x4d4>)
    1908:	0022      	movs	r2, r4
    190a:	4461      	add	r1, ip
    190c:	002e      	movs	r6, r5
    190e:	408d      	lsls	r5, r1
    1910:	408a      	lsls	r2, r1
    1912:	40c6      	lsrs	r6, r0
    1914:	1e69      	subs	r1, r5, #1
    1916:	418d      	sbcs	r5, r1
    1918:	4332      	orrs	r2, r6
    191a:	432a      	orrs	r2, r5
    191c:	40c4      	lsrs	r4, r0
    191e:	0753      	lsls	r3, r2, #29
    1920:	d0b6      	beq.n	1890 <__aeabi_dmul+0x414>
    1922:	210f      	movs	r1, #15
    1924:	4011      	ands	r1, r2
    1926:	2904      	cmp	r1, #4
    1928:	d1ac      	bne.n	1884 <__aeabi_dmul+0x408>
    192a:	e7b1      	b.n	1890 <__aeabi_dmul+0x414>
    192c:	0765      	lsls	r5, r4, #29
    192e:	0264      	lsls	r4, r4, #9
    1930:	0b24      	lsrs	r4, r4, #12
    1932:	08d2      	lsrs	r2, r2, #3
    1934:	4315      	orrs	r5, r2
    1936:	2200      	movs	r2, #0
    1938:	e601      	b.n	153e <__aeabi_dmul+0xc2>
    193a:	2280      	movs	r2, #128	; 0x80
    193c:	0312      	lsls	r2, r2, #12
    193e:	4314      	orrs	r4, r2
    1940:	0324      	lsls	r4, r4, #12
    1942:	4a01      	ldr	r2, [pc, #4]	; (1948 <__aeabi_dmul+0x4cc>)
    1944:	0b24      	lsrs	r4, r4, #12
    1946:	e5fa      	b.n	153e <__aeabi_dmul+0xc2>
    1948:	000007ff 	.word	0x000007ff
    194c:	0000043e 	.word	0x0000043e
    1950:	0000041e 	.word	0x0000041e

00001954 <__aeabi_dsub>:
    1954:	b5f8      	push	{r3, r4, r5, r6, r7, lr}
    1956:	4657      	mov	r7, sl
    1958:	464e      	mov	r6, r9
    195a:	4645      	mov	r5, r8
    195c:	46de      	mov	lr, fp
    195e:	b5e0      	push	{r5, r6, r7, lr}
    1960:	001e      	movs	r6, r3
    1962:	0017      	movs	r7, r2
    1964:	004a      	lsls	r2, r1, #1
    1966:	030b      	lsls	r3, r1, #12
    1968:	0d52      	lsrs	r2, r2, #21
    196a:	0a5b      	lsrs	r3, r3, #9
    196c:	4690      	mov	r8, r2
    196e:	0f42      	lsrs	r2, r0, #29
    1970:	431a      	orrs	r2, r3
    1972:	0fcd      	lsrs	r5, r1, #31
    1974:	4ccd      	ldr	r4, [pc, #820]	; (1cac <__aeabi_dsub+0x358>)
    1976:	0331      	lsls	r1, r6, #12
    1978:	00c3      	lsls	r3, r0, #3
    197a:	4694      	mov	ip, r2
    197c:	0070      	lsls	r0, r6, #1
    197e:	0f7a      	lsrs	r2, r7, #29
    1980:	0a49      	lsrs	r1, r1, #9
    1982:	00ff      	lsls	r7, r7, #3
    1984:	469a      	mov	sl, r3
    1986:	46b9      	mov	r9, r7
    1988:	0d40      	lsrs	r0, r0, #21
    198a:	0ff6      	lsrs	r6, r6, #31
    198c:	4311      	orrs	r1, r2
    198e:	42a0      	cmp	r0, r4
    1990:	d100      	bne.n	1994 <__aeabi_dsub+0x40>
    1992:	e0b1      	b.n	1af8 <__aeabi_dsub+0x1a4>
    1994:	2201      	movs	r2, #1
    1996:	4056      	eors	r6, r2
    1998:	46b3      	mov	fp, r6
    199a:	42b5      	cmp	r5, r6
    199c:	d100      	bne.n	19a0 <__aeabi_dsub+0x4c>
    199e:	e088      	b.n	1ab2 <__aeabi_dsub+0x15e>
    19a0:	4642      	mov	r2, r8
    19a2:	1a12      	subs	r2, r2, r0
    19a4:	2a00      	cmp	r2, #0
    19a6:	dc00      	bgt.n	19aa <__aeabi_dsub+0x56>
    19a8:	e0ae      	b.n	1b08 <__aeabi_dsub+0x1b4>
    19aa:	2800      	cmp	r0, #0
    19ac:	d100      	bne.n	19b0 <__aeabi_dsub+0x5c>
    19ae:	e0c1      	b.n	1b34 <__aeabi_dsub+0x1e0>
    19b0:	48be      	ldr	r0, [pc, #760]	; (1cac <__aeabi_dsub+0x358>)
    19b2:	4580      	cmp	r8, r0
    19b4:	d100      	bne.n	19b8 <__aeabi_dsub+0x64>
    19b6:	e151      	b.n	1c5c <__aeabi_dsub+0x308>
    19b8:	2080      	movs	r0, #128	; 0x80
    19ba:	0400      	lsls	r0, r0, #16
    19bc:	4301      	orrs	r1, r0
    19be:	2a38      	cmp	r2, #56	; 0x38
    19c0:	dd00      	ble.n	19c4 <__aeabi_dsub+0x70>
    19c2:	e17b      	b.n	1cbc <__aeabi_dsub+0x368>
    19c4:	2a1f      	cmp	r2, #31
    19c6:	dd00      	ble.n	19ca <__aeabi_dsub+0x76>
    19c8:	e1ee      	b.n	1da8 <__aeabi_dsub+0x454>
    19ca:	2020      	movs	r0, #32
    19cc:	003e      	movs	r6, r7
    19ce:	1a80      	subs	r0, r0, r2
    19d0:	000c      	movs	r4, r1
    19d2:	40d6      	lsrs	r6, r2
    19d4:	40d1      	lsrs	r1, r2
    19d6:	4087      	lsls	r7, r0
    19d8:	4662      	mov	r2, ip
    19da:	4084      	lsls	r4, r0
    19dc:	1a52      	subs	r2, r2, r1
    19de:	1e78      	subs	r0, r7, #1
    19e0:	4187      	sbcs	r7, r0
    19e2:	4694      	mov	ip, r2
    19e4:	4334      	orrs	r4, r6
    19e6:	4327      	orrs	r7, r4
    19e8:	1bdc      	subs	r4, r3, r7
    19ea:	42a3      	cmp	r3, r4
    19ec:	419b      	sbcs	r3, r3
    19ee:	4662      	mov	r2, ip
    19f0:	425b      	negs	r3, r3
    19f2:	1ad3      	subs	r3, r2, r3
    19f4:	4699      	mov	r9, r3
    19f6:	464b      	mov	r3, r9
    19f8:	021b      	lsls	r3, r3, #8
    19fa:	d400      	bmi.n	19fe <__aeabi_dsub+0xaa>
    19fc:	e118      	b.n	1c30 <__aeabi_dsub+0x2dc>
    19fe:	464b      	mov	r3, r9
    1a00:	0258      	lsls	r0, r3, #9
    1a02:	0a43      	lsrs	r3, r0, #9
    1a04:	4699      	mov	r9, r3
    1a06:	464b      	mov	r3, r9
    1a08:	2b00      	cmp	r3, #0
    1a0a:	d100      	bne.n	1a0e <__aeabi_dsub+0xba>
    1a0c:	e137      	b.n	1c7e <__aeabi_dsub+0x32a>
    1a0e:	4648      	mov	r0, r9
    1a10:	f000 fbdc 	bl	21cc <__clzsi2>
    1a14:	0001      	movs	r1, r0
    1a16:	3908      	subs	r1, #8
    1a18:	2320      	movs	r3, #32
    1a1a:	0022      	movs	r2, r4
    1a1c:	4648      	mov	r0, r9
    1a1e:	1a5b      	subs	r3, r3, r1
    1a20:	40da      	lsrs	r2, r3
    1a22:	4088      	lsls	r0, r1
    1a24:	408c      	lsls	r4, r1
    1a26:	4643      	mov	r3, r8
    1a28:	4310      	orrs	r0, r2
    1a2a:	4588      	cmp	r8, r1
    1a2c:	dd00      	ble.n	1a30 <__aeabi_dsub+0xdc>
    1a2e:	e136      	b.n	1c9e <__aeabi_dsub+0x34a>
    1a30:	1ac9      	subs	r1, r1, r3
    1a32:	1c4b      	adds	r3, r1, #1
    1a34:	2b1f      	cmp	r3, #31
    1a36:	dd00      	ble.n	1a3a <__aeabi_dsub+0xe6>
    1a38:	e0ea      	b.n	1c10 <__aeabi_dsub+0x2bc>
    1a3a:	2220      	movs	r2, #32
    1a3c:	0026      	movs	r6, r4
    1a3e:	1ad2      	subs	r2, r2, r3
    1a40:	0001      	movs	r1, r0
    1a42:	4094      	lsls	r4, r2
    1a44:	40de      	lsrs	r6, r3
    1a46:	40d8      	lsrs	r0, r3
    1a48:	2300      	movs	r3, #0
    1a4a:	4091      	lsls	r1, r2
    1a4c:	1e62      	subs	r2, r4, #1
    1a4e:	4194      	sbcs	r4, r2
    1a50:	4681      	mov	r9, r0
    1a52:	4698      	mov	r8, r3
    1a54:	4331      	orrs	r1, r6
    1a56:	430c      	orrs	r4, r1
    1a58:	0763      	lsls	r3, r4, #29
    1a5a:	d009      	beq.n	1a70 <__aeabi_dsub+0x11c>
    1a5c:	230f      	movs	r3, #15
    1a5e:	4023      	ands	r3, r4
    1a60:	2b04      	cmp	r3, #4
    1a62:	d005      	beq.n	1a70 <__aeabi_dsub+0x11c>
    1a64:	1d23      	adds	r3, r4, #4
    1a66:	42a3      	cmp	r3, r4
    1a68:	41a4      	sbcs	r4, r4
    1a6a:	4264      	negs	r4, r4
    1a6c:	44a1      	add	r9, r4
    1a6e:	001c      	movs	r4, r3
    1a70:	464b      	mov	r3, r9
    1a72:	021b      	lsls	r3, r3, #8
    1a74:	d400      	bmi.n	1a78 <__aeabi_dsub+0x124>
    1a76:	e0de      	b.n	1c36 <__aeabi_dsub+0x2e2>
    1a78:	4641      	mov	r1, r8
    1a7a:	4b8c      	ldr	r3, [pc, #560]	; (1cac <__aeabi_dsub+0x358>)
    1a7c:	3101      	adds	r1, #1
    1a7e:	4299      	cmp	r1, r3
    1a80:	d100      	bne.n	1a84 <__aeabi_dsub+0x130>
    1a82:	e0e7      	b.n	1c54 <__aeabi_dsub+0x300>
    1a84:	464b      	mov	r3, r9
    1a86:	488a      	ldr	r0, [pc, #552]	; (1cb0 <__aeabi_dsub+0x35c>)
    1a88:	08e4      	lsrs	r4, r4, #3
    1a8a:	4003      	ands	r3, r0
    1a8c:	0018      	movs	r0, r3
    1a8e:	0549      	lsls	r1, r1, #21
    1a90:	075b      	lsls	r3, r3, #29
    1a92:	0240      	lsls	r0, r0, #9
    1a94:	4323      	orrs	r3, r4
    1a96:	0d4a      	lsrs	r2, r1, #21
    1a98:	0b04      	lsrs	r4, r0, #12
    1a9a:	0512      	lsls	r2, r2, #20
    1a9c:	07ed      	lsls	r5, r5, #31
    1a9e:	4322      	orrs	r2, r4
    1aa0:	432a      	orrs	r2, r5
    1aa2:	0018      	movs	r0, r3
    1aa4:	0011      	movs	r1, r2
    1aa6:	bcf0      	pop	{r4, r5, r6, r7}
    1aa8:	46bb      	mov	fp, r7
    1aaa:	46b2      	mov	sl, r6
    1aac:	46a9      	mov	r9, r5
    1aae:	46a0      	mov	r8, r4
    1ab0:	bdf8      	pop	{r3, r4, r5, r6, r7, pc}
    1ab2:	4642      	mov	r2, r8
    1ab4:	1a12      	subs	r2, r2, r0
    1ab6:	2a00      	cmp	r2, #0
    1ab8:	dd52      	ble.n	1b60 <__aeabi_dsub+0x20c>
    1aba:	2800      	cmp	r0, #0
    1abc:	d100      	bne.n	1ac0 <__aeabi_dsub+0x16c>
    1abe:	e09c      	b.n	1bfa <__aeabi_dsub+0x2a6>
    1ac0:	45a0      	cmp	r8, r4
    1ac2:	d100      	bne.n	1ac6 <__aeabi_dsub+0x172>
    1ac4:	e0ca      	b.n	1c5c <__aeabi_dsub+0x308>
    1ac6:	2080      	movs	r0, #128	; 0x80
    1ac8:	0400      	lsls	r0, r0, #16
    1aca:	4301      	orrs	r1, r0
    1acc:	2a38      	cmp	r2, #56	; 0x38
    1ace:	dd00      	ble.n	1ad2 <__aeabi_dsub+0x17e>
    1ad0:	e149      	b.n	1d66 <__aeabi_dsub+0x412>
    1ad2:	2a1f      	cmp	r2, #31
    1ad4:	dc00      	bgt.n	1ad8 <__aeabi_dsub+0x184>
    1ad6:	e197      	b.n	1e08 <__aeabi_dsub+0x4b4>
    1ad8:	0010      	movs	r0, r2
    1ada:	000e      	movs	r6, r1
    1adc:	3820      	subs	r0, #32
    1ade:	40c6      	lsrs	r6, r0
    1ae0:	2a20      	cmp	r2, #32
    1ae2:	d004      	beq.n	1aee <__aeabi_dsub+0x19a>
    1ae4:	2040      	movs	r0, #64	; 0x40
    1ae6:	1a82      	subs	r2, r0, r2
    1ae8:	4091      	lsls	r1, r2
    1aea:	430f      	orrs	r7, r1
    1aec:	46b9      	mov	r9, r7
    1aee:	464c      	mov	r4, r9
    1af0:	1e62      	subs	r2, r4, #1
    1af2:	4194      	sbcs	r4, r2
    1af4:	4334      	orrs	r4, r6
    1af6:	e13a      	b.n	1d6e <__aeabi_dsub+0x41a>
    1af8:	000a      	movs	r2, r1
    1afa:	433a      	orrs	r2, r7
    1afc:	d028      	beq.n	1b50 <__aeabi_dsub+0x1fc>
    1afe:	46b3      	mov	fp, r6
    1b00:	42b5      	cmp	r5, r6
    1b02:	d02b      	beq.n	1b5c <__aeabi_dsub+0x208>
    1b04:	4a6b      	ldr	r2, [pc, #428]	; (1cb4 <__aeabi_dsub+0x360>)
    1b06:	4442      	add	r2, r8
    1b08:	2a00      	cmp	r2, #0
    1b0a:	d05d      	beq.n	1bc8 <__aeabi_dsub+0x274>
    1b0c:	4642      	mov	r2, r8
    1b0e:	4644      	mov	r4, r8
    1b10:	1a82      	subs	r2, r0, r2
    1b12:	2c00      	cmp	r4, #0
    1b14:	d000      	beq.n	1b18 <__aeabi_dsub+0x1c4>
    1b16:	e0f5      	b.n	1d04 <__aeabi_dsub+0x3b0>
    1b18:	4665      	mov	r5, ip
    1b1a:	431d      	orrs	r5, r3
    1b1c:	d100      	bne.n	1b20 <__aeabi_dsub+0x1cc>
    1b1e:	e19c      	b.n	1e5a <__aeabi_dsub+0x506>
    1b20:	1e55      	subs	r5, r2, #1
    1b22:	2a01      	cmp	r2, #1
    1b24:	d100      	bne.n	1b28 <__aeabi_dsub+0x1d4>
    1b26:	e1fb      	b.n	1f20 <__aeabi_dsub+0x5cc>
    1b28:	4c60      	ldr	r4, [pc, #384]	; (1cac <__aeabi_dsub+0x358>)
    1b2a:	42a2      	cmp	r2, r4
    1b2c:	d100      	bne.n	1b30 <__aeabi_dsub+0x1dc>
    1b2e:	e1bd      	b.n	1eac <__aeabi_dsub+0x558>
    1b30:	002a      	movs	r2, r5
    1b32:	e0f0      	b.n	1d16 <__aeabi_dsub+0x3c2>
    1b34:	0008      	movs	r0, r1
    1b36:	4338      	orrs	r0, r7
    1b38:	d100      	bne.n	1b3c <__aeabi_dsub+0x1e8>
    1b3a:	e0c3      	b.n	1cc4 <__aeabi_dsub+0x370>
    1b3c:	1e50      	subs	r0, r2, #1
    1b3e:	2a01      	cmp	r2, #1
    1b40:	d100      	bne.n	1b44 <__aeabi_dsub+0x1f0>
    1b42:	e1a8      	b.n	1e96 <__aeabi_dsub+0x542>
    1b44:	4c59      	ldr	r4, [pc, #356]	; (1cac <__aeabi_dsub+0x358>)
    1b46:	42a2      	cmp	r2, r4
    1b48:	d100      	bne.n	1b4c <__aeabi_dsub+0x1f8>
    1b4a:	e087      	b.n	1c5c <__aeabi_dsub+0x308>
    1b4c:	0002      	movs	r2, r0
    1b4e:	e736      	b.n	19be <__aeabi_dsub+0x6a>
    1b50:	2201      	movs	r2, #1
    1b52:	4056      	eors	r6, r2
    1b54:	46b3      	mov	fp, r6
    1b56:	42b5      	cmp	r5, r6
    1b58:	d000      	beq.n	1b5c <__aeabi_dsub+0x208>
    1b5a:	e721      	b.n	19a0 <__aeabi_dsub+0x4c>
    1b5c:	4a55      	ldr	r2, [pc, #340]	; (1cb4 <__aeabi_dsub+0x360>)
    1b5e:	4442      	add	r2, r8
    1b60:	2a00      	cmp	r2, #0
    1b62:	d100      	bne.n	1b66 <__aeabi_dsub+0x212>
    1b64:	e0b5      	b.n	1cd2 <__aeabi_dsub+0x37e>
    1b66:	4642      	mov	r2, r8
    1b68:	4644      	mov	r4, r8
    1b6a:	1a82      	subs	r2, r0, r2
    1b6c:	2c00      	cmp	r4, #0
    1b6e:	d100      	bne.n	1b72 <__aeabi_dsub+0x21e>
    1b70:	e138      	b.n	1de4 <__aeabi_dsub+0x490>
    1b72:	4e4e      	ldr	r6, [pc, #312]	; (1cac <__aeabi_dsub+0x358>)
    1b74:	42b0      	cmp	r0, r6
    1b76:	d100      	bne.n	1b7a <__aeabi_dsub+0x226>
    1b78:	e1de      	b.n	1f38 <__aeabi_dsub+0x5e4>
    1b7a:	2680      	movs	r6, #128	; 0x80
    1b7c:	4664      	mov	r4, ip
    1b7e:	0436      	lsls	r6, r6, #16
    1b80:	4334      	orrs	r4, r6
    1b82:	46a4      	mov	ip, r4
    1b84:	2a38      	cmp	r2, #56	; 0x38
    1b86:	dd00      	ble.n	1b8a <__aeabi_dsub+0x236>
    1b88:	e196      	b.n	1eb8 <__aeabi_dsub+0x564>
    1b8a:	2a1f      	cmp	r2, #31
    1b8c:	dd00      	ble.n	1b90 <__aeabi_dsub+0x23c>
    1b8e:	e224      	b.n	1fda <__aeabi_dsub+0x686>
    1b90:	2620      	movs	r6, #32
    1b92:	1ab4      	subs	r4, r6, r2
    1b94:	46a2      	mov	sl, r4
    1b96:	4664      	mov	r4, ip
    1b98:	4656      	mov	r6, sl
    1b9a:	40b4      	lsls	r4, r6
    1b9c:	46a1      	mov	r9, r4
    1b9e:	001c      	movs	r4, r3
    1ba0:	464e      	mov	r6, r9
    1ba2:	40d4      	lsrs	r4, r2
    1ba4:	4326      	orrs	r6, r4
    1ba6:	0034      	movs	r4, r6
    1ba8:	4656      	mov	r6, sl
    1baa:	40b3      	lsls	r3, r6
    1bac:	1e5e      	subs	r6, r3, #1
    1bae:	41b3      	sbcs	r3, r6
    1bb0:	431c      	orrs	r4, r3
    1bb2:	4663      	mov	r3, ip
    1bb4:	40d3      	lsrs	r3, r2
    1bb6:	18c9      	adds	r1, r1, r3
    1bb8:	19e4      	adds	r4, r4, r7
    1bba:	42bc      	cmp	r4, r7
    1bbc:	41bf      	sbcs	r7, r7
    1bbe:	427f      	negs	r7, r7
    1bc0:	46b9      	mov	r9, r7
    1bc2:	4680      	mov	r8, r0
    1bc4:	4489      	add	r9, r1
    1bc6:	e0d8      	b.n	1d7a <__aeabi_dsub+0x426>
    1bc8:	4640      	mov	r0, r8
    1bca:	4c3b      	ldr	r4, [pc, #236]	; (1cb8 <__aeabi_dsub+0x364>)
    1bcc:	3001      	adds	r0, #1
    1bce:	4220      	tst	r0, r4
    1bd0:	d000      	beq.n	1bd4 <__aeabi_dsub+0x280>
    1bd2:	e0b4      	b.n	1d3e <__aeabi_dsub+0x3ea>
    1bd4:	4640      	mov	r0, r8
    1bd6:	2800      	cmp	r0, #0
    1bd8:	d000      	beq.n	1bdc <__aeabi_dsub+0x288>
    1bda:	e144      	b.n	1e66 <__aeabi_dsub+0x512>
    1bdc:	4660      	mov	r0, ip
    1bde:	4318      	orrs	r0, r3
    1be0:	d100      	bne.n	1be4 <__aeabi_dsub+0x290>
    1be2:	e190      	b.n	1f06 <__aeabi_dsub+0x5b2>
    1be4:	0008      	movs	r0, r1
    1be6:	4338      	orrs	r0, r7
    1be8:	d000      	beq.n	1bec <__aeabi_dsub+0x298>
    1bea:	e1aa      	b.n	1f42 <__aeabi_dsub+0x5ee>
    1bec:	4661      	mov	r1, ip
    1bee:	08db      	lsrs	r3, r3, #3
    1bf0:	0749      	lsls	r1, r1, #29
    1bf2:	430b      	orrs	r3, r1
    1bf4:	4661      	mov	r1, ip
    1bf6:	08cc      	lsrs	r4, r1, #3
    1bf8:	e027      	b.n	1c4a <__aeabi_dsub+0x2f6>
    1bfa:	0008      	movs	r0, r1
    1bfc:	4338      	orrs	r0, r7
    1bfe:	d061      	beq.n	1cc4 <__aeabi_dsub+0x370>
    1c00:	1e50      	subs	r0, r2, #1
    1c02:	2a01      	cmp	r2, #1
    1c04:	d100      	bne.n	1c08 <__aeabi_dsub+0x2b4>
    1c06:	e139      	b.n	1e7c <__aeabi_dsub+0x528>
    1c08:	42a2      	cmp	r2, r4
    1c0a:	d027      	beq.n	1c5c <__aeabi_dsub+0x308>
    1c0c:	0002      	movs	r2, r0
    1c0e:	e75d      	b.n	1acc <__aeabi_dsub+0x178>
    1c10:	0002      	movs	r2, r0
    1c12:	391f      	subs	r1, #31
    1c14:	40ca      	lsrs	r2, r1
    1c16:	0011      	movs	r1, r2
    1c18:	2b20      	cmp	r3, #32
    1c1a:	d003      	beq.n	1c24 <__aeabi_dsub+0x2d0>
    1c1c:	2240      	movs	r2, #64	; 0x40
    1c1e:	1ad3      	subs	r3, r2, r3
    1c20:	4098      	lsls	r0, r3
    1c22:	4304      	orrs	r4, r0
    1c24:	1e63      	subs	r3, r4, #1
    1c26:	419c      	sbcs	r4, r3
    1c28:	2300      	movs	r3, #0
    1c2a:	4699      	mov	r9, r3
    1c2c:	4698      	mov	r8, r3
    1c2e:	430c      	orrs	r4, r1
    1c30:	0763      	lsls	r3, r4, #29
    1c32:	d000      	beq.n	1c36 <__aeabi_dsub+0x2e2>
    1c34:	e712      	b.n	1a5c <__aeabi_dsub+0x108>
    1c36:	464b      	mov	r3, r9
    1c38:	464a      	mov	r2, r9
    1c3a:	08e4      	lsrs	r4, r4, #3
    1c3c:	075b      	lsls	r3, r3, #29
    1c3e:	4323      	orrs	r3, r4
    1c40:	08d4      	lsrs	r4, r2, #3
    1c42:	4642      	mov	r2, r8
    1c44:	4919      	ldr	r1, [pc, #100]	; (1cac <__aeabi_dsub+0x358>)
    1c46:	428a      	cmp	r2, r1
    1c48:	d00e      	beq.n	1c68 <__aeabi_dsub+0x314>
    1c4a:	0324      	lsls	r4, r4, #12
    1c4c:	0552      	lsls	r2, r2, #21
    1c4e:	0b24      	lsrs	r4, r4, #12
    1c50:	0d52      	lsrs	r2, r2, #21
    1c52:	e722      	b.n	1a9a <__aeabi_dsub+0x146>
    1c54:	000a      	movs	r2, r1
    1c56:	2400      	movs	r4, #0
    1c58:	2300      	movs	r3, #0
    1c5a:	e71e      	b.n	1a9a <__aeabi_dsub+0x146>
    1c5c:	08db      	lsrs	r3, r3, #3
    1c5e:	4662      	mov	r2, ip
    1c60:	0752      	lsls	r2, r2, #29
    1c62:	4313      	orrs	r3, r2
    1c64:	4662      	mov	r2, ip
    1c66:	08d4      	lsrs	r4, r2, #3
    1c68:	001a      	movs	r2, r3
    1c6a:	4322      	orrs	r2, r4
    1c6c:	d100      	bne.n	1c70 <__aeabi_dsub+0x31c>
    1c6e:	e1fc      	b.n	206a <__aeabi_dsub+0x716>
    1c70:	2280      	movs	r2, #128	; 0x80
    1c72:	0312      	lsls	r2, r2, #12
    1c74:	4314      	orrs	r4, r2
    1c76:	0324      	lsls	r4, r4, #12
    1c78:	4a0c      	ldr	r2, [pc, #48]	; (1cac <__aeabi_dsub+0x358>)
    1c7a:	0b24      	lsrs	r4, r4, #12
    1c7c:	e70d      	b.n	1a9a <__aeabi_dsub+0x146>
    1c7e:	0020      	movs	r0, r4
    1c80:	f000 faa4 	bl	21cc <__clzsi2>
    1c84:	0001      	movs	r1, r0
    1c86:	3118      	adds	r1, #24
    1c88:	291f      	cmp	r1, #31
    1c8a:	dc00      	bgt.n	1c8e <__aeabi_dsub+0x33a>
    1c8c:	e6c4      	b.n	1a18 <__aeabi_dsub+0xc4>
    1c8e:	3808      	subs	r0, #8
    1c90:	4084      	lsls	r4, r0
    1c92:	4643      	mov	r3, r8
    1c94:	0020      	movs	r0, r4
    1c96:	2400      	movs	r4, #0
    1c98:	4588      	cmp	r8, r1
    1c9a:	dc00      	bgt.n	1c9e <__aeabi_dsub+0x34a>
    1c9c:	e6c8      	b.n	1a30 <__aeabi_dsub+0xdc>
    1c9e:	4a04      	ldr	r2, [pc, #16]	; (1cb0 <__aeabi_dsub+0x35c>)
    1ca0:	1a5b      	subs	r3, r3, r1
    1ca2:	4010      	ands	r0, r2
    1ca4:	4698      	mov	r8, r3
    1ca6:	4681      	mov	r9, r0
    1ca8:	e6d6      	b.n	1a58 <__aeabi_dsub+0x104>
    1caa:	46c0      	nop			; (mov r8, r8)
    1cac:	000007ff 	.word	0x000007ff
    1cb0:	ff7fffff 	.word	0xff7fffff
    1cb4:	fffff801 	.word	0xfffff801
    1cb8:	000007fe 	.word	0x000007fe
    1cbc:	430f      	orrs	r7, r1
    1cbe:	1e7a      	subs	r2, r7, #1
    1cc0:	4197      	sbcs	r7, r2
    1cc2:	e691      	b.n	19e8 <__aeabi_dsub+0x94>
    1cc4:	4661      	mov	r1, ip
    1cc6:	08db      	lsrs	r3, r3, #3
    1cc8:	0749      	lsls	r1, r1, #29
    1cca:	430b      	orrs	r3, r1
    1ccc:	4661      	mov	r1, ip
    1cce:	08cc      	lsrs	r4, r1, #3
    1cd0:	e7b8      	b.n	1c44 <__aeabi_dsub+0x2f0>
    1cd2:	4640      	mov	r0, r8
    1cd4:	4cd3      	ldr	r4, [pc, #844]	; (2024 <__aeabi_dsub+0x6d0>)
    1cd6:	3001      	adds	r0, #1
    1cd8:	4220      	tst	r0, r4
    1cda:	d000      	beq.n	1cde <__aeabi_dsub+0x38a>
    1cdc:	e0a2      	b.n	1e24 <__aeabi_dsub+0x4d0>
    1cde:	4640      	mov	r0, r8
    1ce0:	2800      	cmp	r0, #0
    1ce2:	d000      	beq.n	1ce6 <__aeabi_dsub+0x392>
    1ce4:	e101      	b.n	1eea <__aeabi_dsub+0x596>
    1ce6:	4660      	mov	r0, ip
    1ce8:	4318      	orrs	r0, r3
    1cea:	d100      	bne.n	1cee <__aeabi_dsub+0x39a>
    1cec:	e15e      	b.n	1fac <__aeabi_dsub+0x658>
    1cee:	0008      	movs	r0, r1
    1cf0:	4338      	orrs	r0, r7
    1cf2:	d000      	beq.n	1cf6 <__aeabi_dsub+0x3a2>
    1cf4:	e15f      	b.n	1fb6 <__aeabi_dsub+0x662>
    1cf6:	4661      	mov	r1, ip
    1cf8:	08db      	lsrs	r3, r3, #3
    1cfa:	0749      	lsls	r1, r1, #29
    1cfc:	430b      	orrs	r3, r1
    1cfe:	4661      	mov	r1, ip
    1d00:	08cc      	lsrs	r4, r1, #3
    1d02:	e7a2      	b.n	1c4a <__aeabi_dsub+0x2f6>
    1d04:	4dc8      	ldr	r5, [pc, #800]	; (2028 <__aeabi_dsub+0x6d4>)
    1d06:	42a8      	cmp	r0, r5
    1d08:	d100      	bne.n	1d0c <__aeabi_dsub+0x3b8>
    1d0a:	e0cf      	b.n	1eac <__aeabi_dsub+0x558>
    1d0c:	2580      	movs	r5, #128	; 0x80
    1d0e:	4664      	mov	r4, ip
    1d10:	042d      	lsls	r5, r5, #16
    1d12:	432c      	orrs	r4, r5
    1d14:	46a4      	mov	ip, r4
    1d16:	2a38      	cmp	r2, #56	; 0x38
    1d18:	dc56      	bgt.n	1dc8 <__aeabi_dsub+0x474>
    1d1a:	2a1f      	cmp	r2, #31
    1d1c:	dd00      	ble.n	1d20 <__aeabi_dsub+0x3cc>
    1d1e:	e0d1      	b.n	1ec4 <__aeabi_dsub+0x570>
    1d20:	2520      	movs	r5, #32
    1d22:	001e      	movs	r6, r3
    1d24:	1aad      	subs	r5, r5, r2
    1d26:	4664      	mov	r4, ip
    1d28:	40ab      	lsls	r3, r5
    1d2a:	40ac      	lsls	r4, r5
    1d2c:	40d6      	lsrs	r6, r2
    1d2e:	1e5d      	subs	r5, r3, #1
    1d30:	41ab      	sbcs	r3, r5
    1d32:	4334      	orrs	r4, r6
    1d34:	4323      	orrs	r3, r4
    1d36:	4664      	mov	r4, ip
    1d38:	40d4      	lsrs	r4, r2
    1d3a:	1b09      	subs	r1, r1, r4
    1d3c:	e049      	b.n	1dd2 <__aeabi_dsub+0x47e>
    1d3e:	4660      	mov	r0, ip
    1d40:	1bdc      	subs	r4, r3, r7
    1d42:	1a46      	subs	r6, r0, r1
    1d44:	42a3      	cmp	r3, r4
    1d46:	4180      	sbcs	r0, r0
    1d48:	4240      	negs	r0, r0
    1d4a:	4681      	mov	r9, r0
    1d4c:	0030      	movs	r0, r6
    1d4e:	464e      	mov	r6, r9
    1d50:	1b80      	subs	r0, r0, r6
    1d52:	4681      	mov	r9, r0
    1d54:	0200      	lsls	r0, r0, #8
    1d56:	d476      	bmi.n	1e46 <__aeabi_dsub+0x4f2>
    1d58:	464b      	mov	r3, r9
    1d5a:	4323      	orrs	r3, r4
    1d5c:	d000      	beq.n	1d60 <__aeabi_dsub+0x40c>
    1d5e:	e652      	b.n	1a06 <__aeabi_dsub+0xb2>
    1d60:	2400      	movs	r4, #0
    1d62:	2500      	movs	r5, #0
    1d64:	e771      	b.n	1c4a <__aeabi_dsub+0x2f6>
    1d66:	4339      	orrs	r1, r7
    1d68:	000c      	movs	r4, r1
    1d6a:	1e62      	subs	r2, r4, #1
    1d6c:	4194      	sbcs	r4, r2
    1d6e:	18e4      	adds	r4, r4, r3
    1d70:	429c      	cmp	r4, r3
    1d72:	419b      	sbcs	r3, r3
    1d74:	425b      	negs	r3, r3
    1d76:	4463      	add	r3, ip
    1d78:	4699      	mov	r9, r3
    1d7a:	464b      	mov	r3, r9
    1d7c:	021b      	lsls	r3, r3, #8
    1d7e:	d400      	bmi.n	1d82 <__aeabi_dsub+0x42e>
    1d80:	e756      	b.n	1c30 <__aeabi_dsub+0x2dc>
    1d82:	2301      	movs	r3, #1
    1d84:	469c      	mov	ip, r3
    1d86:	4ba8      	ldr	r3, [pc, #672]	; (2028 <__aeabi_dsub+0x6d4>)
    1d88:	44e0      	add	r8, ip
    1d8a:	4598      	cmp	r8, r3
    1d8c:	d038      	beq.n	1e00 <__aeabi_dsub+0x4ac>
    1d8e:	464b      	mov	r3, r9
    1d90:	48a6      	ldr	r0, [pc, #664]	; (202c <__aeabi_dsub+0x6d8>)
    1d92:	2201      	movs	r2, #1
    1d94:	4003      	ands	r3, r0
    1d96:	0018      	movs	r0, r3
    1d98:	0863      	lsrs	r3, r4, #1
    1d9a:	4014      	ands	r4, r2
    1d9c:	431c      	orrs	r4, r3
    1d9e:	07c3      	lsls	r3, r0, #31
    1da0:	431c      	orrs	r4, r3
    1da2:	0843      	lsrs	r3, r0, #1
    1da4:	4699      	mov	r9, r3
    1da6:	e657      	b.n	1a58 <__aeabi_dsub+0x104>
    1da8:	0010      	movs	r0, r2
    1daa:	000e      	movs	r6, r1
    1dac:	3820      	subs	r0, #32
    1dae:	40c6      	lsrs	r6, r0
    1db0:	2a20      	cmp	r2, #32
    1db2:	d004      	beq.n	1dbe <__aeabi_dsub+0x46a>
    1db4:	2040      	movs	r0, #64	; 0x40
    1db6:	1a82      	subs	r2, r0, r2
    1db8:	4091      	lsls	r1, r2
    1dba:	430f      	orrs	r7, r1
    1dbc:	46b9      	mov	r9, r7
    1dbe:	464f      	mov	r7, r9
    1dc0:	1e7a      	subs	r2, r7, #1
    1dc2:	4197      	sbcs	r7, r2
    1dc4:	4337      	orrs	r7, r6
    1dc6:	e60f      	b.n	19e8 <__aeabi_dsub+0x94>
    1dc8:	4662      	mov	r2, ip
    1dca:	431a      	orrs	r2, r3
    1dcc:	0013      	movs	r3, r2
    1dce:	1e5a      	subs	r2, r3, #1
    1dd0:	4193      	sbcs	r3, r2
    1dd2:	1afc      	subs	r4, r7, r3
    1dd4:	42a7      	cmp	r7, r4
    1dd6:	41bf      	sbcs	r7, r7
    1dd8:	427f      	negs	r7, r7
    1dda:	1bcb      	subs	r3, r1, r7
    1ddc:	4699      	mov	r9, r3
    1dde:	465d      	mov	r5, fp
    1de0:	4680      	mov	r8, r0
    1de2:	e608      	b.n	19f6 <__aeabi_dsub+0xa2>
    1de4:	4666      	mov	r6, ip
    1de6:	431e      	orrs	r6, r3
    1de8:	d100      	bne.n	1dec <__aeabi_dsub+0x498>
    1dea:	e0be      	b.n	1f6a <__aeabi_dsub+0x616>
    1dec:	1e56      	subs	r6, r2, #1
    1dee:	2a01      	cmp	r2, #1
    1df0:	d100      	bne.n	1df4 <__aeabi_dsub+0x4a0>
    1df2:	e109      	b.n	2008 <__aeabi_dsub+0x6b4>
    1df4:	4c8c      	ldr	r4, [pc, #560]	; (2028 <__aeabi_dsub+0x6d4>)
    1df6:	42a2      	cmp	r2, r4
    1df8:	d100      	bne.n	1dfc <__aeabi_dsub+0x4a8>
    1dfa:	e119      	b.n	2030 <__aeabi_dsub+0x6dc>
    1dfc:	0032      	movs	r2, r6
    1dfe:	e6c1      	b.n	1b84 <__aeabi_dsub+0x230>
    1e00:	4642      	mov	r2, r8
    1e02:	2400      	movs	r4, #0
    1e04:	2300      	movs	r3, #0
    1e06:	e648      	b.n	1a9a <__aeabi_dsub+0x146>
    1e08:	2020      	movs	r0, #32
    1e0a:	000c      	movs	r4, r1
    1e0c:	1a80      	subs	r0, r0, r2
    1e0e:	003e      	movs	r6, r7
    1e10:	4087      	lsls	r7, r0
    1e12:	4084      	lsls	r4, r0
    1e14:	40d6      	lsrs	r6, r2
    1e16:	1e78      	subs	r0, r7, #1
    1e18:	4187      	sbcs	r7, r0
    1e1a:	40d1      	lsrs	r1, r2
    1e1c:	4334      	orrs	r4, r6
    1e1e:	433c      	orrs	r4, r7
    1e20:	448c      	add	ip, r1
    1e22:	e7a4      	b.n	1d6e <__aeabi_dsub+0x41a>
    1e24:	4a80      	ldr	r2, [pc, #512]	; (2028 <__aeabi_dsub+0x6d4>)
    1e26:	4290      	cmp	r0, r2
    1e28:	d100      	bne.n	1e2c <__aeabi_dsub+0x4d8>
    1e2a:	e0e9      	b.n	2000 <__aeabi_dsub+0x6ac>
    1e2c:	19df      	adds	r7, r3, r7
    1e2e:	429f      	cmp	r7, r3
    1e30:	419b      	sbcs	r3, r3
    1e32:	4461      	add	r1, ip
    1e34:	425b      	negs	r3, r3
    1e36:	18c9      	adds	r1, r1, r3
    1e38:	07cc      	lsls	r4, r1, #31
    1e3a:	087f      	lsrs	r7, r7, #1
    1e3c:	084b      	lsrs	r3, r1, #1
    1e3e:	4699      	mov	r9, r3
    1e40:	4680      	mov	r8, r0
    1e42:	433c      	orrs	r4, r7
    1e44:	e6f4      	b.n	1c30 <__aeabi_dsub+0x2dc>
    1e46:	1afc      	subs	r4, r7, r3
    1e48:	42a7      	cmp	r7, r4
    1e4a:	41bf      	sbcs	r7, r7
    1e4c:	4663      	mov	r3, ip
    1e4e:	427f      	negs	r7, r7
    1e50:	1ac9      	subs	r1, r1, r3
    1e52:	1bcb      	subs	r3, r1, r7
    1e54:	4699      	mov	r9, r3
    1e56:	465d      	mov	r5, fp
    1e58:	e5d5      	b.n	1a06 <__aeabi_dsub+0xb2>
    1e5a:	08ff      	lsrs	r7, r7, #3
    1e5c:	074b      	lsls	r3, r1, #29
    1e5e:	465d      	mov	r5, fp
    1e60:	433b      	orrs	r3, r7
    1e62:	08cc      	lsrs	r4, r1, #3
    1e64:	e6ee      	b.n	1c44 <__aeabi_dsub+0x2f0>
    1e66:	4662      	mov	r2, ip
    1e68:	431a      	orrs	r2, r3
    1e6a:	d000      	beq.n	1e6e <__aeabi_dsub+0x51a>
    1e6c:	e082      	b.n	1f74 <__aeabi_dsub+0x620>
    1e6e:	000b      	movs	r3, r1
    1e70:	433b      	orrs	r3, r7
    1e72:	d11b      	bne.n	1eac <__aeabi_dsub+0x558>
    1e74:	2480      	movs	r4, #128	; 0x80
    1e76:	2500      	movs	r5, #0
    1e78:	0324      	lsls	r4, r4, #12
    1e7a:	e6f9      	b.n	1c70 <__aeabi_dsub+0x31c>
    1e7c:	19dc      	adds	r4, r3, r7
    1e7e:	429c      	cmp	r4, r3
    1e80:	419b      	sbcs	r3, r3
    1e82:	4461      	add	r1, ip
    1e84:	4689      	mov	r9, r1
    1e86:	425b      	negs	r3, r3
    1e88:	4499      	add	r9, r3
    1e8a:	464b      	mov	r3, r9
    1e8c:	021b      	lsls	r3, r3, #8
    1e8e:	d444      	bmi.n	1f1a <__aeabi_dsub+0x5c6>
    1e90:	2301      	movs	r3, #1
    1e92:	4698      	mov	r8, r3
    1e94:	e6cc      	b.n	1c30 <__aeabi_dsub+0x2dc>
    1e96:	1bdc      	subs	r4, r3, r7
    1e98:	4662      	mov	r2, ip
    1e9a:	42a3      	cmp	r3, r4
    1e9c:	419b      	sbcs	r3, r3
    1e9e:	1a51      	subs	r1, r2, r1
    1ea0:	425b      	negs	r3, r3
    1ea2:	1acb      	subs	r3, r1, r3
    1ea4:	4699      	mov	r9, r3
    1ea6:	2301      	movs	r3, #1
    1ea8:	4698      	mov	r8, r3
    1eaa:	e5a4      	b.n	19f6 <__aeabi_dsub+0xa2>
    1eac:	08ff      	lsrs	r7, r7, #3
    1eae:	074b      	lsls	r3, r1, #29
    1eb0:	465d      	mov	r5, fp
    1eb2:	433b      	orrs	r3, r7
    1eb4:	08cc      	lsrs	r4, r1, #3
    1eb6:	e6d7      	b.n	1c68 <__aeabi_dsub+0x314>
    1eb8:	4662      	mov	r2, ip
    1eba:	431a      	orrs	r2, r3
    1ebc:	0014      	movs	r4, r2
    1ebe:	1e63      	subs	r3, r4, #1
    1ec0:	419c      	sbcs	r4, r3
    1ec2:	e679      	b.n	1bb8 <__aeabi_dsub+0x264>
    1ec4:	0015      	movs	r5, r2
    1ec6:	4664      	mov	r4, ip
    1ec8:	3d20      	subs	r5, #32
    1eca:	40ec      	lsrs	r4, r5
    1ecc:	46a0      	mov	r8, r4
    1ece:	2a20      	cmp	r2, #32
    1ed0:	d005      	beq.n	1ede <__aeabi_dsub+0x58a>
    1ed2:	2540      	movs	r5, #64	; 0x40
    1ed4:	4664      	mov	r4, ip
    1ed6:	1aaa      	subs	r2, r5, r2
    1ed8:	4094      	lsls	r4, r2
    1eda:	4323      	orrs	r3, r4
    1edc:	469a      	mov	sl, r3
    1ede:	4654      	mov	r4, sl
    1ee0:	1e63      	subs	r3, r4, #1
    1ee2:	419c      	sbcs	r4, r3
    1ee4:	4643      	mov	r3, r8
    1ee6:	4323      	orrs	r3, r4
    1ee8:	e773      	b.n	1dd2 <__aeabi_dsub+0x47e>
    1eea:	4662      	mov	r2, ip
    1eec:	431a      	orrs	r2, r3
    1eee:	d023      	beq.n	1f38 <__aeabi_dsub+0x5e4>
    1ef0:	000a      	movs	r2, r1
    1ef2:	433a      	orrs	r2, r7
    1ef4:	d000      	beq.n	1ef8 <__aeabi_dsub+0x5a4>
    1ef6:	e0a0      	b.n	203a <__aeabi_dsub+0x6e6>
    1ef8:	4662      	mov	r2, ip
    1efa:	08db      	lsrs	r3, r3, #3
    1efc:	0752      	lsls	r2, r2, #29
    1efe:	4313      	orrs	r3, r2
    1f00:	4662      	mov	r2, ip
    1f02:	08d4      	lsrs	r4, r2, #3
    1f04:	e6b0      	b.n	1c68 <__aeabi_dsub+0x314>
    1f06:	000b      	movs	r3, r1
    1f08:	433b      	orrs	r3, r7
    1f0a:	d100      	bne.n	1f0e <__aeabi_dsub+0x5ba>
    1f0c:	e728      	b.n	1d60 <__aeabi_dsub+0x40c>
    1f0e:	08ff      	lsrs	r7, r7, #3
    1f10:	074b      	lsls	r3, r1, #29
    1f12:	465d      	mov	r5, fp
    1f14:	433b      	orrs	r3, r7
    1f16:	08cc      	lsrs	r4, r1, #3
    1f18:	e697      	b.n	1c4a <__aeabi_dsub+0x2f6>
    1f1a:	2302      	movs	r3, #2
    1f1c:	4698      	mov	r8, r3
    1f1e:	e736      	b.n	1d8e <__aeabi_dsub+0x43a>
    1f20:	1afc      	subs	r4, r7, r3
    1f22:	42a7      	cmp	r7, r4
    1f24:	41bf      	sbcs	r7, r7
    1f26:	4663      	mov	r3, ip
    1f28:	427f      	negs	r7, r7
    1f2a:	1ac9      	subs	r1, r1, r3
    1f2c:	1bcb      	subs	r3, r1, r7
    1f2e:	4699      	mov	r9, r3
    1f30:	2301      	movs	r3, #1
    1f32:	465d      	mov	r5, fp
    1f34:	4698      	mov	r8, r3
    1f36:	e55e      	b.n	19f6 <__aeabi_dsub+0xa2>
    1f38:	074b      	lsls	r3, r1, #29
    1f3a:	08ff      	lsrs	r7, r7, #3
    1f3c:	433b      	orrs	r3, r7
    1f3e:	08cc      	lsrs	r4, r1, #3
    1f40:	e692      	b.n	1c68 <__aeabi_dsub+0x314>
    1f42:	1bdc      	subs	r4, r3, r7
    1f44:	4660      	mov	r0, ip
    1f46:	42a3      	cmp	r3, r4
    1f48:	41b6      	sbcs	r6, r6
    1f4a:	1a40      	subs	r0, r0, r1
    1f4c:	4276      	negs	r6, r6
    1f4e:	1b80      	subs	r0, r0, r6
    1f50:	4681      	mov	r9, r0
    1f52:	0200      	lsls	r0, r0, #8
    1f54:	d560      	bpl.n	2018 <__aeabi_dsub+0x6c4>
    1f56:	1afc      	subs	r4, r7, r3
    1f58:	42a7      	cmp	r7, r4
    1f5a:	41bf      	sbcs	r7, r7
    1f5c:	4663      	mov	r3, ip
    1f5e:	427f      	negs	r7, r7
    1f60:	1ac9      	subs	r1, r1, r3
    1f62:	1bcb      	subs	r3, r1, r7
    1f64:	4699      	mov	r9, r3
    1f66:	465d      	mov	r5, fp
    1f68:	e576      	b.n	1a58 <__aeabi_dsub+0x104>
    1f6a:	08ff      	lsrs	r7, r7, #3
    1f6c:	074b      	lsls	r3, r1, #29
    1f6e:	433b      	orrs	r3, r7
    1f70:	08cc      	lsrs	r4, r1, #3
    1f72:	e667      	b.n	1c44 <__aeabi_dsub+0x2f0>
    1f74:	000a      	movs	r2, r1
    1f76:	08db      	lsrs	r3, r3, #3
    1f78:	433a      	orrs	r2, r7
    1f7a:	d100      	bne.n	1f7e <__aeabi_dsub+0x62a>
    1f7c:	e66f      	b.n	1c5e <__aeabi_dsub+0x30a>
    1f7e:	4662      	mov	r2, ip
    1f80:	0752      	lsls	r2, r2, #29
    1f82:	4313      	orrs	r3, r2
    1f84:	4662      	mov	r2, ip
    1f86:	08d4      	lsrs	r4, r2, #3
    1f88:	2280      	movs	r2, #128	; 0x80
    1f8a:	0312      	lsls	r2, r2, #12
    1f8c:	4214      	tst	r4, r2
    1f8e:	d007      	beq.n	1fa0 <__aeabi_dsub+0x64c>
    1f90:	08c8      	lsrs	r0, r1, #3
    1f92:	4210      	tst	r0, r2
    1f94:	d104      	bne.n	1fa0 <__aeabi_dsub+0x64c>
    1f96:	465d      	mov	r5, fp
    1f98:	0004      	movs	r4, r0
    1f9a:	08fb      	lsrs	r3, r7, #3
    1f9c:	0749      	lsls	r1, r1, #29
    1f9e:	430b      	orrs	r3, r1
    1fa0:	0f5a      	lsrs	r2, r3, #29
    1fa2:	00db      	lsls	r3, r3, #3
    1fa4:	08db      	lsrs	r3, r3, #3
    1fa6:	0752      	lsls	r2, r2, #29
    1fa8:	4313      	orrs	r3, r2
    1faa:	e65d      	b.n	1c68 <__aeabi_dsub+0x314>
    1fac:	074b      	lsls	r3, r1, #29
    1fae:	08ff      	lsrs	r7, r7, #3
    1fb0:	433b      	orrs	r3, r7
    1fb2:	08cc      	lsrs	r4, r1, #3
    1fb4:	e649      	b.n	1c4a <__aeabi_dsub+0x2f6>
    1fb6:	19dc      	adds	r4, r3, r7
    1fb8:	429c      	cmp	r4, r3
    1fba:	419b      	sbcs	r3, r3
    1fbc:	4461      	add	r1, ip
    1fbe:	4689      	mov	r9, r1
    1fc0:	425b      	negs	r3, r3
    1fc2:	4499      	add	r9, r3
    1fc4:	464b      	mov	r3, r9
    1fc6:	021b      	lsls	r3, r3, #8
    1fc8:	d400      	bmi.n	1fcc <__aeabi_dsub+0x678>
    1fca:	e631      	b.n	1c30 <__aeabi_dsub+0x2dc>
    1fcc:	464a      	mov	r2, r9
    1fce:	4b17      	ldr	r3, [pc, #92]	; (202c <__aeabi_dsub+0x6d8>)
    1fd0:	401a      	ands	r2, r3
    1fd2:	2301      	movs	r3, #1
    1fd4:	4691      	mov	r9, r2
    1fd6:	4698      	mov	r8, r3
    1fd8:	e62a      	b.n	1c30 <__aeabi_dsub+0x2dc>
    1fda:	0016      	movs	r6, r2
    1fdc:	4664      	mov	r4, ip
    1fde:	3e20      	subs	r6, #32
    1fe0:	40f4      	lsrs	r4, r6
    1fe2:	46a0      	mov	r8, r4
    1fe4:	2a20      	cmp	r2, #32
    1fe6:	d005      	beq.n	1ff4 <__aeabi_dsub+0x6a0>
    1fe8:	2640      	movs	r6, #64	; 0x40
    1fea:	4664      	mov	r4, ip
    1fec:	1ab2      	subs	r2, r6, r2
    1fee:	4094      	lsls	r4, r2
    1ff0:	4323      	orrs	r3, r4
    1ff2:	469a      	mov	sl, r3
    1ff4:	4654      	mov	r4, sl
    1ff6:	1e63      	subs	r3, r4, #1
    1ff8:	419c      	sbcs	r4, r3
    1ffa:	4643      	mov	r3, r8
    1ffc:	431c      	orrs	r4, r3
    1ffe:	e5db      	b.n	1bb8 <__aeabi_dsub+0x264>
    2000:	0002      	movs	r2, r0
    2002:	2400      	movs	r4, #0
    2004:	2300      	movs	r3, #0
    2006:	e548      	b.n	1a9a <__aeabi_dsub+0x146>
    2008:	19dc      	adds	r4, r3, r7
    200a:	42bc      	cmp	r4, r7
    200c:	41bf      	sbcs	r7, r7
    200e:	4461      	add	r1, ip
    2010:	4689      	mov	r9, r1
    2012:	427f      	negs	r7, r7
    2014:	44b9      	add	r9, r7
    2016:	e738      	b.n	1e8a <__aeabi_dsub+0x536>
    2018:	464b      	mov	r3, r9
    201a:	4323      	orrs	r3, r4
    201c:	d100      	bne.n	2020 <__aeabi_dsub+0x6cc>
    201e:	e69f      	b.n	1d60 <__aeabi_dsub+0x40c>
    2020:	e606      	b.n	1c30 <__aeabi_dsub+0x2dc>
    2022:	46c0      	nop			; (mov r8, r8)
    2024:	000007fe 	.word	0x000007fe
    2028:	000007ff 	.word	0x000007ff
    202c:	ff7fffff 	.word	0xff7fffff
    2030:	08ff      	lsrs	r7, r7, #3
    2032:	074b      	lsls	r3, r1, #29
    2034:	433b      	orrs	r3, r7
    2036:	08cc      	lsrs	r4, r1, #3
    2038:	e616      	b.n	1c68 <__aeabi_dsub+0x314>
    203a:	4662      	mov	r2, ip
    203c:	08db      	lsrs	r3, r3, #3
    203e:	0752      	lsls	r2, r2, #29
    2040:	4313      	orrs	r3, r2
    2042:	4662      	mov	r2, ip
    2044:	08d4      	lsrs	r4, r2, #3
    2046:	2280      	movs	r2, #128	; 0x80
    2048:	0312      	lsls	r2, r2, #12
    204a:	4214      	tst	r4, r2
    204c:	d007      	beq.n	205e <__aeabi_dsub+0x70a>
    204e:	08c8      	lsrs	r0, r1, #3
    2050:	4210      	tst	r0, r2
    2052:	d104      	bne.n	205e <__aeabi_dsub+0x70a>
    2054:	465d      	mov	r5, fp
    2056:	0004      	movs	r4, r0
    2058:	08fb      	lsrs	r3, r7, #3
    205a:	0749      	lsls	r1, r1, #29
    205c:	430b      	orrs	r3, r1
    205e:	0f5a      	lsrs	r2, r3, #29
    2060:	00db      	lsls	r3, r3, #3
    2062:	0752      	lsls	r2, r2, #29
    2064:	08db      	lsrs	r3, r3, #3
    2066:	4313      	orrs	r3, r2
    2068:	e5fe      	b.n	1c68 <__aeabi_dsub+0x314>
    206a:	2300      	movs	r3, #0
    206c:	4a01      	ldr	r2, [pc, #4]	; (2074 <__aeabi_dsub+0x720>)
    206e:	001c      	movs	r4, r3
    2070:	e513      	b.n	1a9a <__aeabi_dsub+0x146>
    2072:	46c0      	nop			; (mov r8, r8)
    2074:	000007ff 	.word	0x000007ff

00002078 <__aeabi_dcmpun>:
    2078:	b570      	push	{r4, r5, r6, lr}
    207a:	0005      	movs	r5, r0
    207c:	480c      	ldr	r0, [pc, #48]	; (20b0 <__aeabi_dcmpun+0x38>)
    207e:	031c      	lsls	r4, r3, #12
    2080:	0016      	movs	r6, r2
    2082:	005b      	lsls	r3, r3, #1
    2084:	030a      	lsls	r2, r1, #12
    2086:	0049      	lsls	r1, r1, #1
    2088:	0b12      	lsrs	r2, r2, #12
    208a:	0d49      	lsrs	r1, r1, #21
    208c:	0b24      	lsrs	r4, r4, #12
    208e:	0d5b      	lsrs	r3, r3, #21
    2090:	4281      	cmp	r1, r0
    2092:	d008      	beq.n	20a6 <__aeabi_dcmpun+0x2e>
    2094:	4a06      	ldr	r2, [pc, #24]	; (20b0 <__aeabi_dcmpun+0x38>)
    2096:	2000      	movs	r0, #0
    2098:	4293      	cmp	r3, r2
    209a:	d103      	bne.n	20a4 <__aeabi_dcmpun+0x2c>
    209c:	0020      	movs	r0, r4
    209e:	4330      	orrs	r0, r6
    20a0:	1e43      	subs	r3, r0, #1
    20a2:	4198      	sbcs	r0, r3
    20a4:	bd70      	pop	{r4, r5, r6, pc}
    20a6:	2001      	movs	r0, #1
    20a8:	432a      	orrs	r2, r5
    20aa:	d1fb      	bne.n	20a4 <__aeabi_dcmpun+0x2c>
    20ac:	e7f2      	b.n	2094 <__aeabi_dcmpun+0x1c>
    20ae:	46c0      	nop			; (mov r8, r8)
    20b0:	000007ff 	.word	0x000007ff

000020b4 <__aeabi_d2iz>:
    20b4:	000a      	movs	r2, r1
    20b6:	b530      	push	{r4, r5, lr}
    20b8:	4c13      	ldr	r4, [pc, #76]	; (2108 <__aeabi_d2iz+0x54>)
    20ba:	0053      	lsls	r3, r2, #1
    20bc:	0309      	lsls	r1, r1, #12
    20be:	0005      	movs	r5, r0
    20c0:	0b09      	lsrs	r1, r1, #12
    20c2:	2000      	movs	r0, #0
    20c4:	0d5b      	lsrs	r3, r3, #21
    20c6:	0fd2      	lsrs	r2, r2, #31
    20c8:	42a3      	cmp	r3, r4
    20ca:	dd04      	ble.n	20d6 <__aeabi_d2iz+0x22>
    20cc:	480f      	ldr	r0, [pc, #60]	; (210c <__aeabi_d2iz+0x58>)
    20ce:	4283      	cmp	r3, r0
    20d0:	dd02      	ble.n	20d8 <__aeabi_d2iz+0x24>
    20d2:	4b0f      	ldr	r3, [pc, #60]	; (2110 <__aeabi_d2iz+0x5c>)
    20d4:	18d0      	adds	r0, r2, r3
    20d6:	bd30      	pop	{r4, r5, pc}
    20d8:	2080      	movs	r0, #128	; 0x80
    20da:	0340      	lsls	r0, r0, #13
    20dc:	4301      	orrs	r1, r0
    20de:	480d      	ldr	r0, [pc, #52]	; (2114 <__aeabi_d2iz+0x60>)
    20e0:	1ac0      	subs	r0, r0, r3
    20e2:	281f      	cmp	r0, #31
    20e4:	dd08      	ble.n	20f8 <__aeabi_d2iz+0x44>
    20e6:	480c      	ldr	r0, [pc, #48]	; (2118 <__aeabi_d2iz+0x64>)
    20e8:	1ac3      	subs	r3, r0, r3
    20ea:	40d9      	lsrs	r1, r3
    20ec:	000b      	movs	r3, r1
    20ee:	4258      	negs	r0, r3
    20f0:	2a00      	cmp	r2, #0
    20f2:	d1f0      	bne.n	20d6 <__aeabi_d2iz+0x22>
    20f4:	0018      	movs	r0, r3
    20f6:	e7ee      	b.n	20d6 <__aeabi_d2iz+0x22>
    20f8:	4c08      	ldr	r4, [pc, #32]	; (211c <__aeabi_d2iz+0x68>)
    20fa:	40c5      	lsrs	r5, r0
    20fc:	46a4      	mov	ip, r4
    20fe:	4463      	add	r3, ip
    2100:	4099      	lsls	r1, r3
    2102:	000b      	movs	r3, r1
    2104:	432b      	orrs	r3, r5
    2106:	e7f2      	b.n	20ee <__aeabi_d2iz+0x3a>
    2108:	000003fe 	.word	0x000003fe
    210c:	0000041d 	.word	0x0000041d
    2110:	7fffffff 	.word	0x7fffffff
    2114:	00000433 	.word	0x00000433
    2118:	00000413 	.word	0x00000413
    211c:	fffffbed 	.word	0xfffffbed

00002120 <__aeabi_i2d>:
    2120:	b570      	push	{r4, r5, r6, lr}
    2122:	2800      	cmp	r0, #0
    2124:	d016      	beq.n	2154 <__aeabi_i2d+0x34>
    2126:	17c3      	asrs	r3, r0, #31
    2128:	18c5      	adds	r5, r0, r3
    212a:	405d      	eors	r5, r3
    212c:	0fc4      	lsrs	r4, r0, #31
    212e:	0028      	movs	r0, r5
    2130:	f000 f84c 	bl	21cc <__clzsi2>
    2134:	4a11      	ldr	r2, [pc, #68]	; (217c <__aeabi_i2d+0x5c>)
    2136:	1a12      	subs	r2, r2, r0
    2138:	280a      	cmp	r0, #10
    213a:	dc16      	bgt.n	216a <__aeabi_i2d+0x4a>
    213c:	0003      	movs	r3, r0
    213e:	002e      	movs	r6, r5
    2140:	3315      	adds	r3, #21
    2142:	409e      	lsls	r6, r3
    2144:	230b      	movs	r3, #11
    2146:	1a18      	subs	r0, r3, r0
    2148:	40c5      	lsrs	r5, r0
    214a:	0552      	lsls	r2, r2, #21
    214c:	032d      	lsls	r5, r5, #12
    214e:	0b2d      	lsrs	r5, r5, #12
    2150:	0d53      	lsrs	r3, r2, #21
    2152:	e003      	b.n	215c <__aeabi_i2d+0x3c>
    2154:	2400      	movs	r4, #0
    2156:	2300      	movs	r3, #0
    2158:	2500      	movs	r5, #0
    215a:	2600      	movs	r6, #0
    215c:	051b      	lsls	r3, r3, #20
    215e:	432b      	orrs	r3, r5
    2160:	07e4      	lsls	r4, r4, #31
    2162:	4323      	orrs	r3, r4
    2164:	0030      	movs	r0, r6
    2166:	0019      	movs	r1, r3
    2168:	bd70      	pop	{r4, r5, r6, pc}
    216a:	380b      	subs	r0, #11
    216c:	4085      	lsls	r5, r0
    216e:	0552      	lsls	r2, r2, #21
    2170:	032d      	lsls	r5, r5, #12
    2172:	2600      	movs	r6, #0
    2174:	0b2d      	lsrs	r5, r5, #12
    2176:	0d53      	lsrs	r3, r2, #21
    2178:	e7f0      	b.n	215c <__aeabi_i2d+0x3c>
    217a:	46c0      	nop			; (mov r8, r8)
    217c:	0000041e 	.word	0x0000041e

00002180 <__aeabi_ui2d>:
    2180:	b510      	push	{r4, lr}
    2182:	1e04      	subs	r4, r0, #0
    2184:	d010      	beq.n	21a8 <__aeabi_ui2d+0x28>
    2186:	f000 f821 	bl	21cc <__clzsi2>
    218a:	4b0f      	ldr	r3, [pc, #60]	; (21c8 <__aeabi_ui2d+0x48>)
    218c:	1a1b      	subs	r3, r3, r0
    218e:	280a      	cmp	r0, #10
    2190:	dc11      	bgt.n	21b6 <__aeabi_ui2d+0x36>
    2192:	220b      	movs	r2, #11
    2194:	0021      	movs	r1, r4
    2196:	1a12      	subs	r2, r2, r0
    2198:	40d1      	lsrs	r1, r2
    219a:	3015      	adds	r0, #21
    219c:	030a      	lsls	r2, r1, #12
    219e:	055b      	lsls	r3, r3, #21
    21a0:	4084      	lsls	r4, r0
    21a2:	0b12      	lsrs	r2, r2, #12
    21a4:	0d5b      	lsrs	r3, r3, #21
    21a6:	e001      	b.n	21ac <__aeabi_ui2d+0x2c>
    21a8:	2300      	movs	r3, #0
    21aa:	2200      	movs	r2, #0
    21ac:	051b      	lsls	r3, r3, #20
    21ae:	4313      	orrs	r3, r2
    21b0:	0020      	movs	r0, r4
    21b2:	0019      	movs	r1, r3
    21b4:	bd10      	pop	{r4, pc}
    21b6:	0022      	movs	r2, r4
    21b8:	380b      	subs	r0, #11
    21ba:	4082      	lsls	r2, r0
    21bc:	055b      	lsls	r3, r3, #21
    21be:	0312      	lsls	r2, r2, #12
    21c0:	2400      	movs	r4, #0
    21c2:	0b12      	lsrs	r2, r2, #12
    21c4:	0d5b      	lsrs	r3, r3, #21
    21c6:	e7f1      	b.n	21ac <__aeabi_ui2d+0x2c>
    21c8:	0000041e 	.word	0x0000041e

000021cc <__clzsi2>:
    21cc:	211c      	movs	r1, #28
    21ce:	2301      	movs	r3, #1
    21d0:	041b      	lsls	r3, r3, #16
    21d2:	4298      	cmp	r0, r3
    21d4:	d301      	bcc.n	21da <__clzsi2+0xe>
    21d6:	0c00      	lsrs	r0, r0, #16
    21d8:	3910      	subs	r1, #16
    21da:	0a1b      	lsrs	r3, r3, #8
    21dc:	4298      	cmp	r0, r3
    21de:	d301      	bcc.n	21e4 <__clzsi2+0x18>
    21e0:	0a00      	lsrs	r0, r0, #8
    21e2:	3908      	subs	r1, #8
    21e4:	091b      	lsrs	r3, r3, #4
    21e6:	4298      	cmp	r0, r3
    21e8:	d301      	bcc.n	21ee <__clzsi2+0x22>
    21ea:	0900      	lsrs	r0, r0, #4
    21ec:	3904      	subs	r1, #4
    21ee:	a202      	add	r2, pc, #8	; (adr r2, 21f8 <__clzsi2+0x2c>)
    21f0:	5c10      	ldrb	r0, [r2, r0]
    21f2:	1840      	adds	r0, r0, r1
    21f4:	4770      	bx	lr
    21f6:	46c0      	nop			; (mov r8, r8)
    21f8:	02020304 	.word	0x02020304
    21fc:	01010101 	.word	0x01010101
	...

00002208 <__clzdi2>:
    2208:	b510      	push	{r4, lr}
    220a:	2900      	cmp	r1, #0
    220c:	d103      	bne.n	2216 <__clzdi2+0xe>
    220e:	f7ff ffdd 	bl	21cc <__clzsi2>
    2212:	3020      	adds	r0, #32
    2214:	e002      	b.n	221c <__clzdi2+0x14>
    2216:	0008      	movs	r0, r1
    2218:	f7ff ffd8 	bl	21cc <__clzsi2>
    221c:	bd10      	pop	{r4, pc}
    221e:	46c0      	nop			; (mov r8, r8)

00002220 <init_pdu_buffer_pointer>:

static  uint8_t *rx_pdu_buffer;

void init_pdu_buffer_pointer(uint8_t *pointer)
{
    rx_pdu_buffer = pointer;
    2220:	4b01      	ldr	r3, [pc, #4]	; (2228 <init_pdu_buffer_pointer+0x8>)
    2222:	6018      	str	r0, [r3, #0]
}
    2224:	4770      	bx	lr
    2226:	46c0      	nop			; (mov r8, r8)
    2228:	200009ac 	.word	0x200009ac

0000222c <show_pdu_data>:
    uint8_t advData_length = length - 6;
    analyse_pdu(AdvData, advData_length, AdvA);
}

void show_pdu_data(int8_t rssi)
{
    222c:	b5f0      	push	{r4, r5, r6, r7, lr}
    222e:	46c6      	mov	lr, r8
    uint8_t *header = &rx_pdu_buffer[0];
    uint8_t header0 =  header[0];
    uint8_t pdu_type = header0&0x0f;
    2230:	210f      	movs	r1, #15
{
    2232:	b500      	push	{lr}
    uint8_t *header = &rx_pdu_buffer[0];
    2234:	4b3a      	ldr	r3, [pc, #232]	; (2320 <show_pdu_data+0xf4>)
    2236:	681c      	ldr	r4, [r3, #0]
    uint8_t header0 =  header[0];
    2238:	7823      	ldrb	r3, [r4, #0]
    uint8_t pdu_type = header0&0x0f;
    223a:	4019      	ands	r1, r3

    switch(pdu_type)
    223c:	2903      	cmp	r1, #3
    223e:	d028      	beq.n	2292 <show_pdu_data+0x66>
    2240:	220c      	movs	r2, #12
    2242:	421a      	tst	r2, r3
    2244:	d128      	bne.n	2298 <show_pdu_data+0x6c>
    2246:	2900      	cmp	r1, #0
    2248:	d04b      	beq.n	22e2 <show_pdu_data+0xb6>
    224a:	2902      	cmp	r1, #2
    224c:	d145      	bne.n	22da <show_pdu_data+0xae>
    uint8_t length = header[1];
    224e:	7865      	ldrb	r5, [r4, #1]
    uint8_t *payload = &rx_pdu_buffer[2];
    2250:	1ca7      	adds	r7, r4, #2
    update_device(AdvA, rssi);
    2252:	b2c1      	uxtb	r1, r0
    uint8_t advData_length = length - 6;
    2254:	3d06      	subs	r5, #6
    update_device(AdvA, rssi);
    2256:	0038      	movs	r0, r7
    2258:	f000 fa0e 	bl	2678 <update_device>
    uint8_t advData_length = length - 6;
    225c:	b2eb      	uxtb	r3, r5
    225e:	4698      	mov	r8, r3
    if(pdu_len <= 3) return;
    2260:	2b03      	cmp	r3, #3
    2262:	d916      	bls.n	2292 <show_pdu_data+0x66>
    for(int index = 0; index < pdu_len;)
    2264:	2500      	movs	r5, #0
    uint8_t *AdvData = payload+6;
    2266:	3408      	adds	r4, #8
    for(int index = 0; index < pdu_len;)
    2268:	e003      	b.n	2272 <show_pdu_data+0x46>
        index += length+1;
    226a:	3601      	adds	r6, #1
    226c:	19ad      	adds	r5, r5, r6
    for(int index = 0; index < pdu_len;)
    226e:	45a8      	cmp	r8, r5
    2270:	dd0f      	ble.n	2292 <show_pdu_data+0x66>
        memcpy(&header, pdu+index, 2);
    2272:	1963      	adds	r3, r4, r5
    switch(type)
    2274:	785b      	ldrb	r3, [r3, #1]
        memcpy(&header, pdu+index, 2);
    2276:	5d66      	ldrb	r6, [r4, r5]
    switch(type)
    2278:	2b09      	cmp	r3, #9
    227a:	d1f6      	bne.n	226a <show_pdu_data+0x3e>
        analyse_adv_data(type, data, length-1, mac);
    227c:	1e72      	subs	r2, r6, #1
        uint8_t *data = pdu + 2+index;
    227e:	1ca9      	adds	r1, r5, #2
        index += length+1;
    2280:	3601      	adds	r6, #1
        case 0x09: add_device_name(mac,data,len); break;
    2282:	0038      	movs	r0, r7
    2284:	b2d2      	uxtb	r2, r2
        uint8_t *data = pdu + 2+index;
    2286:	1861      	adds	r1, r4, r1
        index += length+1;
    2288:	19ad      	adds	r5, r5, r6
        case 0x09: add_device_name(mac,data,len); break;
    228a:	f000 f9bd 	bl	2608 <add_device_name>
    for(int index = 0; index < pdu_len;)
    228e:	45a8      	cmp	r8, r5
    2290:	dcef      	bgt.n	2272 <show_pdu_data+0x46>
        case 0x2: analyse_payload(rssi); break; //ADV_NONCONN_IND
        case 0x3: break; //SCAN_REQ
        case 0x4: analyse_payload(rssi); break; //SCAN_RSP
        default: printf("\n\rReceived Not implemented PDU type: %d!!!!", pdu_type);
    }
    2292:	bc80      	pop	{r7}
    2294:	46b8      	mov	r8, r7
    2296:	bdf0      	pop	{r4, r5, r6, r7, pc}
    switch(pdu_type)
    2298:	2904      	cmp	r1, #4
    229a:	d11e      	bne.n	22da <show_pdu_data+0xae>
    uint8_t length = header[1];
    229c:	7865      	ldrb	r5, [r4, #1]
    uint8_t *payload = &rx_pdu_buffer[2];
    229e:	1ca7      	adds	r7, r4, #2
    update_device(AdvA, rssi);
    22a0:	b2c1      	uxtb	r1, r0
    uint8_t advData_length = length - 6;
    22a2:	3d06      	subs	r5, #6
    update_device(AdvA, rssi);
    22a4:	0038      	movs	r0, r7
    22a6:	f000 f9e7 	bl	2678 <update_device>
    uint8_t advData_length = length - 6;
    22aa:	b2eb      	uxtb	r3, r5
    22ac:	4698      	mov	r8, r3
    if(pdu_len <= 3) return;
    22ae:	2b03      	cmp	r3, #3
    22b0:	d9ef      	bls.n	2292 <show_pdu_data+0x66>
    for(int index = 0; index < pdu_len;)
    22b2:	2500      	movs	r5, #0
    uint8_t *AdvData = payload+6;
    22b4:	3408      	adds	r4, #8
    for(int index = 0; index < pdu_len;)
    22b6:	e003      	b.n	22c0 <show_pdu_data+0x94>
        index += length+1;
    22b8:	3601      	adds	r6, #1
    22ba:	19ad      	adds	r5, r5, r6
    for(int index = 0; index < pdu_len;)
    22bc:	45a8      	cmp	r8, r5
    22be:	dde8      	ble.n	2292 <show_pdu_data+0x66>
        memcpy(&header, pdu+index, 2);
    22c0:	1963      	adds	r3, r4, r5
    switch(type)
    22c2:	785b      	ldrb	r3, [r3, #1]
        memcpy(&header, pdu+index, 2);
    22c4:	5d66      	ldrb	r6, [r4, r5]
    switch(type)
    22c6:	2b09      	cmp	r3, #9
    22c8:	d1f6      	bne.n	22b8 <show_pdu_data+0x8c>
        analyse_adv_data(type, data, length-1, mac);
    22ca:	1e72      	subs	r2, r6, #1
        uint8_t *data = pdu + 2+index;
    22cc:	1ca9      	adds	r1, r5, #2
        case 0x09: add_device_name(mac,data,len); break;
    22ce:	0038      	movs	r0, r7
    22d0:	b2d2      	uxtb	r2, r2
        uint8_t *data = pdu + 2+index;
    22d2:	1861      	adds	r1, r4, r1
        case 0x09: add_device_name(mac,data,len); break;
    22d4:	f000 f998 	bl	2608 <add_device_name>
    22d8:	e7ee      	b.n	22b8 <show_pdu_data+0x8c>
        default: printf("\n\rReceived Not implemented PDU type: %d!!!!", pdu_type);
    22da:	4812      	ldr	r0, [pc, #72]	; (2324 <show_pdu_data+0xf8>)
    22dc:	f000 fce4 	bl	2ca8 <printf>
    22e0:	e7d7      	b.n	2292 <show_pdu_data+0x66>
    uint8_t length = header[1];
    22e2:	7865      	ldrb	r5, [r4, #1]
    uint8_t *payload = &rx_pdu_buffer[2];
    22e4:	1ca7      	adds	r7, r4, #2
    update_device(AdvA, rssi);
    22e6:	b2c1      	uxtb	r1, r0
    uint8_t advData_length = length - 6;
    22e8:	3d06      	subs	r5, #6
    update_device(AdvA, rssi);
    22ea:	0038      	movs	r0, r7
    22ec:	f000 f9c4 	bl	2678 <update_device>
    uint8_t advData_length = length - 6;
    22f0:	b2eb      	uxtb	r3, r5
    22f2:	4698      	mov	r8, r3
    if(pdu_len <= 3) return;
    22f4:	2b03      	cmp	r3, #3
    22f6:	d9cc      	bls.n	2292 <show_pdu_data+0x66>
    for(int index = 0; index < pdu_len;)
    22f8:	2500      	movs	r5, #0
    uint8_t *AdvData = payload+6;
    22fa:	3408      	adds	r4, #8
    for(int index = 0; index < pdu_len;)
    22fc:	e003      	b.n	2306 <show_pdu_data+0xda>
        index += length+1;
    22fe:	3601      	adds	r6, #1
    2300:	19ad      	adds	r5, r5, r6
    for(int index = 0; index < pdu_len;)
    2302:	4545      	cmp	r5, r8
    2304:	dac5      	bge.n	2292 <show_pdu_data+0x66>
        memcpy(&header, pdu+index, 2);
    2306:	1963      	adds	r3, r4, r5
    switch(type)
    2308:	785b      	ldrb	r3, [r3, #1]
        memcpy(&header, pdu+index, 2);
    230a:	5d66      	ldrb	r6, [r4, r5]
    switch(type)
    230c:	2b09      	cmp	r3, #9
    230e:	d1f6      	bne.n	22fe <show_pdu_data+0xd2>
        analyse_adv_data(type, data, length-1, mac);
    2310:	1e72      	subs	r2, r6, #1
        uint8_t *data = pdu + 2+index;
    2312:	1ca9      	adds	r1, r5, #2
        case 0x09: add_device_name(mac,data,len); break;
    2314:	0038      	movs	r0, r7
    2316:	b2d2      	uxtb	r2, r2
        uint8_t *data = pdu + 2+index;
    2318:	1861      	adds	r1, r4, r1
        case 0x09: add_device_name(mac,data,len); break;
    231a:	f000 f975 	bl	2608 <add_device_name>
    231e:	e7ee      	b.n	22fe <show_pdu_data+0xd2>
    2320:	200009ac 	.word	0x200009ac
    2324:	00008e4c 	.word	0x00008e4c

00002328 <ble_init>:
}

void ble_init( uint8_t channel_number )
{

    if ( ((NRF_FICR->OVERRIDEEN) & FICR_OVERRIDEEN_BLE_1MBIT_Msk) == FICR_OVERRIDEEN_BLE_1MBIT_Override)
    2328:	2380      	movs	r3, #128	; 0x80
    232a:	22ac      	movs	r2, #172	; 0xac
    232c:	055b      	lsls	r3, r3, #21
    232e:	589a      	ldr	r2, [r3, r2]
{
    2330:	b510      	push	{r4, lr}
    if ( ((NRF_FICR->OVERRIDEEN) & FICR_OVERRIDEEN_BLE_1MBIT_Msk) == FICR_OVERRIDEEN_BLE_1MBIT_Override)
    2332:	0712      	lsls	r2, r2, #28
    2334:	d416      	bmi.n	2364 <ble_init+0x3c>
    {
        NRF_RADIO->OVERRIDE0 = NRF_FICR->BLE_1MBIT[0];
    2336:	22ec      	movs	r2, #236	; 0xec
    2338:	4923      	ldr	r1, [pc, #140]	; (23c8 <ble_init+0xa0>)
    233a:	589c      	ldr	r4, [r3, r2]
    233c:	4a23      	ldr	r2, [pc, #140]	; (23cc <ble_init+0xa4>)
    233e:	5054      	str	r4, [r2, r1]
        NRF_RADIO->OVERRIDE1 = NRF_FICR->BLE_1MBIT[1];
    2340:	21f0      	movs	r1, #240	; 0xf0
    2342:	585c      	ldr	r4, [r3, r1]
    2344:	21e5      	movs	r1, #229	; 0xe5
    2346:	00c9      	lsls	r1, r1, #3
    2348:	5054      	str	r4, [r2, r1]
        NRF_RADIO->OVERRIDE2 = NRF_FICR->BLE_1MBIT[2];
    234a:	21f4      	movs	r1, #244	; 0xf4
    234c:	585c      	ldr	r4, [r3, r1]
    234e:	4920      	ldr	r1, [pc, #128]	; (23d0 <ble_init+0xa8>)
    2350:	5054      	str	r4, [r2, r1]
        NRF_RADIO->OVERRIDE3 = NRF_FICR->BLE_1MBIT[3];
    2352:	21f8      	movs	r1, #248	; 0xf8
    2354:	585c      	ldr	r4, [r3, r1]
    2356:	21e6      	movs	r1, #230	; 0xe6
    2358:	00c9      	lsls	r1, r1, #3
    235a:	5054      	str	r4, [r2, r1]
        NRF_RADIO->OVERRIDE4 = NRF_FICR->BLE_1MBIT[4];
    235c:	21fc      	movs	r1, #252	; 0xfc
    235e:	5859      	ldr	r1, [r3, r1]
    2360:	4b1c      	ldr	r3, [pc, #112]	; (23d4 <ble_init+0xac>)
    2362:	50d1      	str	r1, [r2, r3]
    }

    NRF_RADIO->TXPOWER = RADIO_TXPOWER_TXPOWER_0dBm << RADIO_TXPOWER_TXPOWER_Pos;
    2364:	2200      	movs	r2, #0
    2366:	4c19      	ldr	r4, [pc, #100]	; (23cc <ble_init+0xa4>)
    2368:	4b1b      	ldr	r3, [pc, #108]	; (23d8 <ble_init+0xb0>)
    236a:	50e2      	str	r2, [r4, r3]

    //nrf radio also have proprietary 1mbit mode
    NRF_RADIO->MODE = RADIO_MODE_MODE_Ble_1Mbit << RADIO_MODE_MODE_Pos;
    236c:	3304      	adds	r3, #4
    236e:	3203      	adds	r2, #3
    2370:	50e2      	str	r2, [r4, r3]
    NRF_RADIO->CRCCNF = RADIO_CRCCNF_LEN_Three << RADIO_CRCCNF_LEN_Pos | RADIO_CRCCNF_SKIPADDR_Skip<<RADIO_CRCCNF_SKIPADDR_Pos;
    2372:	2204      	movs	r2, #4
    2374:	4b19      	ldr	r3, [pc, #100]	; (23dc <ble_init+0xb4>)
    2376:	32ff      	adds	r2, #255	; 0xff
    2378:	50e2      	str	r2, [r4, r3]
    NRF_RADIO->CRCINIT = 0x555555;      // Initial value
    237a:	4b19      	ldr	r3, [pc, #100]	; (23e0 <ble_init+0xb8>)
    237c:	4a19      	ldr	r2, [pc, #100]	; (23e4 <ble_init+0xbc>)
    237e:	50e2      	str	r2, [r4, r3]
    NRF_RADIO->CRCPOLY = 0x00065B;     // CRC poly:  x24 + x 10 + x 9 + x6 + x 4 + x 3 + x + 1=0b0000 0000 0000 0110 0101 1011=0x00065B
    2380:	4a19      	ldr	r2, [pc, #100]	; (23e8 <ble_init+0xc0>)
    2382:	3b04      	subs	r3, #4
    2384:	50e2      	str	r2, [r4, r3]
    NRF_RADIO->PCNF0 = (1 << RADIO_PCNF0_S0LEN_Pos) | //This field is in bytes
    2386:	2284      	movs	r2, #132	; 0x84
    2388:	4b18      	ldr	r3, [pc, #96]	; (23ec <ble_init+0xc4>)
    238a:	0052      	lsls	r2, r2, #1
    238c:	50e2      	str	r2, [r4, r3]
    NRF_RADIO->PCNF1 = (RADIO_PCNF1_WHITEEN_Enabled    << RADIO_PCNF1_WHITEEN_Pos) |
    238e:	4a18      	ldr	r2, [pc, #96]	; (23f0 <ble_init+0xc8>)
    2390:	3304      	adds	r3, #4
    2392:	50e2      	str	r2, [r4, r3]
    NRF_RADIO->DATAWHITEIV = channel_number | (1 << 6);
    2394:	2340      	movs	r3, #64	; 0x40
    2396:	4318      	orrs	r0, r3
    2398:	4b16      	ldr	r3, [pc, #88]	; (23f4 <ble_init+0xcc>)
    239a:	50e0      	str	r0, [r4, r3]
    printf("\n\rData whitening init val:0x%02lx", NRF_RADIO->DATAWHITEIV);
    239c:	58e1      	ldr	r1, [r4, r3]
    239e:	4816      	ldr	r0, [pc, #88]	; (23f8 <ble_init+0xd0>)
    23a0:	f000 fc82 	bl	2ca8 <printf>
    SCB->SHP[_SHP_IDX(IRQn)] = ((uint32_t)(SCB->SHP[_SHP_IDX(IRQn)] & ~(0xFFUL << _BIT_SHIFT(IRQn))) |
       (((priority << (8U - __NVIC_PRIO_BITS)) & (uint32_t)0xFFUL) << _BIT_SHIFT(IRQn)));
  }
  else
  {
    NVIC->IP[_IP_IDX(IRQn)]  = ((uint32_t)(NVIC->IP[_IP_IDX(IRQn)]  & ~(0xFFUL << _BIT_SHIFT(IRQn))) |
    23a4:	21c0      	movs	r1, #192	; 0xc0
    23a6:	4815      	ldr	r0, [pc, #84]	; (23fc <ble_init+0xd4>)
    23a8:	0089      	lsls	r1, r1, #2
    23aa:	5843      	ldr	r3, [r0, r1]
    23ac:	4a14      	ldr	r2, [pc, #80]	; (2400 <ble_init+0xd8>)
    23ae:	401a      	ands	r2, r3
    23b0:	2380      	movs	r3, #128	; 0x80
    23b2:	01db      	lsls	r3, r3, #7
    23b4:	4313      	orrs	r3, r2
    23b6:	5043      	str	r3, [r0, r1]

    //Advertisement base address
    //Tutaj wpisaem e base jest 3 bitowy wiec musze wyrzuci cze do prefixu
    //Bluetooth chce LSB FIRST wiec zacznie wysya od prawej std z adresu 0x8E89BED6
    //0x8E jako ostatnie wylduje w prefixie bo on jest wysyany po base i te od LSB
    NRF_RADIO->BASE0 = 0x89BED611;
    23b8:	4a12      	ldr	r2, [pc, #72]	; (2404 <ble_init+0xdc>)
    23ba:	4b13      	ldr	r3, [pc, #76]	; (2408 <ble_init+0xe0>)
    23bc:	50e2      	str	r2, [r4, r3]
    NRF_RADIO->PREFIX0 = 0x8E;
    23be:	228e      	movs	r2, #142	; 0x8e
    23c0:	4b12      	ldr	r3, [pc, #72]	; (240c <ble_init+0xe4>)
    23c2:	50e2      	str	r2, [r4, r3]
}
    23c4:	bd10      	pop	{r4, pc}
    23c6:	46c0      	nop			; (mov r8, r8)
    23c8:	00000724 	.word	0x00000724
    23cc:	40001000 	.word	0x40001000
    23d0:	0000072c 	.word	0x0000072c
    23d4:	00000734 	.word	0x00000734
    23d8:	0000050c 	.word	0x0000050c
    23dc:	00000534 	.word	0x00000534
    23e0:	0000053c 	.word	0x0000053c
    23e4:	00555555 	.word	0x00555555
    23e8:	0000065b 	.word	0x0000065b
    23ec:	00000514 	.word	0x00000514
    23f0:	020300ff 	.word	0x020300ff
    23f4:	00000554 	.word	0x00000554
    23f8:	00008e78 	.word	0x00008e78
    23fc:	e000e100 	.word	0xe000e100
    2400:	ffff00ff 	.word	0xffff00ff
    2404:	89bed611 	.word	0x89bed611
    2408:	0000051c 	.word	0x0000051c
    240c:	00000524 	.word	0x00000524

00002410 <ble_start_rx>:


void ble_start_rx(uint8_t channel_number)
{
    2410:	0001      	movs	r1, r0
    //Clear all radio interrupt flags
    NRF_RADIO->INTENCLR = 0xFFFFFFFF;
    2412:	22c2      	movs	r2, #194	; 0xc2
    2414:	2001      	movs	r0, #1
    2416:	4b29      	ldr	r3, [pc, #164]	; (24bc <ble_start_rx+0xac>)
    2418:	0092      	lsls	r2, r2, #2
    241a:	4240      	negs	r0, r0
{
    241c:	b510      	push	{r4, lr}
    NRF_RADIO->INTENCLR = 0xFFFFFFFF;
    241e:	5098      	str	r0, [r3, r2]

    //Clear Disable radio events
    NRF_RADIO->EVENTS_DISABLED = 0;
    2420:	2200      	movs	r2, #0
    2422:	3012      	adds	r0, #18
    2424:	30ff      	adds	r0, #255	; 0xff
    2426:	501a      	str	r2, [r3, r0]
    NRF_RADIO->EVENTS_END = 0;
    2428:	3804      	subs	r0, #4
    242a:	501a      	str	r2, [r3, r0]

    NRF_RADIO->SHORTS      = RADIO_SHORTS_COMMON ;
    242c:	2280      	movs	r2, #128	; 0x80
    242e:	38fb      	subs	r0, #251	; 0xfb
    2430:	0092      	lsls	r2, r2, #2
    2432:	5098      	str	r0, [r3, r2]
    // NRF_RADIO->INTENSET    = RADIO_INTENSET_DISABLED_Msk | RADIO_INTENSET_READY_Msk| RADIO_INTENSET_END_Msk|RADIO_INTENSET_ADDRESS_Msk;

     //Enable interrupt when radio reached end state, it means that data is received
    NRF_RADIO->INTENSET    = RADIO_INTENSET_END_Msk;
    2434:	3205      	adds	r2, #5
    2436:	32ff      	adds	r2, #255	; 0xff
    2438:	3809      	subs	r0, #9
    243a:	5098      	str	r0, [r3, r2]


    //Reception on ADDR0
    NRF_RADIO->RXADDRESSES  = 1;
    243c:	22a6      	movs	r2, #166	; 0xa6
    243e:	3807      	subs	r0, #7
    2440:	00d2      	lsls	r2, r2, #3
    2442:	5098      	str	r0, [r3, r2]

    if(channel_number > 39) channel_number = 0;
    2444:	2927      	cmp	r1, #39	; 0x27
    2446:	d82d      	bhi.n	24a4 <ble_start_rx+0x94>
    uint8_t freq_reg = 4+channel_number*2;
    switch(channel_number)
    2448:	000b      	movs	r3, r1
    244a:	3b25      	subs	r3, #37	; 0x25
    244c:	b2db      	uxtb	r3, r3
    244e:	2b02      	cmp	r3, #2
    2450:	d82c      	bhi.n	24ac <ble_start_rx+0x9c>
    2452:	4a1b      	ldr	r2, [pc, #108]	; (24c0 <ble_start_rx+0xb0>)
    2454:	5cd4      	ldrb	r4, [r2, r3]
    {
        case 37: freq_reg = 2; break; //2402MHz
        case 38: freq_reg = 26; break; //2426MHz
        case 39: freq_reg = 80; break; //2480MHz
    }
    printf("\n\rScanning channel: %d(%dMHz)", channel_number, 2400+freq_reg);
    2456:	2396      	movs	r3, #150	; 0x96
    2458:	011b      	lsls	r3, r3, #4
    245a:	18e2      	adds	r2, r4, r3
    245c:	4819      	ldr	r0, [pc, #100]	; (24c4 <ble_start_rx+0xb4>)
    245e:	f000 fc23 	bl	2ca8 <printf>
    NRF_RADIO->FREQUENCY    = freq_reg;
    2462:	22a1      	movs	r2, #161	; 0xa1
    2464:	4b15      	ldr	r3, [pc, #84]	; (24bc <ble_start_rx+0xac>)
    2466:	00d2      	lsls	r2, r2, #3
    2468:	509c      	str	r4, [r3, r2]

    NRF_RADIO->PACKETPTR    = (uint32_t)rx_pdu_buffer;
    246a:	4917      	ldr	r1, [pc, #92]	; (24c8 <ble_start_rx+0xb8>)
    246c:	4a17      	ldr	r2, [pc, #92]	; (24cc <ble_start_rx+0xbc>)
  NVIC->ICPR[0U] = (uint32_t)(1UL << (((uint32_t)(int32_t)IRQn) & 0x1FUL));
    246e:	20c0      	movs	r0, #192	; 0xc0
    2470:	5099      	str	r1, [r3, r2]
    2472:	2102      	movs	r1, #2
    2474:	4a16      	ldr	r2, [pc, #88]	; (24d0 <ble_start_rx+0xc0>)
    2476:	0040      	lsls	r0, r0, #1
    2478:	5011      	str	r1, [r2, r0]
  NVIC->ISER[0U] = (uint32_t)(1UL << (((uint32_t)(int32_t)IRQn) & 0x1FUL));
    247a:	6011      	str	r1, [r2, #0]

    NVIC_ClearPendingIRQ(RADIO_IRQn);
    NVIC_EnableIRQ(RADIO_IRQn);

    NRF_RADIO->EVENTS_ADDRESS = 0;
    247c:	2200      	movs	r2, #0
    247e:	3103      	adds	r1, #3
    2480:	31ff      	adds	r1, #255	; 0xff
    2482:	505a      	str	r2, [r3, r1]
    NRF_RADIO->EVENTS_PAYLOAD = 0;
    2484:	3104      	adds	r1, #4
    2486:	505a      	str	r2, [r3, r1]
    NRF_RADIO->EVENTS_DISABLED = 0;
    2488:	3108      	adds	r1, #8
    248a:	505a      	str	r2, [r3, r1]
    NRF_RADIO->EVENTS_END = 0;
    248c:	3904      	subs	r1, #4
    248e:	505a      	str	r2, [r3, r1]

    rx_fifo.write_index=0;
    2490:	4810      	ldr	r0, [pc, #64]	; (24d4 <ble_start_rx+0xc4>)
    2492:	4911      	ldr	r1, [pc, #68]	; (24d8 <ble_start_rx+0xc8>)
    2494:	500a      	str	r2, [r1, r0]
    rx_fifo.read_index=0;
    2496:	3004      	adds	r0, #4
    2498:	500a      	str	r2, [r1, r0]
    rx_fifo.count=0;
    249a:	4810      	ldr	r0, [pc, #64]	; (24dc <ble_start_rx+0xcc>)
    249c:	500a      	str	r2, [r1, r0]

    NRF_RADIO->TASKS_RXEN  = 1;
    249e:	3201      	adds	r2, #1
    24a0:	605a      	str	r2, [r3, #4]
}
    24a2:	bd10      	pop	{r4, pc}
    24a4:	2404      	movs	r4, #4
    switch(channel_number)
    24a6:	2100      	movs	r1, #0
    24a8:	4a0d      	ldr	r2, [pc, #52]	; (24e0 <ble_start_rx+0xd0>)
    24aa:	e7d7      	b.n	245c <ble_start_rx+0x4c>
    uint8_t freq_reg = 4+channel_number*2;
    24ac:	1c8c      	adds	r4, r1, #2
    24ae:	4084      	lsls	r4, r0
    printf("\n\rScanning channel: %d(%dMHz)", channel_number, 2400+freq_reg);
    24b0:	2396      	movs	r3, #150	; 0x96
    uint8_t freq_reg = 4+channel_number*2;
    24b2:	b2e4      	uxtb	r4, r4
    printf("\n\rScanning channel: %d(%dMHz)", channel_number, 2400+freq_reg);
    24b4:	011b      	lsls	r3, r3, #4
    24b6:	18e2      	adds	r2, r4, r3
    24b8:	e7d0      	b.n	245c <ble_start_rx+0x4c>
    24ba:	46c0      	nop			; (mov r8, r8)
    24bc:	40001000 	.word	0x40001000
    24c0:	00008ebc 	.word	0x00008ebc
    24c4:	00008e9c 	.word	0x00008e9c
    24c8:	200013c8 	.word	0x200013c8
    24cc:	00000504 	.word	0x00000504
    24d0:	e000e100 	.word	0xe000e100
    24d4:	00000a0c 	.word	0x00000a0c
    24d8:	200009b0 	.word	0x200009b0
    24dc:	00000a14 	.word	0x00000a14
    24e0:	00000964 	.word	0x00000964

000024e4 <RADIO_IRQHandler>:
    }
}

void RADIO_IRQHandler()
{
    NRF_RADIO->TASKS_RSSISTOP = 1;
    24e4:	2201      	movs	r2, #1
    //Ready state/event means that radio is ready to reception and is waiting for start 
    if (NRF_RADIO->EVENTS_READY && (NRF_RADIO->INTENSET & RADIO_INTENSET_READY_Msk))
    24e6:	2180      	movs	r1, #128	; 0x80
{
    24e8:	b5f8      	push	{r3, r4, r5, r6, r7, lr}
    NRF_RADIO->TASKS_RSSISTOP = 1;
    24ea:	4b3f      	ldr	r3, [pc, #252]	; (25e8 <RADIO_IRQHandler+0x104>)
    if (NRF_RADIO->EVENTS_READY && (NRF_RADIO->INTENSET & RADIO_INTENSET_READY_Msk))
    24ec:	0049      	lsls	r1, r1, #1
    NRF_RADIO->TASKS_RSSISTOP = 1;
    24ee:	619a      	str	r2, [r3, #24]
    if (NRF_RADIO->EVENTS_READY && (NRF_RADIO->INTENSET & RADIO_INTENSET_READY_Msk))
    24f0:	5858      	ldr	r0, [r3, r1]
    24f2:	2800      	cmp	r0, #0
    24f4:	d004      	beq.n	2500 <RADIO_IRQHandler+0x1c>
    24f6:	20c1      	movs	r0, #193	; 0xc1
    24f8:	0080      	lsls	r0, r0, #2
    24fa:	5818      	ldr	r0, [r3, r0]
    24fc:	4202      	tst	r2, r0
    24fe:	d126      	bne.n	254e <RADIO_IRQHandler+0x6a>
    {
        NRF_RADIO->EVENTS_READY = 0;
    }

    //End event explains that packet with crc is received 
    if (NRF_RADIO->EVENTS_END && (NRF_RADIO->INTENSET & RADIO_INTENSET_END_Msk))
    2500:	2386      	movs	r3, #134	; 0x86
    2502:	4c39      	ldr	r4, [pc, #228]	; (25e8 <RADIO_IRQHandler+0x104>)
    2504:	005b      	lsls	r3, r3, #1
    2506:	58e2      	ldr	r2, [r4, r3]
    2508:	2a00      	cmp	r2, #0
    250a:	d004      	beq.n	2516 <RADIO_IRQHandler+0x32>
    250c:	22c1      	movs	r2, #193	; 0xc1
    250e:	0092      	lsls	r2, r2, #2
    2510:	58a2      	ldr	r2, [r4, r2]
    2512:	0712      	lsls	r2, r2, #28
    2514:	d41e      	bmi.n	2554 <RADIO_IRQHandler+0x70>
        led_toogle(LED1);
        radio_copy_received();
        NRF_RADIO->TASKS_START  = 1;
    }

    if (NRF_RADIO->EVENTS_ADDRESS && (NRF_RADIO->INTENSET & RADIO_INTENSET_ADDRESS_Msk))
    2516:	2282      	movs	r2, #130	; 0x82
    2518:	4b33      	ldr	r3, [pc, #204]	; (25e8 <RADIO_IRQHandler+0x104>)
    251a:	0052      	lsls	r2, r2, #1
    251c:	5899      	ldr	r1, [r3, r2]
    251e:	2900      	cmp	r1, #0
    2520:	d004      	beq.n	252c <RADIO_IRQHandler+0x48>
    2522:	21c1      	movs	r1, #193	; 0xc1
    2524:	0089      	lsls	r1, r1, #2
    2526:	5859      	ldr	r1, [r3, r1]
    2528:	0789      	lsls	r1, r1, #30
    252a:	d40d      	bmi.n	2548 <RADIO_IRQHandler+0x64>
    {
        NRF_RADIO->EVENTS_ADDRESS = 0;
    }

    if (NRF_RADIO->EVENTS_DISABLED && (NRF_RADIO->INTENSET & RADIO_INTENSET_DISABLED_Msk))
    252c:	2288      	movs	r2, #136	; 0x88
    252e:	4b2e      	ldr	r3, [pc, #184]	; (25e8 <RADIO_IRQHandler+0x104>)
    2530:	0052      	lsls	r2, r2, #1
    2532:	5899      	ldr	r1, [r3, r2]
    2534:	2900      	cmp	r1, #0
    2536:	d006      	beq.n	2546 <RADIO_IRQHandler+0x62>
    2538:	21c1      	movs	r1, #193	; 0xc1
    253a:	0089      	lsls	r1, r1, #2
    253c:	5859      	ldr	r1, [r3, r1]
    253e:	06c9      	lsls	r1, r1, #27
    2540:	d501      	bpl.n	2546 <RADIO_IRQHandler+0x62>
    {
        NRF_RADIO->EVENTS_DISABLED = 0;
    2542:	2100      	movs	r1, #0
    2544:	5099      	str	r1, [r3, r2]
    }
    2546:	bdf8      	pop	{r3, r4, r5, r6, r7, pc}
        NRF_RADIO->EVENTS_ADDRESS = 0;
    2548:	2100      	movs	r1, #0
    254a:	5099      	str	r1, [r3, r2]
    254c:	e7ee      	b.n	252c <RADIO_IRQHandler+0x48>
        NRF_RADIO->EVENTS_READY = 0;
    254e:	2200      	movs	r2, #0
    2550:	505a      	str	r2, [r3, r1]
    2552:	e7d5      	b.n	2500 <RADIO_IRQHandler+0x1c>
        NRF_RADIO->EVENTS_END = 0;
    2554:	2200      	movs	r2, #0
    2556:	50e2      	str	r2, [r4, r3]
        led_toogle(LED1);
    2558:	4b24      	ldr	r3, [pc, #144]	; (25ec <RADIO_IRQHandler+0x108>)
    255a:	6818      	ldr	r0, [r3, #0]
    255c:	f000 f960 	bl	2820 <led_toogle>
    led_toogle(LED3);
    2560:	4b23      	ldr	r3, [pc, #140]	; (25f0 <RADIO_IRQHandler+0x10c>)
    2562:	6818      	ldr	r0, [r3, #0]
    2564:	f000 f95c 	bl	2820 <led_toogle>
    if (NRF_RADIO->CRCSTATUS == 0)
    2568:	2380      	movs	r3, #128	; 0x80
    256a:	00db      	lsls	r3, r3, #3
    256c:	58e3      	ldr	r3, [r4, r3]
    256e:	2b00      	cmp	r3, #0
    2570:	d035      	beq.n	25de <RADIO_IRQHandler+0xfa>
    led_toogle(LED4);
    2572:	4b20      	ldr	r3, [pc, #128]	; (25f4 <RADIO_IRQHandler+0x110>)
    2574:	6818      	ldr	r0, [r3, #0]
    2576:	f000 f953 	bl	2820 <led_toogle>
    if (rx_fifo.count < 10) //Ignore write if buffer is full
    257a:	481f      	ldr	r0, [pc, #124]	; (25f8 <RADIO_IRQHandler+0x114>)
    257c:	4b1f      	ldr	r3, [pc, #124]	; (25fc <RADIO_IRQHandler+0x118>)
    257e:	58c3      	ldr	r3, [r0, r3]
    2580:	2b09      	cmp	r3, #9
    2582:	d82c      	bhi.n	25de <RADIO_IRQHandler+0xfa>
        rx_fifo.packet[rx_fifo.write_index].rssi = NRF_RADIO->RSSISAMPLE;
    2584:	23a9      	movs	r3, #169	; 0xa9
    2586:	4e1e      	ldr	r6, [pc, #120]	; (2600 <RADIO_IRQHandler+0x11c>)
        uint8_t length = header[1];
    2588:	4f1e      	ldr	r7, [pc, #120]	; (2604 <RADIO_IRQHandler+0x120>)
        rx_fifo.packet[rx_fifo.write_index].rssi = NRF_RADIO->RSSISAMPLE;
    258a:	00db      	lsls	r3, r3, #3
        uint8_t length = header[1];
    258c:	787d      	ldrb	r5, [r7, #1]
        rx_fifo.packet[rx_fifo.write_index].rssi = NRF_RADIO->RSSISAMPLE;
    258e:	58e2      	ldr	r2, [r4, r3]
    2590:	5981      	ldr	r1, [r0, r6]
    2592:	b252      	sxtb	r2, r2
    2594:	020b      	lsls	r3, r1, #8
    2596:	185b      	adds	r3, r3, r1
    2598:	18c3      	adds	r3, r0, r3
    259a:	705a      	strb	r2, [r3, #1]
        rx_fifo.packet[rx_fifo.write_index].length = copy_lenght;
    259c:	5982      	ldr	r2, [r0, r6]
        uint8_t copy_lenght = length+2; //+2 because we copy it with header
    259e:	3502      	adds	r5, #2
        rx_fifo.packet[rx_fifo.write_index].length = copy_lenght;
    25a0:	0213      	lsls	r3, r2, #8
        uint8_t copy_lenght = length+2; //+2 because we copy it with header
    25a2:	b2ed      	uxtb	r5, r5
        rx_fifo.packet[rx_fifo.write_index].length = copy_lenght;
    25a4:	189b      	adds	r3, r3, r2
    25a6:	54c5      	strb	r5, [r0, r3]
        for(int index=0; index < copy_lenght; index++)
    25a8:	2d00      	cmp	r5, #0
    25aa:	d00b      	beq.n	25c4 <RADIO_IRQHandler+0xe0>
    25ac:	2200      	movs	r2, #0
            rx_fifo.packet[rx_fifo.write_index].data[index] = rx_pdu_buffer[index];
    25ae:	5984      	ldr	r4, [r0, r6]
    25b0:	5cb9      	ldrb	r1, [r7, r2]
    25b2:	0223      	lsls	r3, r4, #8
    25b4:	191b      	adds	r3, r3, r4
    25b6:	18c3      	adds	r3, r0, r3
    25b8:	189b      	adds	r3, r3, r2
    25ba:	b2c9      	uxtb	r1, r1
        for(int index=0; index < copy_lenght; index++)
    25bc:	3201      	adds	r2, #1
            rx_fifo.packet[rx_fifo.write_index].data[index] = rx_pdu_buffer[index];
    25be:	7099      	strb	r1, [r3, #2]
        for(int index=0; index < copy_lenght; index++)
    25c0:	42aa      	cmp	r2, r5
    25c2:	dbf4      	blt.n	25ae <RADIO_IRQHandler+0xca>
        rx_fifo.write_index++;
    25c4:	4b0e      	ldr	r3, [pc, #56]	; (2600 <RADIO_IRQHandler+0x11c>)
    25c6:	58c2      	ldr	r2, [r0, r3]
    25c8:	3201      	adds	r2, #1
    25ca:	50c2      	str	r2, [r0, r3]
        if(rx_fifo.write_index >= 10)
    25cc:	58c2      	ldr	r2, [r0, r3]
    25ce:	2a09      	cmp	r2, #9
    25d0:	d901      	bls.n	25d6 <RADIO_IRQHandler+0xf2>
           rx_fifo.write_index = 0; 
    25d2:	2200      	movs	r2, #0
    25d4:	50c2      	str	r2, [r0, r3]
        rx_fifo.count++;
    25d6:	4a09      	ldr	r2, [pc, #36]	; (25fc <RADIO_IRQHandler+0x118>)
    25d8:	5883      	ldr	r3, [r0, r2]
    25da:	3301      	adds	r3, #1
    25dc:	5083      	str	r3, [r0, r2]
        NRF_RADIO->TASKS_START  = 1;
    25de:	2201      	movs	r2, #1
    25e0:	4b01      	ldr	r3, [pc, #4]	; (25e8 <RADIO_IRQHandler+0x104>)
    25e2:	609a      	str	r2, [r3, #8]
    25e4:	e797      	b.n	2516 <RADIO_IRQHandler+0x32>
    25e6:	46c0      	nop			; (mov r8, r8)
    25e8:	40001000 	.word	0x40001000
    25ec:	00008f68 	.word	0x00008f68
    25f0:	00008f6c 	.word	0x00008f6c
    25f4:	00008f70 	.word	0x00008f70
    25f8:	200009b0 	.word	0x200009b0
    25fc:	00000a14 	.word	0x00000a14
    2600:	00000a0c 	.word	0x00000a0c
    2604:	200013c8 	.word	0x200013c8

00002608 <add_device_name>:
    return -1;
}

uint8_t str_buffer[255];
void add_device_name(uint8_t mac[], uint8_t *name_ptr, uint8_t str_len)
{
    2608:	b5f8      	push	{r3, r4, r5, r6, r7, lr}
    260a:	4647      	mov	r7, r8
    260c:	46ce      	mov	lr, r9
    260e:	b580      	push	{r7, lr}
    if(stored_devices == 0) return -1;
    2610:	4b16      	ldr	r3, [pc, #88]	; (266c <add_device_name+0x64>)
{
    2612:	0006      	movs	r6, r0
    if(stored_devices == 0) return -1;
    2614:	781f      	ldrb	r7, [r3, #0]
{
    2616:	4689      	mov	r9, r1
    2618:	4690      	mov	r8, r2
    if(stored_devices == 0) return -1;
    261a:	2f00      	cmp	r7, #0
    261c:	d020      	beq.n	2660 <add_device_name+0x58>
    for(int index = 0 ; index < stored_devices; index++)
    261e:	2400      	movs	r4, #0
    2620:	4d13      	ldr	r5, [pc, #76]	; (2670 <add_device_name+0x68>)
    2622:	e003      	b.n	262c <add_device_name+0x24>
    2624:	3401      	adds	r4, #1
    2626:	3506      	adds	r5, #6
    2628:	42bc      	cmp	r4, r7
    262a:	da19      	bge.n	2660 <add_device_name+0x58>
        if(memcmp(device_mac[index], mac, 6) == 0)
    262c:	2206      	movs	r2, #6
    262e:	0031      	movs	r1, r6
    2630:	0028      	movs	r0, r5
    2632:	f000 fa6f 	bl	2b14 <memcmp>
    2636:	2800      	cmp	r0, #0
    2638:	d1f4      	bne.n	2624 <add_device_name+0x1c>
            return index;
    263a:	b263      	sxtb	r3, r4
    int8_t device_index = find_device_by_mac(mac);
    if(device_index < 0 ) return;
    263c:	0622      	lsls	r2, r4, #24
    263e:	d40f      	bmi.n	2660 <add_device_name+0x58>
    if((str_len+1)>NAME_BUFFFER_LEN)
    2640:	4642      	mov	r2, r8
    2642:	4645      	mov	r5, r8
    2644:	2a64      	cmp	r2, #100	; 0x64
    2646:	d80f      	bhi.n	2668 <add_device_name+0x60>
    {
        str_len = NAME_BUFFFER_LEN;
    }
    memcpy(device_name[device_index], name_ptr, str_len);
    2648:	2464      	movs	r4, #100	; 0x64
    264a:	435c      	muls	r4, r3
    264c:	4b09      	ldr	r3, [pc, #36]	; (2674 <add_device_name+0x6c>)
    264e:	b2ed      	uxtb	r5, r5
    2650:	18e4      	adds	r4, r4, r3
    2652:	002a      	movs	r2, r5
    2654:	4649      	mov	r1, r9
    2656:	0020      	movs	r0, r4
    2658:	f000 fa80 	bl	2b5c <memcpy>
    device_name[device_index
    ][str_len] = 0; //Add string end
    265c:	2300      	movs	r3, #0
    265e:	5563      	strb	r3, [r4, r5]

}
    2660:	bcc0      	pop	{r6, r7}
    2662:	46b9      	mov	r9, r7
    2664:	46b0      	mov	r8, r6
    2666:	bdf8      	pop	{r3, r4, r5, r6, r7, pc}
    2668:	2564      	movs	r5, #100	; 0x64
    266a:	e7ed      	b.n	2648 <add_device_name+0x40>
    266c:	20001dc4 	.word	0x20001dc4
    2670:	20001518 	.word	0x20001518
    2674:	20001590 	.word	0x20001590

00002678 <update_device>:

void update_device(uint8_t mac[], uint8_t rssi)
{
    2678:	b5f0      	push	{r4, r5, r6, r7, lr}
    267a:	46de      	mov	lr, fp
    267c:	464e      	mov	r6, r9
    267e:	4657      	mov	r7, sl
    2680:	4645      	mov	r5, r8
    2682:	b5e0      	push	{r5, r6, r7, lr}
    2684:	b083      	sub	sp, #12
    2686:	0007      	movs	r7, r0
    2688:	4689      	mov	r9, r1
    uint32_t reception_time = timer_get_time();
    268a:	f000 f9c7 	bl	2a1c <timer_get_time>
    if(stored_devices == 0) return -1;
    268e:	4b27      	ldr	r3, [pc, #156]	; (272c <update_device+0xb4>)
    uint32_t reception_time = timer_get_time();
    2690:	4680      	mov	r8, r0
    if(stored_devices == 0) return -1;
    2692:	781e      	ldrb	r6, [r3, #0]
    2694:	469b      	mov	fp, r3
    2696:	2e00      	cmp	r6, #0
    2698:	d043      	beq.n	2722 <update_device+0xaa>
    for(int index = 0 ; index < stored_devices; index++)
    269a:	4b25      	ldr	r3, [pc, #148]	; (2730 <update_device+0xb8>)
    269c:	2400      	movs	r4, #0
    269e:	469a      	mov	sl, r3
    26a0:	001d      	movs	r5, r3
    26a2:	9601      	str	r6, [sp, #4]
    26a4:	e003      	b.n	26ae <update_device+0x36>
    26a6:	3401      	adds	r4, #1
    26a8:	3506      	adds	r5, #6
    26aa:	42b4      	cmp	r4, r6
    26ac:	da1a      	bge.n	26e4 <update_device+0x6c>
        if(memcmp(device_mac[index], mac, 6) == 0)
    26ae:	2206      	movs	r2, #6
    26b0:	0039      	movs	r1, r7
    26b2:	0028      	movs	r0, r5
    26b4:	f000 fa2e 	bl	2b14 <memcmp>
    26b8:	2800      	cmp	r0, #0
    26ba:	d1f4      	bne.n	26a6 <update_device+0x2e>
            return index;
    26bc:	b265      	sxtb	r5, r4
    // printf("\n\rUpdate MAC: %02x:%02x:%02x:%02x:%02x:%02x", mac[5], mac[4], mac[3], mac[2], mac[1], mac[0]);
    int8_t device_index = find_device_by_mac(mac);
    if(device_index < 0)
    26be:	0623      	lsls	r3, r4, #24
    26c0:	d410      	bmi.n	26e4 <update_device+0x6c>
        device_index = stored_devices;
        memcpy(device_mac[device_index], mac, 6);
        memcpy(device_name[stored_devices], "NA", 3);
        stored_devices++;
    }
    device_rssi[device_index] = rssi;
    26c2:	464a      	mov	r2, r9
    26c4:	4b1b      	ldr	r3, [pc, #108]	; (2734 <update_device+0xbc>)
    26c6:	555a      	strb	r2, [r3, r5]
    device_previous_reception_time[device_index] = device_last_reception_time[device_index];
    26c8:	4b1b      	ldr	r3, [pc, #108]	; (2738 <update_device+0xc0>)
    26ca:	00ad      	lsls	r5, r5, #2
    26cc:	4a1b      	ldr	r2, [pc, #108]	; (273c <update_device+0xc4>)
    26ce:	58e9      	ldr	r1, [r5, r3]
    26d0:	50a9      	str	r1, [r5, r2]
    device_last_reception_time[device_index] = reception_time;
    26d2:	4642      	mov	r2, r8
    26d4:	50ea      	str	r2, [r5, r3]

}
    26d6:	b003      	add	sp, #12
    26d8:	bcf0      	pop	{r4, r5, r6, r7}
    26da:	46bb      	mov	fp, r7
    26dc:	46b2      	mov	sl, r6
    26de:	46a9      	mov	r9, r5
    26e0:	46a0      	mov	r8, r4
    26e2:	bdf0      	pop	{r4, r5, r6, r7, pc}
        if(stored_devices >= DEVICE_BUFFER_LEN) 
    26e4:	2e13      	cmp	r6, #19
    26e6:	d817      	bhi.n	2718 <update_device+0xa0>
        memcpy(device_mac[device_index], mac, 6);
    26e8:	9c01      	ldr	r4, [sp, #4]
    26ea:	2206      	movs	r2, #6
    26ec:	46a4      	mov	ip, r4
    26ee:	0060      	lsls	r0, r4, #1
    26f0:	4460      	add	r0, ip
    26f2:	0040      	lsls	r0, r0, #1
    26f4:	0039      	movs	r1, r7
    26f6:	4450      	add	r0, sl
    26f8:	f000 fa30 	bl	2b5c <memcpy>
        memcpy(device_name[stored_devices], "NA", 3);
    26fc:	2364      	movs	r3, #100	; 0x64
    26fe:	4363      	muls	r3, r4
    2700:	4a0f      	ldr	r2, [pc, #60]	; (2740 <update_device+0xc8>)
        device_index = stored_devices;
    2702:	b275      	sxtb	r5, r6
        memcpy(device_name[stored_devices], "NA", 3);
    2704:	189b      	adds	r3, r3, r2
    2706:	4a0f      	ldr	r2, [pc, #60]	; (2744 <update_device+0xcc>)
        stored_devices++;
    2708:	3601      	adds	r6, #1
        memcpy(device_name[stored_devices], "NA", 3);
    270a:	8811      	ldrh	r1, [r2, #0]
    270c:	8019      	strh	r1, [r3, #0]
    270e:	7892      	ldrb	r2, [r2, #2]
    2710:	709a      	strb	r2, [r3, #2]
        stored_devices++;
    2712:	465b      	mov	r3, fp
    2714:	701e      	strb	r6, [r3, #0]
    2716:	e7d4      	b.n	26c2 <update_device+0x4a>
            printf("\n\rbuffer full%d), new device not added", DEVICE_BUFFER_LEN);
    2718:	2114      	movs	r1, #20
    271a:	480b      	ldr	r0, [pc, #44]	; (2748 <update_device+0xd0>)
    271c:	f000 fac4 	bl	2ca8 <printf>
            return;
    2720:	e7d9      	b.n	26d6 <update_device+0x5e>
    2722:	2300      	movs	r3, #0
    2724:	9301      	str	r3, [sp, #4]
    2726:	4b02      	ldr	r3, [pc, #8]	; (2730 <update_device+0xb8>)
    2728:	469a      	mov	sl, r3
    272a:	e7dd      	b.n	26e8 <update_device+0x70>
    272c:	20001dc4 	.word	0x20001dc4
    2730:	20001518 	.word	0x20001518
    2734:	20001db0 	.word	0x20001db0
    2738:	200014c8 	.word	0x200014c8
    273c:	20001d60 	.word	0x20001d60
    2740:	20001590 	.word	0x20001590
    2744:	00008ee8 	.word	0x00008ee8
    2748:	00008ec0 	.word	0x00008ec0

0000274c <print_detected_devices>:


void print_detected_devices(void)
{
    274c:	b5f0      	push	{r4, r5, r6, r7, lr}
    274e:	46de      	mov	lr, fp
    2750:	4657      	mov	r7, sl
    2752:	464e      	mov	r6, r9
    2754:	4645      	mov	r5, r8
    2756:	b5e0      	push	{r5, r6, r7, lr}
    if(stored_devices == 0) return;
    2758:	4b25      	ldr	r3, [pc, #148]	; (27f0 <print_detected_devices+0xa4>)
{
    275a:	b085      	sub	sp, #20
    if(stored_devices == 0) return;
    275c:	781b      	ldrb	r3, [r3, #0]
    275e:	2b00      	cmp	r3, #0
    2760:	d106      	bne.n	2770 <print_detected_devices+0x24>
        uint32_t time_diff = last - previous;
        printf(" frame diff: %ldms", time_diff);
        uint32_t diff_now = timer_get_time()-last;
        printf(" Not received since: %ldms", diff_now);
    }
    2762:	b005      	add	sp, #20
    2764:	bcf0      	pop	{r4, r5, r6, r7}
    2766:	46bb      	mov	fp, r7
    2768:	46b2      	mov	sl, r6
    276a:	46a9      	mov	r9, r5
    276c:	46a0      	mov	r8, r4
    276e:	bdf0      	pop	{r4, r5, r6, r7, pc}
    printf("\033[2J"); //VT100 clear screen
    2770:	4820      	ldr	r0, [pc, #128]	; (27f4 <print_detected_devices+0xa8>)
    2772:	f000 fa99 	bl	2ca8 <printf>
    for (int index = 0; index < stored_devices; index++)
    2776:	4b1e      	ldr	r3, [pc, #120]	; (27f0 <print_detected_devices+0xa4>)
    2778:	781b      	ldrb	r3, [r3, #0]
    277a:	2b00      	cmp	r3, #0
    277c:	d0f1      	beq.n	2762 <print_detected_devices+0x16>
    277e:	4b1e      	ldr	r3, [pc, #120]	; (27f8 <print_detected_devices+0xac>)
    2780:	2500      	movs	r5, #0
    2782:	4699      	mov	r9, r3
    2784:	4b1d      	ldr	r3, [pc, #116]	; (27fc <print_detected_devices+0xb0>)
    2786:	4c1e      	ldr	r4, [pc, #120]	; (2800 <print_detected_devices+0xb4>)
    2788:	4698      	mov	r8, r3
    278a:	4b1e      	ldr	r3, [pc, #120]	; (2804 <print_detected_devices+0xb8>)
    278c:	4647      	mov	r7, r8
    278e:	469b      	mov	fp, r3
    2790:	4b1d      	ldr	r3, [pc, #116]	; (2808 <print_detected_devices+0xbc>)
    2792:	4e1e      	ldr	r6, [pc, #120]	; (280c <print_detected_devices+0xc0>)
    2794:	469a      	mov	sl, r3
        printf("\n\rMAC: %02x:%02x:%02x:%02x:%02x:%02x", mac[5], mac[4], mac[3], mac[2], mac[1], mac[0]);
    2796:	7820      	ldrb	r0, [r4, #0]
    2798:	7922      	ldrb	r2, [r4, #4]
    279a:	78e3      	ldrb	r3, [r4, #3]
    279c:	7961      	ldrb	r1, [r4, #5]
    279e:	9002      	str	r0, [sp, #8]
    27a0:	7860      	ldrb	r0, [r4, #1]
    27a2:	9001      	str	r0, [sp, #4]
    27a4:	78a0      	ldrb	r0, [r4, #2]
    for (int index = 0; index < stored_devices; index++)
    27a6:	3406      	adds	r4, #6
        printf("\n\rMAC: %02x:%02x:%02x:%02x:%02x:%02x", mac[5], mac[4], mac[3], mac[2], mac[1], mac[0]);
    27a8:	9000      	str	r0, [sp, #0]
    27aa:	4658      	mov	r0, fp
    27ac:	f000 fa7c 	bl	2ca8 <printf>
        printf(" Name: %s", device_name[index]);
    27b0:	0031      	movs	r1, r6
    27b2:	4650      	mov	r0, sl
    27b4:	f000 fa78 	bl	2ca8 <printf>
        printf(" Rssi: -%ddBm", device_rssi[index]);
    27b8:	4b15      	ldr	r3, [pc, #84]	; (2810 <print_detected_devices+0xc4>)
    27ba:	4816      	ldr	r0, [pc, #88]	; (2814 <print_detected_devices+0xc8>)
    27bc:	5d59      	ldrb	r1, [r3, r5]
    27be:	f000 fa73 	bl	2ca8 <printf>
        uint32_t last = device_last_reception_time[index];
    27c2:	464b      	mov	r3, r9
    27c4:	cb04      	ldmia	r3!, {r2}
        uint32_t time_diff = last - previous;
    27c6:	cf02      	ldmia	r7!, {r1}
        uint32_t last = device_last_reception_time[index];
    27c8:	4690      	mov	r8, r2
        uint32_t time_diff = last - previous;
    27ca:	1a51      	subs	r1, r2, r1
        printf(" frame diff: %ldms", time_diff);
    27cc:	4812      	ldr	r0, [pc, #72]	; (2818 <print_detected_devices+0xcc>)
        uint32_t last = device_last_reception_time[index];
    27ce:	4699      	mov	r9, r3
        printf(" frame diff: %ldms", time_diff);
    27d0:	f000 fa6a 	bl	2ca8 <printf>
        uint32_t diff_now = timer_get_time()-last;
    27d4:	f000 f922 	bl	2a1c <timer_get_time>
    27d8:	4643      	mov	r3, r8
    27da:	1ac1      	subs	r1, r0, r3
        printf(" Not received since: %ldms", diff_now);
    27dc:	480f      	ldr	r0, [pc, #60]	; (281c <print_detected_devices+0xd0>)
    27de:	f000 fa63 	bl	2ca8 <printf>
    for (int index = 0; index < stored_devices; index++)
    27e2:	4b03      	ldr	r3, [pc, #12]	; (27f0 <print_detected_devices+0xa4>)
    27e4:	3501      	adds	r5, #1
    27e6:	781b      	ldrb	r3, [r3, #0]
    27e8:	3664      	adds	r6, #100	; 0x64
    27ea:	42ab      	cmp	r3, r5
    27ec:	dcd3      	bgt.n	2796 <print_detected_devices+0x4a>
    27ee:	e7b8      	b.n	2762 <print_detected_devices+0x16>
    27f0:	20001dc4 	.word	0x20001dc4
    27f4:	00008eec 	.word	0x00008eec
    27f8:	200014c8 	.word	0x200014c8
    27fc:	20001d60 	.word	0x20001d60
    2800:	20001518 	.word	0x20001518
    2804:	00008ef4 	.word	0x00008ef4
    2808:	00008f1c 	.word	0x00008f1c
    280c:	20001590 	.word	0x20001590
    2810:	20001db0 	.word	0x20001db0
    2814:	00008f28 	.word	0x00008f28
    2818:	00008f38 	.word	0x00008f38
    281c:	00008f4c 	.word	0x00008f4c

00002820 <led_toogle>:

void led_toogle(uint32_t pin_number)
{
    uint32_t pins_state = NRF_GPIO->OUT;

    NRF_GPIO->OUTSET = (~pins_state & (1UL << pin_number));
    2820:	2201      	movs	r2, #1
    2822:	4082      	lsls	r2, r0
    uint32_t pins_state = NRF_GPIO->OUT;
    2824:	21a0      	movs	r1, #160	; 0xa0
{
    2826:	b510      	push	{r4, lr}
    NRF_GPIO->OUTSET = (~pins_state & (1UL << pin_number));
    2828:	0014      	movs	r4, r2
    282a:	20a1      	movs	r0, #161	; 0xa1
    uint32_t pins_state = NRF_GPIO->OUT;
    282c:	4b04      	ldr	r3, [pc, #16]	; (2840 <led_toogle+0x20>)
    282e:	05c9      	lsls	r1, r1, #23
    2830:	58cb      	ldr	r3, [r1, r3]
    NRF_GPIO->OUTSET = (~pins_state & (1UL << pin_number));
    2832:	00c0      	lsls	r0, r0, #3
    2834:	439c      	bics	r4, r3
    NRF_GPIO->OUTCLR = (pins_state & (1UL << pin_number));
    2836:	4013      	ands	r3, r2
    2838:	4a02      	ldr	r2, [pc, #8]	; (2844 <led_toogle+0x24>)
    NRF_GPIO->OUTSET = (~pins_state & (1UL << pin_number));
    283a:	500c      	str	r4, [r1, r0]
    NRF_GPIO->OUTCLR = (pins_state & (1UL << pin_number));
    283c:	508b      	str	r3, [r1, r2]
}
    283e:	bd10      	pop	{r4, pc}
    2840:	00000504 	.word	0x00000504
    2844:	0000050c 	.word	0x0000050c

00002848 <led_init>:

static void pin_init(uint32_t pin)
{
    NRF_GPIO->PIN_CNF[pin] = ((uint32_t)GPIO_PIN_CNF_DIR_Output << GPIO_PIN_CNF_DIR_Pos)
    2848:	23a0      	movs	r3, #160	; 0xa0
    284a:	21e9      	movs	r1, #233	; 0xe9
    284c:	2203      	movs	r2, #3
    284e:	05db      	lsls	r3, r3, #23
    2850:	00c9      	lsls	r1, r1, #3
    2852:	505a      	str	r2, [r3, r1]
    2854:	4909      	ldr	r1, [pc, #36]	; (287c <led_init+0x34>)
    2856:	505a      	str	r2, [r3, r1]
    2858:	3924      	subs	r1, #36	; 0x24
    285a:	505a      	str	r2, [r3, r1]
    285c:	3158      	adds	r1, #88	; 0x58
    285e:	505a      	str	r2, [r3, r1]
{
    pin_init(LED1);
    pin_init(LED2);
    pin_init(LED3);
    pin_init(LED4);
    NRF_GPIO->OUTSET = 1UL << LED1;
    2860:	22a1      	movs	r2, #161	; 0xa1
    2862:	2180      	movs	r1, #128	; 0x80
    2864:	00d2      	lsls	r2, r2, #3
    2866:	02c9      	lsls	r1, r1, #11
    2868:	5099      	str	r1, [r3, r2]
    NRF_GPIO->OUTSET = 1UL << LED2;
    286a:	2180      	movs	r1, #128	; 0x80
    286c:	0089      	lsls	r1, r1, #2
    286e:	5099      	str	r1, [r3, r2]
    NRF_GPIO->OUTSET = 1UL << LED3;
    2870:	2101      	movs	r1, #1
    2872:	5099      	str	r1, [r3, r2]
    NRF_GPIO->OUTSET = 1UL << LED4;
    2874:	2180      	movs	r1, #128	; 0x80
    2876:	03c9      	lsls	r1, r1, #15
    2878:	5099      	str	r1, [r3, r2]
    287a:	4770      	bx	lr
    287c:	00000724 	.word	0x00000724

00002880 <main>:
#include "device_store.h"

void clocks_start( void )
{
	//Start external 16MHz crystal
    NRF_CLOCK->EVENTS_HFCLKSTARTED = 0;
    2880:	2280      	movs	r2, #128	; 0x80
    2882:	2180      	movs	r1, #128	; 0x80
		NVIC_EnableIRQ(RADIO_IRQn);
	}
}

int main()
{
    2884:	b5f8      	push	{r3, r4, r5, r6, r7, lr}
    NRF_CLOCK->EVENTS_HFCLKSTARTED = 0;
    2886:	2300      	movs	r3, #0
{
    2888:	46ce      	mov	lr, r9
    288a:	4647      	mov	r7, r8
    NRF_CLOCK->EVENTS_HFCLKSTARTED = 0;
    288c:	05d2      	lsls	r2, r2, #23
    288e:	0049      	lsls	r1, r1, #1
{
    2890:	b580      	push	{r7, lr}
    NRF_CLOCK->EVENTS_HFCLKSTARTED = 0;
    2892:	5053      	str	r3, [r2, r1]
    NRF_CLOCK->TASKS_HFCLKSTART = 1;
    2894:	3301      	adds	r3, #1
    2896:	6013      	str	r3, [r2, #0]
    while (NRF_CLOCK->EVENTS_HFCLKSTARTED == 0);
    2898:	5853      	ldr	r3, [r2, r1]
    289a:	2b00      	cmp	r3, #0
    289c:	d0fc      	beq.n	2898 <main+0x18>
	clocks_start();
    timer_init();
    289e:	f000 f8c3 	bl	2a28 <timer_init>
	led_init();
    28a2:	f7ff ffd1 	bl	2848 <led_init>
	uart_init();
    28a6:	f000 f8fb 	bl	2aa0 <uart_init>
	printf("\n\rHello ble single channel adv scanner with detected devices prints");
    28aa:	4822      	ldr	r0, [pc, #136]	; (2934 <main+0xb4>)
    28ac:	f000 f9fc 	bl	2ca8 <printf>
	uint8_t channel = 37;
	ble_init(channel);
    28b0:	2025      	movs	r0, #37	; 0x25
    28b2:	f7ff fd39 	bl	2328 <ble_init>
	ble_start_rx(channel);
    28b6:	2025      	movs	r0, #37	; 0x25
    28b8:	f7ff fdaa 	bl	2410 <ble_start_rx>

	uint32_t last_print = timer_get_time();
    28bc:	f000 f8ae 	bl	2a1c <timer_get_time>
		volatile uint8_t *data = rx_fifo.packet[rx_fifo.read_index].data;
    28c0:	26a1      	movs	r6, #161	; 0xa1
	uint32_t last_print = timer_get_time();
    28c2:	0005      	movs	r5, r0
    28c4:	4c1c      	ldr	r4, [pc, #112]	; (2938 <main+0xb8>)
	if(rx_fifo.count >0)
    28c6:	4f1d      	ldr	r7, [pc, #116]	; (293c <main+0xbc>)
		volatile uint8_t *data = rx_fifo.packet[rx_fifo.read_index].data;
    28c8:	0136      	lsls	r6, r6, #4
  NVIC->ICER[0U] = (uint32_t)(1UL << (((uint32_t)(int32_t)IRQn) & 0x1FUL));
    28ca:	4b1d      	ldr	r3, [pc, #116]	; (2940 <main+0xc0>)
    28cc:	4698      	mov	r8, r3
	if(rx_fifo.count >0)
    28ce:	59e3      	ldr	r3, [r4, r7]
    28d0:	2b00      	cmp	r3, #0
    28d2:	d10c      	bne.n	28ee <main+0x6e>

	while(1)
	{
		process_rx_fifo();
		if((timer_get_time() - last_print) > 1000) //execute every 1s
    28d4:	f000 f8a2 	bl	2a1c <timer_get_time>
    28d8:	22fa      	movs	r2, #250	; 0xfa
    28da:	1b40      	subs	r0, r0, r5
    28dc:	0092      	lsls	r2, r2, #2
    28de:	4290      	cmp	r0, r2
    28e0:	d9f5      	bls.n	28ce <main+0x4e>
		{
			last_print = timer_get_time();
    28e2:	f000 f89b 	bl	2a1c <timer_get_time>
    28e6:	0005      	movs	r5, r0
			print_detected_devices();
    28e8:	f7ff ff30 	bl	274c <print_detected_devices>
    28ec:	e7ed      	b.n	28ca <main+0x4a>
		volatile uint8_t *data = rx_fifo.packet[rx_fifo.read_index].data;
    28ee:	59a2      	ldr	r2, [r4, r6]
		int8_t  rssi = rx_fifo.packet[rx_fifo.read_index].rssi;
    28f0:	59a1      	ldr	r1, [r4, r6]
		volatile uint8_t *data = rx_fifo.packet[rx_fifo.read_index].data;
    28f2:	0210      	lsls	r0, r2, #8
		int8_t  rssi = rx_fifo.packet[rx_fifo.read_index].rssi;
    28f4:	020b      	lsls	r3, r1, #8
    28f6:	185b      	adds	r3, r3, r1
    28f8:	18e3      	adds	r3, r4, r3
    28fa:	785b      	ldrb	r3, [r3, #1]
		volatile uint8_t *data = rx_fifo.packet[rx_fifo.read_index].data;
    28fc:	1880      	adds	r0, r0, r2
		int8_t  rssi = rx_fifo.packet[rx_fifo.read_index].rssi;
    28fe:	b25b      	sxtb	r3, r3
    2900:	4699      	mov	r9, r3
		volatile uint8_t *data = rx_fifo.packet[rx_fifo.read_index].data;
    2902:	3002      	adds	r0, #2
    2904:	1820      	adds	r0, r4, r0
		init_pdu_buffer_pointer((uint8_t *)data);
    2906:	f7ff fc8b 	bl	2220 <init_pdu_buffer_pointer>
		show_pdu_data(rssi);
    290a:	4648      	mov	r0, r9
    290c:	f7ff fc8e 	bl	222c <show_pdu_data>
		rx_fifo.read_index++;
    2910:	59a3      	ldr	r3, [r4, r6]
    2912:	3301      	adds	r3, #1
    2914:	51a3      	str	r3, [r4, r6]
		if(rx_fifo.read_index >= 10)
    2916:	59a3      	ldr	r3, [r4, r6]
    2918:	2b09      	cmp	r3, #9
    291a:	d901      	bls.n	2920 <main+0xa0>
			rx_fifo.read_index = 0;
    291c:	2300      	movs	r3, #0
    291e:	51a3      	str	r3, [r4, r6]
    2920:	2202      	movs	r2, #2
    2922:	2380      	movs	r3, #128	; 0x80
    2924:	4641      	mov	r1, r8
    2926:	50ca      	str	r2, [r1, r3]
		rx_fifo.count--;
    2928:	59e3      	ldr	r3, [r4, r7]
    292a:	3b01      	subs	r3, #1
    292c:	51e3      	str	r3, [r4, r7]
  NVIC->ISER[0U] = (uint32_t)(1UL << (((uint32_t)(int32_t)IRQn) & 0x1FUL));
    292e:	600a      	str	r2, [r1, #0]
}
    2930:	e7d0      	b.n	28d4 <main+0x54>
    2932:	46c0      	nop			; (mov r8, r8)
    2934:	00008f74 	.word	0x00008f74
    2938:	200009b0 	.word	0x200009b0
    293c:	00000a14 	.word	0x00000a14
    2940:	e000e100 	.word	0xe000e100

00002944 <Default_Handler>:
	}
}

void Default_Handler(void)
{
	while(1);
    2944:	e7fe      	b.n	2944 <Default_Handler>
    2946:	46c0      	nop			; (mov r8, r8)

00002948 <ADC_IRQHandler>:

int main(void);


static void Default_Handler(void) {
  for (;;);
    2948:	e7fe      	b.n	2948 <ADC_IRQHandler>
    294a:	46c0      	nop			; (mov r8, r8)

0000294c <Reset_Handler>:
}

static void Reset_Handler(void) {
  unsigned long *src, *dst;

  for (dst = &_sdata, src = &_sidata; dst < &_edata; ++dst, ++src)
    294c:	480d      	ldr	r0, [pc, #52]	; (2984 <Reset_Handler+0x38>)
    294e:	4b0e      	ldr	r3, [pc, #56]	; (2988 <Reset_Handler+0x3c>)
static void Reset_Handler(void) {
    2950:	b510      	push	{r4, lr}
  for (dst = &_sdata, src = &_sidata; dst < &_edata; ++dst, ++src)
    2952:	4298      	cmp	r0, r3
    2954:	d207      	bcs.n	2966 <Reset_Handler+0x1a>
    *dst = *src;
    2956:	3b01      	subs	r3, #1
    2958:	1a1a      	subs	r2, r3, r0
    295a:	0892      	lsrs	r2, r2, #2
    295c:	3201      	adds	r2, #1
    295e:	490b      	ldr	r1, [pc, #44]	; (298c <Reset_Handler+0x40>)
    2960:	0092      	lsls	r2, r2, #2
    2962:	f000 f8fb 	bl	2b5c <memcpy>
 
  for (dst = &_sbss; dst < &_ebss; ++dst)
    2966:	480a      	ldr	r0, [pc, #40]	; (2990 <Reset_Handler+0x44>)
    2968:	4b0a      	ldr	r3, [pc, #40]	; (2994 <Reset_Handler+0x48>)
    296a:	4298      	cmp	r0, r3
    296c:	d207      	bcs.n	297e <Reset_Handler+0x32>
    *dst = 0;
    296e:	3b01      	subs	r3, #1
    2970:	1a1a      	subs	r2, r3, r0
    2972:	0892      	lsrs	r2, r2, #2
    2974:	3201      	adds	r2, #1
    2976:	2100      	movs	r1, #0
    2978:	0092      	lsls	r2, r2, #2
    297a:	f000 f941 	bl	2c00 <memset>
  main();
    297e:	f7ff ff7f 	bl	2880 <main>
  for (;;);
    2982:	e7fe      	b.n	2982 <Reset_Handler+0x36>
    2984:	20000000 	.word	0x20000000
    2988:	200009ac 	.word	0x200009ac
    298c:	0000968c 	.word	0x0000968c
    2990:	200009ac 	.word	0x200009ac
    2994:	20002614 	.word	0x20002614

00002998 <_write>:
// https://www.embecosm.com/appnotes/ean9/ean9-howto-newlib-1.0.html#id2719973
int
_write (int   file,
        char *buf,
        int   nbytes)
{
    2998:	b570      	push	{r4, r5, r6, lr}
    299a:	1e16      	subs	r6, r2, #0
  int i;

  /* Output character at at time */
  for (i = 0; i < nbytes; i++)
    299c:	dd07      	ble.n	29ae <_write+0x16>
    299e:	000c      	movs	r4, r1
    29a0:	188d      	adds	r5, r1, r2
    {
      uart_put (buf[i]);
    29a2:	7820      	ldrb	r0, [r4, #0]
  for (i = 0; i < nbytes; i++)
    29a4:	3401      	adds	r4, #1
      uart_put (buf[i]);
    29a6:	f000 f8a5 	bl	2af4 <uart_put>
  for (i = 0; i < nbytes; i++)
    29aa:	42ac      	cmp	r4, r5
    29ac:	d1f9      	bne.n	29a2 <_write+0xa>
    }
        
  return nbytes;

} 
    29ae:	0030      	movs	r0, r6
    29b0:	bd70      	pop	{r4, r5, r6, pc}
    29b2:	46c0      	nop			; (mov r8, r8)

000029b4 <_sbrk>:
void *
_sbrk (int nbytes)
{
  static uint8_t heap[2048];
  static uint16_t last = 0;
  if(last+nbytes < 1024)
    29b4:	4906      	ldr	r1, [pc, #24]	; (29d0 <_sbrk+0x1c>)
    29b6:	880b      	ldrh	r3, [r1, #0]
    29b8:	181a      	adds	r2, r3, r0
    29ba:	2080      	movs	r0, #128	; 0x80
    29bc:	00c0      	lsls	r0, r0, #3
    29be:	4282      	cmp	r2, r0
    29c0:	da03      	bge.n	29ca <_sbrk+0x16>
  {
    void* pointer = &heap[last];
    29c2:	4804      	ldr	r0, [pc, #16]	; (29d4 <_sbrk+0x20>)
    last+=nbytes;
    29c4:	800a      	strh	r2, [r1, #0]
    void* pointer = &heap[last];
    29c6:	1818      	adds	r0, r3, r0
  }
  else
  {
    return  (void *) -1;
  }
}
    29c8:	4770      	bx	lr
    return  (void *) -1;
    29ca:	2001      	movs	r0, #1
    29cc:	4240      	negs	r0, r0
    29ce:	e7fb      	b.n	29c8 <_sbrk+0x14>
    29d0:	200025c8 	.word	0x200025c8
    29d4:	20001dc8 	.word	0x20001dc8

000029d8 <_close>:

int
_close (int   file)
{
  errno = EBADF;
    29d8:	2209      	movs	r2, #9
  
  return -1;                    /* Always fails */
    29da:	2001      	movs	r0, #1
  errno = EBADF;
    29dc:	4b01      	ldr	r3, [pc, #4]	; (29e4 <_close+0xc>)
}
    29de:	4240      	negs	r0, r0
  errno = EBADF;
    29e0:	601a      	str	r2, [r3, #0]
}
    29e2:	4770      	bx	lr
    29e4:	200025d0 	.word	0x200025d0

000029e8 <_lseek>:
        int   offset,
        int   whence)
{
  return  0;

} 
    29e8:	2000      	movs	r0, #0
    29ea:	4770      	bx	lr

000029ec <_read>:
       char *ptr,
       int   len)
{
  return  0;                            /* EOF */

} 
    29ec:	2000      	movs	r0, #0
    29ee:	4770      	bx	lr

000029f0 <_fstat>:

int
_fstat (int          file,
        struct stat *st)
{
  st->st_mode = S_IFCHR;
    29f0:	2380      	movs	r3, #128	; 0x80
    29f2:	019b      	lsls	r3, r3, #6
  return  0;

}
    29f4:	2000      	movs	r0, #0
  st->st_mode = S_IFCHR;
    29f6:	604b      	str	r3, [r1, #4]
}
    29f8:	4770      	bx	lr
    29fa:	46c0      	nop			; (mov r8, r8)

000029fc <_isatty>:
int
_isatty (int   file)
{
  return  1;

}
    29fc:	2001      	movs	r0, #1
    29fe:	4770      	bx	lr

00002a00 <_exit>:

void Default_Handler(void);
void 
_exit (int  rc)
{
    2a00:	b510      	push	{r4, lr}
 Default_Handler();
    2a02:	f7ff ff9f 	bl	2944 <Default_Handler>
 while(1){}
    2a06:	e7fe      	b.n	2a06 <_exit+0x6>

00002a08 <_kill>:

int
_kill (int  pid,
       int  sig)
{
  errno = EINVAL;
    2a08:	2216      	movs	r2, #22
  return -1;                    /* Always fails */
    2a0a:	2001      	movs	r0, #1
  errno = EINVAL;
    2a0c:	4b01      	ldr	r3, [pc, #4]	; (2a14 <_kill+0xc>)

} 
    2a0e:	4240      	negs	r0, r0
  errno = EINVAL;
    2a10:	601a      	str	r2, [r3, #0]
} 
    2a12:	4770      	bx	lr
    2a14:	200025d0 	.word	0x200025d0

00002a18 <_getpid>:
int
_getpid ()
{
  return  1;                            /* Success */

    2a18:	2001      	movs	r0, #1
    2a1a:	4770      	bx	lr

00002a1c <timer_get_time>:

volatile uint32_t ms_counter = 0 ;

uint32_t timer_get_time(void)
{
    return ms_counter;
    2a1c:	4b01      	ldr	r3, [pc, #4]	; (2a24 <timer_get_time+0x8>)
    2a1e:	6818      	ldr	r0, [r3, #0]
}
    2a20:	4770      	bx	lr
    2a22:	46c0      	nop			; (mov r8, r8)
    2a24:	200025cc 	.word	0x200025cc

00002a28 <timer_init>:

void timer_init(void)
{
    // Configure the system timer with a 1 MHz base frequency
    NRF_TIMER2->PRESCALER = 4;
    2a28:	22a2      	movs	r2, #162	; 0xa2
    2a2a:	2104      	movs	r1, #4
    2a2c:	4b12      	ldr	r3, [pc, #72]	; (2a78 <timer_init+0x50>)
    2a2e:	00d2      	lsls	r2, r2, #3
{
    2a30:	b530      	push	{r4, r5, lr}
    NRF_TIMER2->PRESCALER = 4;
    2a32:	5099      	str	r1, [r3, r2]
    NRF_TIMER2->BITMODE   = TIMER_BITMODE_BITMODE_16Bit;
    2a34:	2100      	movs	r1, #0
    2a36:	3a08      	subs	r2, #8
    2a38:	5099      	str	r1, [r3, r2]
    NRF_TIMER2->CC[0] = 1000; //Capture every 1ms =1khz
    2a3a:	21fa      	movs	r1, #250	; 0xfa
    2a3c:	3238      	adds	r2, #56	; 0x38
    2a3e:	0089      	lsls	r1, r1, #2
    2a40:	5099      	str	r1, [r3, r2]
	NRF_TIMER2->SHORTS    = TIMER_SHORTS_COMPARE0_CLEAR_Msk;
    2a42:	2280      	movs	r2, #128	; 0x80
    2a44:	2401      	movs	r4, #1
	NRF_TIMER2->INTENSET = TIMER_INTENSET_COMPARE0_Msk;
    2a46:	2180      	movs	r1, #128	; 0x80
    NVIC->IP[_IP_IDX(IRQn)]  = ((uint32_t)(NVIC->IP[_IP_IDX(IRQn)]  & ~(0xFFUL << _BIT_SHIFT(IRQn))) |
    2a48:	25c2      	movs	r5, #194	; 0xc2
	NRF_TIMER2->SHORTS    = TIMER_SHORTS_COMPARE0_CLEAR_Msk;
    2a4a:	0092      	lsls	r2, r2, #2
    2a4c:	509c      	str	r4, [r3, r2]
	NRF_TIMER2->INTENSET = TIMER_INTENSET_COMPARE0_Msk;
    2a4e:	3205      	adds	r2, #5
    2a50:	32ff      	adds	r2, #255	; 0xff
    2a52:	0249      	lsls	r1, r1, #9
    2a54:	5099      	str	r1, [r3, r2]
    2a56:	4a09      	ldr	r2, [pc, #36]	; (2a7c <timer_init+0x54>)
    2a58:	00ad      	lsls	r5, r5, #2
    2a5a:	5951      	ldr	r1, [r2, r5]
    2a5c:	4808      	ldr	r0, [pc, #32]	; (2a80 <timer_init+0x58>)
    2a5e:	4008      	ands	r0, r1
    2a60:	2180      	movs	r1, #128	; 0x80
    2a62:	0409      	lsls	r1, r1, #16
    2a64:	4301      	orrs	r1, r0
    2a66:	5151      	str	r1, [r2, r5]
  NVIC->ICPR[0U] = (uint32_t)(1UL << (((uint32_t)(int32_t)IRQn) & 0x1FUL));
    2a68:	20c0      	movs	r0, #192	; 0xc0
    2a6a:	2180      	movs	r1, #128	; 0x80
    2a6c:	0040      	lsls	r0, r0, #1
    2a6e:	00c9      	lsls	r1, r1, #3
    2a70:	5011      	str	r1, [r2, r0]
  NVIC->ISER[0U] = (uint32_t)(1UL << (((uint32_t)(int32_t)IRQn) & 0x1FUL));
    2a72:	6011      	str	r1, [r2, #0]
    NVIC_SetPriority(TIMER2_IRQn, 6);
	NVIC_ClearPendingIRQ(TIMER2_IRQn);
    NVIC_EnableIRQ(TIMER2_IRQn);
	NRF_TIMER2->TASKS_START = 1;
    2a74:	601c      	str	r4, [r3, #0]
}
    2a76:	bd30      	pop	{r4, r5, pc}
    2a78:	4000a000 	.word	0x4000a000
    2a7c:	e000e100 	.word	0xe000e100
    2a80:	ff00ffff 	.word	0xff00ffff

00002a84 <TIMER2_IRQHandler>:

void TIMER2_IRQHandler(void)
{
	NRF_TIMER2->EVENTS_COMPARE[0] = 0;
    2a84:	23a0      	movs	r3, #160	; 0xa0
    2a86:	2100      	movs	r1, #0
    2a88:	4a03      	ldr	r2, [pc, #12]	; (2a98 <TIMER2_IRQHandler+0x14>)
    2a8a:	005b      	lsls	r3, r3, #1
    2a8c:	50d1      	str	r1, [r2, r3]
	ms_counter++;
    2a8e:	4a03      	ldr	r2, [pc, #12]	; (2a9c <TIMER2_IRQHandler+0x18>)
    2a90:	6813      	ldr	r3, [r2, #0]
    2a92:	3301      	adds	r3, #1
    2a94:	6013      	str	r3, [r2, #0]
}
    2a96:	4770      	bx	lr
    2a98:	4000a000 	.word	0x4000a000
    2a9c:	200025cc 	.word	0x200025cc

00002aa0 <uart_init>:
#include "nrf51_bitfields.h"

void uart_init(void)
{
	const uint32_t txd_pin = 26;//P.26 TXD
	NRF_GPIO->OUTSET = (1<<txd_pin);
    2aa0:	23a0      	movs	r3, #160	; 0xa0
    2aa2:	22a1      	movs	r2, #161	; 0xa1
    2aa4:	2180      	movs	r1, #128	; 0x80
    2aa6:	05db      	lsls	r3, r3, #23
    2aa8:	00d2      	lsls	r2, r2, #3
    2aaa:	04c9      	lsls	r1, r1, #19
    2aac:	5099      	str	r1, [r3, r2]
	NRF_GPIO->PIN_CNF[txd_pin] = ((uint32_t)GPIO_PIN_CNF_DIR_Output << GPIO_PIN_CNF_DIR_Pos)
    2aae:	22ed      	movs	r2, #237	; 0xed
    2ab0:	2103      	movs	r1, #3
    2ab2:	00d2      	lsls	r2, r2, #3
    2ab4:	5099      	str	r1, [r3, r2]
						| ((uint32_t)GPIO_PIN_CNF_PULL_Disabled << GPIO_PIN_CNF_PULL_Pos)
						| ((uint32_t)GPIO_PIN_CNF_DRIVE_S0S1 << GPIO_PIN_CNF_DRIVE_Pos)
						| ((uint32_t)GPIO_PIN_CNF_SENSE_Disabled << GPIO_PIN_CNF_SENSE_Pos);

	// NRF_UART0->BAUDRATE = 0x01D7E000; //115200
	NRF_UART0->BAUDRATE = 0x10000000; //1Mega
    2ab6:	2180      	movs	r1, #128	; 0x80
    2ab8:	4b09      	ldr	r3, [pc, #36]	; (2ae0 <uart_init+0x40>)
    2aba:	4a0a      	ldr	r2, [pc, #40]	; (2ae4 <uart_init+0x44>)
    2abc:	0549      	lsls	r1, r1, #21
    2abe:	5099      	str	r1, [r3, r2]
	NRF_UART0->CONFIG = UART_CONFIG_PARITY_Excluded << UART_CONFIG_PARITY_Pos | UART_CONFIG_HWFC_Disabled;
    2ac0:	2100      	movs	r1, #0
    2ac2:	4a09      	ldr	r2, [pc, #36]	; (2ae8 <uart_init+0x48>)
    2ac4:	5099      	str	r1, [r3, r2]
	NRF_UART0->PSELTXD = txd_pin;
    2ac6:	4a09      	ldr	r2, [pc, #36]	; (2aec <uart_init+0x4c>)
    2ac8:	311a      	adds	r1, #26
    2aca:	5099      	str	r1, [r3, r2]
	NRF_UART0->ENABLE = UART_ENABLE_ENABLE_Enabled;
    2acc:	3a0c      	subs	r2, #12
    2ace:	3916      	subs	r1, #22
    2ad0:	5099      	str	r1, [r3, r2]
	NRF_UART0->TASKS_STARTTX = 1;
    2ad2:	2201      	movs	r2, #1
    2ad4:	609a      	str	r2, [r3, #8]
    NRF_UART0->TXD = ' '; //First character needs to be send to generate TXDRDY event and not be stuck in while loop
    2ad6:	4a06      	ldr	r2, [pc, #24]	; (2af0 <uart_init+0x50>)
    2ad8:	311c      	adds	r1, #28
    2ada:	5099      	str	r1, [r3, r2]
}
    2adc:	4770      	bx	lr
    2ade:	46c0      	nop			; (mov r8, r8)
    2ae0:	40002000 	.word	0x40002000
    2ae4:	00000524 	.word	0x00000524
    2ae8:	0000056c 	.word	0x0000056c
    2aec:	0000050c 	.word	0x0000050c
    2af0:	0000051c 	.word	0x0000051c

00002af4 <uart_put>:

void uart_put(char c)
{
    while(NRF_UART0->EVENTS_TXDRDY == 0) {}
    2af4:	218e      	movs	r1, #142	; 0x8e
    2af6:	4a05      	ldr	r2, [pc, #20]	; (2b0c <uart_put+0x18>)
    2af8:	0049      	lsls	r1, r1, #1
    2afa:	5853      	ldr	r3, [r2, r1]
    2afc:	2b00      	cmp	r3, #0
    2afe:	d0fc      	beq.n	2afa <uart_put+0x6>
    NRF_UART0->EVENTS_TXDRDY = 0;
    2b00:	2300      	movs	r3, #0
    2b02:	5053      	str	r3, [r2, r1]
    NRF_UART0->TXD = c;
    2b04:	4b02      	ldr	r3, [pc, #8]	; (2b10 <uart_put+0x1c>)
    2b06:	50d0      	str	r0, [r2, r3]
    
    2b08:	4770      	bx	lr
    2b0a:	46c0      	nop			; (mov r8, r8)
    2b0c:	40002000 	.word	0x40002000
    2b10:	0000051c 	.word	0x0000051c

00002b14 <memcmp>:
    2b14:	b530      	push	{r4, r5, lr}
    2b16:	2a03      	cmp	r2, #3
    2b18:	d90c      	bls.n	2b34 <memcmp+0x20>
    2b1a:	0003      	movs	r3, r0
    2b1c:	430b      	orrs	r3, r1
    2b1e:	079b      	lsls	r3, r3, #30
    2b20:	d119      	bne.n	2b56 <memcmp+0x42>
    2b22:	6803      	ldr	r3, [r0, #0]
    2b24:	680c      	ldr	r4, [r1, #0]
    2b26:	42a3      	cmp	r3, r4
    2b28:	d115      	bne.n	2b56 <memcmp+0x42>
    2b2a:	3a04      	subs	r2, #4
    2b2c:	3004      	adds	r0, #4
    2b2e:	3104      	adds	r1, #4
    2b30:	2a03      	cmp	r2, #3
    2b32:	d8f6      	bhi.n	2b22 <memcmp+0xe>
    2b34:	1e55      	subs	r5, r2, #1
    2b36:	2a00      	cmp	r2, #0
    2b38:	d00b      	beq.n	2b52 <memcmp+0x3e>
    2b3a:	2300      	movs	r3, #0
    2b3c:	e003      	b.n	2b46 <memcmp+0x32>
    2b3e:	1c5a      	adds	r2, r3, #1
    2b40:	429d      	cmp	r5, r3
    2b42:	d006      	beq.n	2b52 <memcmp+0x3e>
    2b44:	0013      	movs	r3, r2
    2b46:	5cc2      	ldrb	r2, [r0, r3]
    2b48:	5ccc      	ldrb	r4, [r1, r3]
    2b4a:	42a2      	cmp	r2, r4
    2b4c:	d0f7      	beq.n	2b3e <memcmp+0x2a>
    2b4e:	1b10      	subs	r0, r2, r4
    2b50:	e000      	b.n	2b54 <memcmp+0x40>
    2b52:	2000      	movs	r0, #0
    2b54:	bd30      	pop	{r4, r5, pc}
    2b56:	1e55      	subs	r5, r2, #1
    2b58:	e7ef      	b.n	2b3a <memcmp+0x26>
    2b5a:	46c0      	nop			; (mov r8, r8)

00002b5c <memcpy>:
    2b5c:	b5f0      	push	{r4, r5, r6, r7, lr}
    2b5e:	46c6      	mov	lr, r8
    2b60:	b500      	push	{lr}
    2b62:	2a0f      	cmp	r2, #15
    2b64:	d941      	bls.n	2bea <memcpy+0x8e>
    2b66:	2703      	movs	r7, #3
    2b68:	000d      	movs	r5, r1
    2b6a:	003e      	movs	r6, r7
    2b6c:	4305      	orrs	r5, r0
    2b6e:	000c      	movs	r4, r1
    2b70:	0003      	movs	r3, r0
    2b72:	402e      	ands	r6, r5
    2b74:	422f      	tst	r7, r5
    2b76:	d13d      	bne.n	2bf4 <memcpy+0x98>
    2b78:	0015      	movs	r5, r2
    2b7a:	3d10      	subs	r5, #16
    2b7c:	092d      	lsrs	r5, r5, #4
    2b7e:	46a8      	mov	r8, r5
    2b80:	012d      	lsls	r5, r5, #4
    2b82:	46ac      	mov	ip, r5
    2b84:	4484      	add	ip, r0
    2b86:	6827      	ldr	r7, [r4, #0]
    2b88:	001d      	movs	r5, r3
    2b8a:	601f      	str	r7, [r3, #0]
    2b8c:	6867      	ldr	r7, [r4, #4]
    2b8e:	605f      	str	r7, [r3, #4]
    2b90:	68a7      	ldr	r7, [r4, #8]
    2b92:	609f      	str	r7, [r3, #8]
    2b94:	68e7      	ldr	r7, [r4, #12]
    2b96:	3410      	adds	r4, #16
    2b98:	60df      	str	r7, [r3, #12]
    2b9a:	3310      	adds	r3, #16
    2b9c:	4565      	cmp	r5, ip
    2b9e:	d1f2      	bne.n	2b86 <memcpy+0x2a>
    2ba0:	4645      	mov	r5, r8
    2ba2:	230f      	movs	r3, #15
    2ba4:	240c      	movs	r4, #12
    2ba6:	3501      	adds	r5, #1
    2ba8:	012d      	lsls	r5, r5, #4
    2baa:	1949      	adds	r1, r1, r5
    2bac:	4013      	ands	r3, r2
    2bae:	1945      	adds	r5, r0, r5
    2bb0:	4214      	tst	r4, r2
    2bb2:	d022      	beq.n	2bfa <memcpy+0x9e>
    2bb4:	598c      	ldr	r4, [r1, r6]
    2bb6:	51ac      	str	r4, [r5, r6]
    2bb8:	3604      	adds	r6, #4
    2bba:	1b9c      	subs	r4, r3, r6
    2bbc:	2c03      	cmp	r4, #3
    2bbe:	d8f9      	bhi.n	2bb4 <memcpy+0x58>
    2bc0:	3b04      	subs	r3, #4
    2bc2:	089b      	lsrs	r3, r3, #2
    2bc4:	3301      	adds	r3, #1
    2bc6:	009b      	lsls	r3, r3, #2
    2bc8:	18ed      	adds	r5, r5, r3
    2bca:	18c9      	adds	r1, r1, r3
    2bcc:	2303      	movs	r3, #3
    2bce:	401a      	ands	r2, r3
    2bd0:	1e56      	subs	r6, r2, #1
    2bd2:	2a00      	cmp	r2, #0
    2bd4:	d006      	beq.n	2be4 <memcpy+0x88>
    2bd6:	2300      	movs	r3, #0
    2bd8:	5ccc      	ldrb	r4, [r1, r3]
    2bda:	001a      	movs	r2, r3
    2bdc:	54ec      	strb	r4, [r5, r3]
    2bde:	3301      	adds	r3, #1
    2be0:	4296      	cmp	r6, r2
    2be2:	d1f9      	bne.n	2bd8 <memcpy+0x7c>
    2be4:	bc80      	pop	{r7}
    2be6:	46b8      	mov	r8, r7
    2be8:	bdf0      	pop	{r4, r5, r6, r7, pc}
    2bea:	0005      	movs	r5, r0
    2bec:	1e56      	subs	r6, r2, #1
    2bee:	2a00      	cmp	r2, #0
    2bf0:	d1f1      	bne.n	2bd6 <memcpy+0x7a>
    2bf2:	e7f7      	b.n	2be4 <memcpy+0x88>
    2bf4:	0005      	movs	r5, r0
    2bf6:	1e56      	subs	r6, r2, #1
    2bf8:	e7ed      	b.n	2bd6 <memcpy+0x7a>
    2bfa:	001a      	movs	r2, r3
    2bfc:	e7f6      	b.n	2bec <memcpy+0x90>
    2bfe:	46c0      	nop			; (mov r8, r8)

00002c00 <memset>:
    2c00:	b5f0      	push	{r4, r5, r6, r7, lr}
    2c02:	0005      	movs	r5, r0
    2c04:	0783      	lsls	r3, r0, #30
    2c06:	d049      	beq.n	2c9c <memset+0x9c>
    2c08:	1e54      	subs	r4, r2, #1
    2c0a:	2a00      	cmp	r2, #0
    2c0c:	d045      	beq.n	2c9a <memset+0x9a>
    2c0e:	0003      	movs	r3, r0
    2c10:	2603      	movs	r6, #3
    2c12:	b2ca      	uxtb	r2, r1
    2c14:	e002      	b.n	2c1c <memset+0x1c>
    2c16:	3501      	adds	r5, #1
    2c18:	3c01      	subs	r4, #1
    2c1a:	d33e      	bcc.n	2c9a <memset+0x9a>
    2c1c:	3301      	adds	r3, #1
    2c1e:	702a      	strb	r2, [r5, #0]
    2c20:	4233      	tst	r3, r6
    2c22:	d1f8      	bne.n	2c16 <memset+0x16>
    2c24:	2c03      	cmp	r4, #3
    2c26:	d930      	bls.n	2c8a <memset+0x8a>
    2c28:	22ff      	movs	r2, #255	; 0xff
    2c2a:	400a      	ands	r2, r1
    2c2c:	0215      	lsls	r5, r2, #8
    2c2e:	4315      	orrs	r5, r2
    2c30:	042a      	lsls	r2, r5, #16
    2c32:	4315      	orrs	r5, r2
    2c34:	2c0f      	cmp	r4, #15
    2c36:	d934      	bls.n	2ca2 <memset+0xa2>
    2c38:	0027      	movs	r7, r4
    2c3a:	3f10      	subs	r7, #16
    2c3c:	093f      	lsrs	r7, r7, #4
    2c3e:	013e      	lsls	r6, r7, #4
    2c40:	46b4      	mov	ip, r6
    2c42:	001e      	movs	r6, r3
    2c44:	001a      	movs	r2, r3
    2c46:	3610      	adds	r6, #16
    2c48:	4466      	add	r6, ip
    2c4a:	6015      	str	r5, [r2, #0]
    2c4c:	6055      	str	r5, [r2, #4]
    2c4e:	6095      	str	r5, [r2, #8]
    2c50:	60d5      	str	r5, [r2, #12]
    2c52:	3210      	adds	r2, #16
    2c54:	42b2      	cmp	r2, r6
    2c56:	d1f8      	bne.n	2c4a <memset+0x4a>
    2c58:	3701      	adds	r7, #1
    2c5a:	013f      	lsls	r7, r7, #4
    2c5c:	19db      	adds	r3, r3, r7
    2c5e:	270f      	movs	r7, #15
    2c60:	220c      	movs	r2, #12
    2c62:	4027      	ands	r7, r4
    2c64:	4022      	ands	r2, r4
    2c66:	003c      	movs	r4, r7
    2c68:	2a00      	cmp	r2, #0
    2c6a:	d00e      	beq.n	2c8a <memset+0x8a>
    2c6c:	1f3e      	subs	r6, r7, #4
    2c6e:	08b6      	lsrs	r6, r6, #2
    2c70:	00b4      	lsls	r4, r6, #2
    2c72:	46a4      	mov	ip, r4
    2c74:	001a      	movs	r2, r3
    2c76:	1d1c      	adds	r4, r3, #4
    2c78:	4464      	add	r4, ip
    2c7a:	c220      	stmia	r2!, {r5}
    2c7c:	42a2      	cmp	r2, r4
    2c7e:	d1fc      	bne.n	2c7a <memset+0x7a>
    2c80:	2403      	movs	r4, #3
    2c82:	3601      	adds	r6, #1
    2c84:	00b6      	lsls	r6, r6, #2
    2c86:	199b      	adds	r3, r3, r6
    2c88:	403c      	ands	r4, r7
    2c8a:	2c00      	cmp	r4, #0
    2c8c:	d005      	beq.n	2c9a <memset+0x9a>
    2c8e:	b2c9      	uxtb	r1, r1
    2c90:	191c      	adds	r4, r3, r4
    2c92:	7019      	strb	r1, [r3, #0]
    2c94:	3301      	adds	r3, #1
    2c96:	429c      	cmp	r4, r3
    2c98:	d1fb      	bne.n	2c92 <memset+0x92>
    2c9a:	bdf0      	pop	{r4, r5, r6, r7, pc}
    2c9c:	0003      	movs	r3, r0
    2c9e:	0014      	movs	r4, r2
    2ca0:	e7c0      	b.n	2c24 <memset+0x24>
    2ca2:	0027      	movs	r7, r4
    2ca4:	e7e2      	b.n	2c6c <memset+0x6c>
    2ca6:	46c0      	nop			; (mov r8, r8)

00002ca8 <printf>:
    2ca8:	b40f      	push	{r0, r1, r2, r3}
    2caa:	b500      	push	{lr}
    2cac:	4906      	ldr	r1, [pc, #24]	; (2cc8 <printf+0x20>)
    2cae:	b083      	sub	sp, #12
    2cb0:	ab04      	add	r3, sp, #16
    2cb2:	6808      	ldr	r0, [r1, #0]
    2cb4:	cb04      	ldmia	r3!, {r2}
    2cb6:	6881      	ldr	r1, [r0, #8]
    2cb8:	9301      	str	r3, [sp, #4]
    2cba:	f000 f807 	bl	2ccc <_vfprintf_r>
    2cbe:	b003      	add	sp, #12
    2cc0:	bc08      	pop	{r3}
    2cc2:	b004      	add	sp, #16
    2cc4:	4718      	bx	r3
    2cc6:	46c0      	nop			; (mov r8, r8)
    2cc8:	20000000 	.word	0x20000000

00002ccc <_vfprintf_r>:
    2ccc:	b5f0      	push	{r4, r5, r6, r7, lr}
    2cce:	46de      	mov	lr, fp
    2cd0:	464e      	mov	r6, r9
    2cd2:	4645      	mov	r5, r8
    2cd4:	4657      	mov	r7, sl
    2cd6:	b5e0      	push	{r5, r6, r7, lr}
    2cd8:	b0d7      	sub	sp, #348	; 0x15c
    2cda:	4683      	mov	fp, r0
    2cdc:	4689      	mov	r9, r1
    2cde:	4690      	mov	r8, r2
    2ce0:	001c      	movs	r4, r3
    2ce2:	930f      	str	r3, [sp, #60]	; 0x3c
    2ce4:	f003 fa1c 	bl	6120 <_localeconv_r>
    2ce8:	6803      	ldr	r3, [r0, #0]
    2cea:	0018      	movs	r0, r3
    2cec:	931c      	str	r3, [sp, #112]	; 0x70
    2cee:	f004 fa3d 	bl	716c <strlen>
    2cf2:	465b      	mov	r3, fp
    2cf4:	901b      	str	r0, [sp, #108]	; 0x6c
    2cf6:	2b00      	cmp	r3, #0
    2cf8:	d003      	beq.n	2d02 <_vfprintf_r+0x36>
    2cfa:	6b9b      	ldr	r3, [r3, #56]	; 0x38
    2cfc:	2b00      	cmp	r3, #0
    2cfe:	d100      	bne.n	2d02 <_vfprintf_r+0x36>
    2d00:	e25a      	b.n	31b8 <_vfprintf_r+0x4ec>
    2d02:	464b      	mov	r3, r9
    2d04:	6e5b      	ldr	r3, [r3, #100]	; 0x64
    2d06:	07db      	lsls	r3, r3, #31
    2d08:	d500      	bpl.n	2d0c <_vfprintf_r+0x40>
    2d0a:	e0b3      	b.n	2e74 <_vfprintf_r+0x1a8>
    2d0c:	464b      	mov	r3, r9
    2d0e:	210c      	movs	r1, #12
    2d10:	5e59      	ldrsh	r1, [r3, r1]
    2d12:	464b      	mov	r3, r9
    2d14:	899b      	ldrh	r3, [r3, #12]
    2d16:	059a      	lsls	r2, r3, #22
    2d18:	d400      	bmi.n	2d1c <_vfprintf_r+0x50>
    2d1a:	e0a7      	b.n	2e6c <_vfprintf_r+0x1a0>
    2d1c:	2280      	movs	r2, #128	; 0x80
    2d1e:	0192      	lsls	r2, r2, #6
    2d20:	4213      	tst	r3, r2
    2d22:	d109      	bne.n	2d38 <_vfprintf_r+0x6c>
    2d24:	430a      	orrs	r2, r1
    2d26:	464b      	mov	r3, r9
    2d28:	4649      	mov	r1, r9
    2d2a:	819a      	strh	r2, [r3, #12]
    2d2c:	6e49      	ldr	r1, [r1, #100]	; 0x64
    2d2e:	4bde      	ldr	r3, [pc, #888]	; (30a8 <_vfprintf_r+0x3dc>)
    2d30:	400b      	ands	r3, r1
    2d32:	4649      	mov	r1, r9
    2d34:	664b      	str	r3, [r1, #100]	; 0x64
    2d36:	b293      	uxth	r3, r2
    2d38:	071a      	lsls	r2, r3, #28
    2d3a:	d546      	bpl.n	2dca <_vfprintf_r+0xfe>
    2d3c:	464a      	mov	r2, r9
    2d3e:	6912      	ldr	r2, [r2, #16]
    2d40:	2a00      	cmp	r2, #0
    2d42:	d042      	beq.n	2dca <_vfprintf_r+0xfe>
    2d44:	221a      	movs	r2, #26
    2d46:	401a      	ands	r2, r3
    2d48:	2a0a      	cmp	r2, #10
    2d4a:	d04c      	beq.n	2de6 <_vfprintf_r+0x11a>
    2d4c:	ab2d      	add	r3, sp, #180	; 0xb4
    2d4e:	932a      	str	r3, [sp, #168]	; 0xa8
    2d50:	2300      	movs	r3, #0
    2d52:	2400      	movs	r4, #0
    2d54:	932c      	str	r3, [sp, #176]	; 0xb0
    2d56:	932b      	str	r3, [sp, #172]	; 0xac
    2d58:	9315      	str	r3, [sp, #84]	; 0x54
    2d5a:	2300      	movs	r3, #0
    2d5c:	4646      	mov	r6, r8
    2d5e:	9316      	str	r3, [sp, #88]	; 0x58
    2d60:	9417      	str	r4, [sp, #92]	; 0x5c
    2d62:	2300      	movs	r3, #0
    2d64:	931d      	str	r3, [sp, #116]	; 0x74
    2d66:	931e      	str	r3, [sp, #120]	; 0x78
    2d68:	931a      	str	r3, [sp, #104]	; 0x68
    2d6a:	931f      	str	r3, [sp, #124]	; 0x7c
    2d6c:	9320      	str	r3, [sp, #128]	; 0x80
    2d6e:	9309      	str	r3, [sp, #36]	; 0x24
    2d70:	7833      	ldrb	r3, [r6, #0]
    2d72:	46c8      	mov	r8, r9
    2d74:	af2d      	add	r7, sp, #180	; 0xb4
    2d76:	2b00      	cmp	r3, #0
    2d78:	d100      	bne.n	2d7c <_vfprintf_r+0xb0>
    2d7a:	e123      	b.n	2fc4 <_vfprintf_r+0x2f8>
    2d7c:	0034      	movs	r4, r6
    2d7e:	e003      	b.n	2d88 <_vfprintf_r+0xbc>
    2d80:	7863      	ldrb	r3, [r4, #1]
    2d82:	3401      	adds	r4, #1
    2d84:	2b00      	cmp	r3, #0
    2d86:	d05b      	beq.n	2e40 <_vfprintf_r+0x174>
    2d88:	2b25      	cmp	r3, #37	; 0x25
    2d8a:	d1f9      	bne.n	2d80 <_vfprintf_r+0xb4>
    2d8c:	1ba5      	subs	r5, r4, r6
    2d8e:	42b4      	cmp	r4, r6
    2d90:	d15a      	bne.n	2e48 <_vfprintf_r+0x17c>
    2d92:	7823      	ldrb	r3, [r4, #0]
    2d94:	2b00      	cmp	r3, #0
    2d96:	d100      	bne.n	2d9a <_vfprintf_r+0xce>
    2d98:	e114      	b.n	2fc4 <_vfprintf_r+0x2f8>
    2d9a:	1c63      	adds	r3, r4, #1
    2d9c:	9306      	str	r3, [sp, #24]
    2d9e:	2300      	movs	r3, #0
    2da0:	aa1c      	add	r2, sp, #112	; 0x70
    2da2:	76d3      	strb	r3, [r2, #27]
    2da4:	2201      	movs	r2, #1
    2da6:	4252      	negs	r2, r2
    2da8:	9208      	str	r2, [sp, #32]
    2daa:	2200      	movs	r2, #0
    2dac:	7863      	ldrb	r3, [r4, #1]
    2dae:	465d      	mov	r5, fp
    2db0:	0014      	movs	r4, r2
    2db2:	920a      	str	r2, [sp, #40]	; 0x28
    2db4:	9a06      	ldr	r2, [sp, #24]
    2db6:	3201      	adds	r2, #1
    2db8:	9206      	str	r2, [sp, #24]
    2dba:	001a      	movs	r2, r3
    2dbc:	3a20      	subs	r2, #32
    2dbe:	2a5a      	cmp	r2, #90	; 0x5a
    2dc0:	d869      	bhi.n	2e96 <_vfprintf_r+0x1ca>
    2dc2:	49ba      	ldr	r1, [pc, #744]	; (30ac <_vfprintf_r+0x3e0>)
    2dc4:	0092      	lsls	r2, r2, #2
    2dc6:	588a      	ldr	r2, [r1, r2]
    2dc8:	4697      	mov	pc, r2
    2dca:	4649      	mov	r1, r9
    2dcc:	4658      	mov	r0, fp
    2dce:	f001 fde5 	bl	499c <__swsetup_r>
    2dd2:	464b      	mov	r3, r9
    2dd4:	2800      	cmp	r0, #0
    2dd6:	d001      	beq.n	2ddc <_vfprintf_r+0x110>
    2dd8:	f001 fc38 	bl	464c <_vfprintf_r+0x1980>
    2ddc:	221a      	movs	r2, #26
    2dde:	899b      	ldrh	r3, [r3, #12]
    2de0:	401a      	ands	r2, r3
    2de2:	2a0a      	cmp	r2, #10
    2de4:	d1b2      	bne.n	2d4c <_vfprintf_r+0x80>
    2de6:	464a      	mov	r2, r9
    2de8:	210e      	movs	r1, #14
    2dea:	5e52      	ldrsh	r2, [r2, r1]
    2dec:	2a00      	cmp	r2, #0
    2dee:	dbad      	blt.n	2d4c <_vfprintf_r+0x80>
    2df0:	464a      	mov	r2, r9
    2df2:	6e52      	ldr	r2, [r2, #100]	; 0x64
    2df4:	07d2      	lsls	r2, r2, #31
    2df6:	d403      	bmi.n	2e00 <_vfprintf_r+0x134>
    2df8:	059b      	lsls	r3, r3, #22
    2dfa:	d401      	bmi.n	2e00 <_vfprintf_r+0x134>
    2dfc:	f001 fa1b 	bl	4236 <_vfprintf_r+0x156a>
    2e00:	0023      	movs	r3, r4
    2e02:	4642      	mov	r2, r8
    2e04:	4649      	mov	r1, r9
    2e06:	4658      	mov	r0, fp
    2e08:	f001 fd82 	bl	4910 <__sbprintf>
    2e0c:	9009      	str	r0, [sp, #36]	; 0x24
    2e0e:	f000 fca7 	bl	3760 <_vfprintf_r+0xa94>
    2e12:	0028      	movs	r0, r5
    2e14:	f003 f984 	bl	6120 <_localeconv_r>
    2e18:	6843      	ldr	r3, [r0, #4]
    2e1a:	0018      	movs	r0, r3
    2e1c:	9320      	str	r3, [sp, #128]	; 0x80
    2e1e:	f004 f9a5 	bl	716c <strlen>
    2e22:	4681      	mov	r9, r0
    2e24:	901f      	str	r0, [sp, #124]	; 0x7c
    2e26:	0028      	movs	r0, r5
    2e28:	f003 f97a 	bl	6120 <_localeconv_r>
    2e2c:	6883      	ldr	r3, [r0, #8]
    2e2e:	931a      	str	r3, [sp, #104]	; 0x68
    2e30:	464b      	mov	r3, r9
    2e32:	2b00      	cmp	r3, #0
    2e34:	d001      	beq.n	2e3a <_vfprintf_r+0x16e>
    2e36:	f000 fe54 	bl	3ae2 <_vfprintf_r+0xe16>
    2e3a:	9b06      	ldr	r3, [sp, #24]
    2e3c:	781b      	ldrb	r3, [r3, #0]
    2e3e:	e7b9      	b.n	2db4 <_vfprintf_r+0xe8>
    2e40:	1ba5      	subs	r5, r4, r6
    2e42:	42b4      	cmp	r4, r6
    2e44:	d100      	bne.n	2e48 <_vfprintf_r+0x17c>
    2e46:	e0bd      	b.n	2fc4 <_vfprintf_r+0x2f8>
    2e48:	9b2c      	ldr	r3, [sp, #176]	; 0xb0
    2e4a:	603e      	str	r6, [r7, #0]
    2e4c:	195b      	adds	r3, r3, r5
    2e4e:	932c      	str	r3, [sp, #176]	; 0xb0
    2e50:	9b2b      	ldr	r3, [sp, #172]	; 0xac
    2e52:	607d      	str	r5, [r7, #4]
    2e54:	9306      	str	r3, [sp, #24]
    2e56:	3301      	adds	r3, #1
    2e58:	932b      	str	r3, [sp, #172]	; 0xac
    2e5a:	2b07      	cmp	r3, #7
    2e5c:	dc10      	bgt.n	2e80 <_vfprintf_r+0x1b4>
    2e5e:	3708      	adds	r7, #8
    2e60:	9b09      	ldr	r3, [sp, #36]	; 0x24
    2e62:	469c      	mov	ip, r3
    2e64:	44ac      	add	ip, r5
    2e66:	4663      	mov	r3, ip
    2e68:	9309      	str	r3, [sp, #36]	; 0x24
    2e6a:	e792      	b.n	2d92 <_vfprintf_r+0xc6>
    2e6c:	464b      	mov	r3, r9
    2e6e:	6d98      	ldr	r0, [r3, #88]	; 0x58
    2e70:	f003 f95e 	bl	6130 <__retarget_lock_acquire_recursive>
    2e74:	464b      	mov	r3, r9
    2e76:	210c      	movs	r1, #12
    2e78:	5e59      	ldrsh	r1, [r3, r1]
    2e7a:	464b      	mov	r3, r9
    2e7c:	899b      	ldrh	r3, [r3, #12]
    2e7e:	e74d      	b.n	2d1c <_vfprintf_r+0x50>
    2e80:	4641      	mov	r1, r8
    2e82:	4658      	mov	r0, fp
    2e84:	aa2a      	add	r2, sp, #168	; 0xa8
    2e86:	f004 fa19 	bl	72bc <__sprint_r>
    2e8a:	2800      	cmp	r0, #0
    2e8c:	d001      	beq.n	2e92 <_vfprintf_r+0x1c6>
    2e8e:	f001 fca0 	bl	47d2 <_vfprintf_r+0x1b06>
    2e92:	af2d      	add	r7, sp, #180	; 0xb4
    2e94:	e7e4      	b.n	2e60 <_vfprintf_r+0x194>
    2e96:	46a2      	mov	sl, r4
    2e98:	46ab      	mov	fp, r5
    2e9a:	9312      	str	r3, [sp, #72]	; 0x48
    2e9c:	2b00      	cmp	r3, #0
    2e9e:	d100      	bne.n	2ea2 <_vfprintf_r+0x1d6>
    2ea0:	e090      	b.n	2fc4 <_vfprintf_r+0x2f8>
    2ea2:	ae3d      	add	r6, sp, #244	; 0xf4
    2ea4:	7033      	strb	r3, [r6, #0]
    2ea6:	2300      	movs	r3, #0
    2ea8:	aa1c      	add	r2, sp, #112	; 0x70
    2eaa:	76d3      	strb	r3, [r2, #27]
    2eac:	2200      	movs	r2, #0
    2eae:	920e      	str	r2, [sp, #56]	; 0x38
    2eb0:	3201      	adds	r2, #1
    2eb2:	3301      	adds	r3, #1
    2eb4:	920b      	str	r2, [sp, #44]	; 0x2c
    2eb6:	2200      	movs	r2, #0
    2eb8:	9307      	str	r3, [sp, #28]
    2eba:	2300      	movs	r3, #0
    2ebc:	9208      	str	r2, [sp, #32]
    2ebe:	9218      	str	r2, [sp, #96]	; 0x60
    2ec0:	9213      	str	r2, [sp, #76]	; 0x4c
    2ec2:	9214      	str	r2, [sp, #80]	; 0x50
    2ec4:	2202      	movs	r2, #2
    2ec6:	4651      	mov	r1, sl
    2ec8:	4011      	ands	r1, r2
    2eca:	9110      	str	r1, [sp, #64]	; 0x40
    2ecc:	4651      	mov	r1, sl
    2ece:	420a      	tst	r2, r1
    2ed0:	d002      	beq.n	2ed8 <_vfprintf_r+0x20c>
    2ed2:	9a07      	ldr	r2, [sp, #28]
    2ed4:	3202      	adds	r2, #2
    2ed6:	9207      	str	r2, [sp, #28]
    2ed8:	2284      	movs	r2, #132	; 0x84
    2eda:	4651      	mov	r1, sl
    2edc:	4011      	ands	r1, r2
    2ede:	9111      	str	r1, [sp, #68]	; 0x44
    2ee0:	4651      	mov	r1, sl
    2ee2:	420a      	tst	r2, r1
    2ee4:	d105      	bne.n	2ef2 <_vfprintf_r+0x226>
    2ee6:	9a0a      	ldr	r2, [sp, #40]	; 0x28
    2ee8:	9907      	ldr	r1, [sp, #28]
    2eea:	1a54      	subs	r4, r2, r1
    2eec:	2c00      	cmp	r4, #0
    2eee:	dd00      	ble.n	2ef2 <_vfprintf_r+0x226>
    2ef0:	e0cd      	b.n	308e <_vfprintf_r+0x3c2>
    2ef2:	9c2c      	ldr	r4, [sp, #176]	; 0xb0
    2ef4:	2b00      	cmp	r3, #0
    2ef6:	d011      	beq.n	2f1c <_vfprintf_r+0x250>
    2ef8:	aa1c      	add	r2, sp, #112	; 0x70
    2efa:	231b      	movs	r3, #27
    2efc:	4694      	mov	ip, r2
    2efe:	4463      	add	r3, ip
    2f00:	603b      	str	r3, [r7, #0]
    2f02:	2301      	movs	r3, #1
    2f04:	607b      	str	r3, [r7, #4]
    2f06:	9b2b      	ldr	r3, [sp, #172]	; 0xac
    2f08:	3401      	adds	r4, #1
    2f0a:	9319      	str	r3, [sp, #100]	; 0x64
    2f0c:	3301      	adds	r3, #1
    2f0e:	942c      	str	r4, [sp, #176]	; 0xb0
    2f10:	932b      	str	r3, [sp, #172]	; 0xac
    2f12:	2b07      	cmp	r3, #7
    2f14:	dd01      	ble.n	2f1a <_vfprintf_r+0x24e>
    2f16:	f000 fc59 	bl	37cc <_vfprintf_r+0xb00>
    2f1a:	3708      	adds	r7, #8
    2f1c:	9b10      	ldr	r3, [sp, #64]	; 0x40
    2f1e:	2b00      	cmp	r3, #0
    2f20:	d00e      	beq.n	2f40 <_vfprintf_r+0x274>
    2f22:	ab23      	add	r3, sp, #140	; 0x8c
    2f24:	603b      	str	r3, [r7, #0]
    2f26:	2302      	movs	r3, #2
    2f28:	607b      	str	r3, [r7, #4]
    2f2a:	9b2b      	ldr	r3, [sp, #172]	; 0xac
    2f2c:	3402      	adds	r4, #2
    2f2e:	9310      	str	r3, [sp, #64]	; 0x40
    2f30:	3301      	adds	r3, #1
    2f32:	942c      	str	r4, [sp, #176]	; 0xb0
    2f34:	932b      	str	r3, [sp, #172]	; 0xac
    2f36:	2b07      	cmp	r3, #7
    2f38:	dd01      	ble.n	2f3e <_vfprintf_r+0x272>
    2f3a:	f000 fc3c 	bl	37b6 <_vfprintf_r+0xaea>
    2f3e:	3708      	adds	r7, #8
    2f40:	9b11      	ldr	r3, [sp, #68]	; 0x44
    2f42:	2b80      	cmp	r3, #128	; 0x80
    2f44:	d100      	bne.n	2f48 <_vfprintf_r+0x27c>
    2f46:	e373      	b.n	3630 <_vfprintf_r+0x964>
    2f48:	9b08      	ldr	r3, [sp, #32]
    2f4a:	9a0b      	ldr	r2, [sp, #44]	; 0x2c
    2f4c:	1a9d      	subs	r5, r3, r2
    2f4e:	2d00      	cmp	r5, #0
    2f50:	dd00      	ble.n	2f54 <_vfprintf_r+0x288>
    2f52:	e3ad      	b.n	36b0 <_vfprintf_r+0x9e4>
    2f54:	4653      	mov	r3, sl
    2f56:	05db      	lsls	r3, r3, #23
    2f58:	d500      	bpl.n	2f5c <_vfprintf_r+0x290>
    2f5a:	e30e      	b.n	357a <_vfprintf_r+0x8ae>
    2f5c:	9b0b      	ldr	r3, [sp, #44]	; 0x2c
    2f5e:	603e      	str	r6, [r7, #0]
    2f60:	469c      	mov	ip, r3
    2f62:	607b      	str	r3, [r7, #4]
    2f64:	9b2b      	ldr	r3, [sp, #172]	; 0xac
    2f66:	4464      	add	r4, ip
    2f68:	9308      	str	r3, [sp, #32]
    2f6a:	3301      	adds	r3, #1
    2f6c:	942c      	str	r4, [sp, #176]	; 0xb0
    2f6e:	932b      	str	r3, [sp, #172]	; 0xac
    2f70:	2b07      	cmp	r3, #7
    2f72:	dd00      	ble.n	2f76 <_vfprintf_r+0x2aa>
    2f74:	e115      	b.n	31a2 <_vfprintf_r+0x4d6>
    2f76:	3708      	adds	r7, #8
    2f78:	4653      	mov	r3, sl
    2f7a:	075b      	lsls	r3, r3, #29
    2f7c:	d506      	bpl.n	2f8c <_vfprintf_r+0x2c0>
    2f7e:	9b0a      	ldr	r3, [sp, #40]	; 0x28
    2f80:	9a07      	ldr	r2, [sp, #28]
    2f82:	1a9e      	subs	r6, r3, r2
    2f84:	2e00      	cmp	r6, #0
    2f86:	dd01      	ble.n	2f8c <_vfprintf_r+0x2c0>
    2f88:	f000 fc2b 	bl	37e2 <_vfprintf_r+0xb16>
    2f8c:	9b0a      	ldr	r3, [sp, #40]	; 0x28
    2f8e:	9a07      	ldr	r2, [sp, #28]
    2f90:	4293      	cmp	r3, r2
    2f92:	da00      	bge.n	2f96 <_vfprintf_r+0x2ca>
    2f94:	0013      	movs	r3, r2
    2f96:	9a09      	ldr	r2, [sp, #36]	; 0x24
    2f98:	4694      	mov	ip, r2
    2f9a:	449c      	add	ip, r3
    2f9c:	4663      	mov	r3, ip
    2f9e:	9309      	str	r3, [sp, #36]	; 0x24
    2fa0:	2c00      	cmp	r4, #0
    2fa2:	d000      	beq.n	2fa6 <_vfprintf_r+0x2da>
    2fa4:	e3c1      	b.n	372a <_vfprintf_r+0xa5e>
    2fa6:	2300      	movs	r3, #0
    2fa8:	932b      	str	r3, [sp, #172]	; 0xac
    2faa:	9b0e      	ldr	r3, [sp, #56]	; 0x38
    2fac:	2b00      	cmp	r3, #0
    2fae:	d003      	beq.n	2fb8 <_vfprintf_r+0x2ec>
    2fb0:	4658      	mov	r0, fp
    2fb2:	990e      	ldr	r1, [sp, #56]	; 0x38
    2fb4:	f002 ffae 	bl	5f14 <_free_r>
    2fb8:	9e06      	ldr	r6, [sp, #24]
    2fba:	af2d      	add	r7, sp, #180	; 0xb4
    2fbc:	7833      	ldrb	r3, [r6, #0]
    2fbe:	2b00      	cmp	r3, #0
    2fc0:	d000      	beq.n	2fc4 <_vfprintf_r+0x2f8>
    2fc2:	e6db      	b.n	2d7c <_vfprintf_r+0xb0>
    2fc4:	9b2c      	ldr	r3, [sp, #176]	; 0xb0
    2fc6:	46c1      	mov	r9, r8
    2fc8:	9306      	str	r3, [sp, #24]
    2fca:	2b00      	cmp	r3, #0
    2fcc:	d001      	beq.n	2fd2 <_vfprintf_r+0x306>
    2fce:	f001 f846 	bl	405e <_vfprintf_r+0x1392>
    2fd2:	2300      	movs	r3, #0
    2fd4:	932b      	str	r3, [sp, #172]	; 0xac
    2fd6:	e3b7      	b.n	3748 <_vfprintf_r+0xa7c>
    2fd8:	3b30      	subs	r3, #48	; 0x30
    2fda:	2000      	movs	r0, #0
    2fdc:	001a      	movs	r2, r3
    2fde:	9906      	ldr	r1, [sp, #24]
    2fe0:	0083      	lsls	r3, r0, #2
    2fe2:	1818      	adds	r0, r3, r0
    2fe4:	000b      	movs	r3, r1
    2fe6:	781b      	ldrb	r3, [r3, #0]
    2fe8:	0040      	lsls	r0, r0, #1
    2fea:	1810      	adds	r0, r2, r0
    2fec:	001a      	movs	r2, r3
    2fee:	3a30      	subs	r2, #48	; 0x30
    2ff0:	3101      	adds	r1, #1
    2ff2:	2a09      	cmp	r2, #9
    2ff4:	d9f4      	bls.n	2fe0 <_vfprintf_r+0x314>
    2ff6:	9106      	str	r1, [sp, #24]
    2ff8:	900a      	str	r0, [sp, #40]	; 0x28
    2ffa:	e6de      	b.n	2dba <_vfprintf_r+0xee>
    2ffc:	9312      	str	r3, [sp, #72]	; 0x48
    2ffe:	2307      	movs	r3, #7
    3000:	46a2      	mov	sl, r4
    3002:	9c0f      	ldr	r4, [sp, #60]	; 0x3c
    3004:	46ab      	mov	fp, r5
    3006:	3407      	adds	r4, #7
    3008:	439c      	bics	r4, r3
    300a:	0022      	movs	r2, r4
    300c:	ca18      	ldmia	r2!, {r3, r4}
    300e:	9316      	str	r3, [sp, #88]	; 0x58
    3010:	9417      	str	r4, [sp, #92]	; 0x5c
    3012:	9b16      	ldr	r3, [sp, #88]	; 0x58
    3014:	9c17      	ldr	r4, [sp, #92]	; 0x5c
    3016:	920f      	str	r2, [sp, #60]	; 0x3c
    3018:	001d      	movs	r5, r3
    301a:	2201      	movs	r2, #1
    301c:	0064      	lsls	r4, r4, #1
    301e:	0864      	lsrs	r4, r4, #1
    3020:	0028      	movs	r0, r5
    3022:	0021      	movs	r1, r4
    3024:	4b22      	ldr	r3, [pc, #136]	; (30b0 <_vfprintf_r+0x3e4>)
    3026:	4252      	negs	r2, r2
    3028:	f7ff f826 	bl	2078 <__aeabi_dcmpun>
    302c:	2800      	cmp	r0, #0
    302e:	d001      	beq.n	3034 <_vfprintf_r+0x368>
    3030:	f000 fd98 	bl	3b64 <_vfprintf_r+0xe98>
    3034:	2201      	movs	r2, #1
    3036:	0028      	movs	r0, r5
    3038:	0021      	movs	r1, r4
