
outputs/output.elf:     file format elf32-littlearm


Disassembly of section .text:

00000000 <interrupt_vectors>:
       0:	00 80 00 20 29 22 00 00 25 22 00 00 25 22 00 00     ... )"..%"..%"..
	...
      2c:	25 22 00 00 00 00 00 00 00 00 00 00 25 22 00 00     %"..........%"..
      3c:	25 22 00 00                                         %"..

00000040 <__udivsi3>:
      40:	2200      	movs	r2, #0
      42:	0843      	lsrs	r3, r0, #1
      44:	428b      	cmp	r3, r1
      46:	d374      	bcc.n	132 <__udivsi3+0xf2>
      48:	0903      	lsrs	r3, r0, #4
      4a:	428b      	cmp	r3, r1
      4c:	d35f      	bcc.n	10e <__udivsi3+0xce>
      4e:	0a03      	lsrs	r3, r0, #8
      50:	428b      	cmp	r3, r1
      52:	d344      	bcc.n	de <__udivsi3+0x9e>
      54:	0b03      	lsrs	r3, r0, #12
      56:	428b      	cmp	r3, r1
      58:	d328      	bcc.n	ac <__udivsi3+0x6c>
      5a:	0c03      	lsrs	r3, r0, #16
      5c:	428b      	cmp	r3, r1
      5e:	d30d      	bcc.n	7c <__udivsi3+0x3c>
      60:	22ff      	movs	r2, #255	; 0xff
      62:	0209      	lsls	r1, r1, #8
      64:	ba12      	rev	r2, r2
      66:	0c03      	lsrs	r3, r0, #16
      68:	428b      	cmp	r3, r1
      6a:	d302      	bcc.n	72 <__udivsi3+0x32>
      6c:	1212      	asrs	r2, r2, #8
      6e:	0209      	lsls	r1, r1, #8
      70:	d065      	beq.n	13e <__udivsi3+0xfe>
      72:	0b03      	lsrs	r3, r0, #12
      74:	428b      	cmp	r3, r1
      76:	d319      	bcc.n	ac <__udivsi3+0x6c>
      78:	e000      	b.n	7c <__udivsi3+0x3c>
      7a:	0a09      	lsrs	r1, r1, #8
      7c:	0bc3      	lsrs	r3, r0, #15
      7e:	428b      	cmp	r3, r1
      80:	d301      	bcc.n	86 <__udivsi3+0x46>
      82:	03cb      	lsls	r3, r1, #15
      84:	1ac0      	subs	r0, r0, r3
      86:	4152      	adcs	r2, r2
      88:	0b83      	lsrs	r3, r0, #14
      8a:	428b      	cmp	r3, r1
      8c:	d301      	bcc.n	92 <__udivsi3+0x52>
      8e:	038b      	lsls	r3, r1, #14
      90:	1ac0      	subs	r0, r0, r3
      92:	4152      	adcs	r2, r2
      94:	0b43      	lsrs	r3, r0, #13
      96:	428b      	cmp	r3, r1
      98:	d301      	bcc.n	9e <__udivsi3+0x5e>
      9a:	034b      	lsls	r3, r1, #13
      9c:	1ac0      	subs	r0, r0, r3
      9e:	4152      	adcs	r2, r2
      a0:	0b03      	lsrs	r3, r0, #12
      a2:	428b      	cmp	r3, r1
      a4:	d301      	bcc.n	aa <__udivsi3+0x6a>
      a6:	030b      	lsls	r3, r1, #12
      a8:	1ac0      	subs	r0, r0, r3
      aa:	4152      	adcs	r2, r2
      ac:	0ac3      	lsrs	r3, r0, #11
      ae:	428b      	cmp	r3, r1
      b0:	d301      	bcc.n	b6 <__udivsi3+0x76>
      b2:	02cb      	lsls	r3, r1, #11
      b4:	1ac0      	subs	r0, r0, r3
      b6:	4152      	adcs	r2, r2
      b8:	0a83      	lsrs	r3, r0, #10
      ba:	428b      	cmp	r3, r1
      bc:	d301      	bcc.n	c2 <__udivsi3+0x82>
      be:	028b      	lsls	r3, r1, #10
      c0:	1ac0      	subs	r0, r0, r3
      c2:	4152      	adcs	r2, r2
      c4:	0a43      	lsrs	r3, r0, #9
      c6:	428b      	cmp	r3, r1
      c8:	d301      	bcc.n	ce <__udivsi3+0x8e>
      ca:	024b      	lsls	r3, r1, #9
      cc:	1ac0      	subs	r0, r0, r3
      ce:	4152      	adcs	r2, r2
      d0:	0a03      	lsrs	r3, r0, #8
      d2:	428b      	cmp	r3, r1
      d4:	d301      	bcc.n	da <__udivsi3+0x9a>
      d6:	020b      	lsls	r3, r1, #8
      d8:	1ac0      	subs	r0, r0, r3
      da:	4152      	adcs	r2, r2
      dc:	d2cd      	bcs.n	7a <__udivsi3+0x3a>
      de:	09c3      	lsrs	r3, r0, #7
      e0:	428b      	cmp	r3, r1
      e2:	d301      	bcc.n	e8 <__udivsi3+0xa8>
      e4:	01cb      	lsls	r3, r1, #7
      e6:	1ac0      	subs	r0, r0, r3
      e8:	4152      	adcs	r2, r2
      ea:	0983      	lsrs	r3, r0, #6
      ec:	428b      	cmp	r3, r1
      ee:	d301      	bcc.n	f4 <__udivsi3+0xb4>
      f0:	018b      	lsls	r3, r1, #6
      f2:	1ac0      	subs	r0, r0, r3
      f4:	4152      	adcs	r2, r2
      f6:	0943      	lsrs	r3, r0, #5
      f8:	428b      	cmp	r3, r1
      fa:	d301      	bcc.n	100 <__udivsi3+0xc0>
      fc:	014b      	lsls	r3, r1, #5
      fe:	1ac0      	subs	r0, r0, r3
     100:	4152      	adcs	r2, r2
     102:	0903      	lsrs	r3, r0, #4
     104:	428b      	cmp	r3, r1
     106:	d301      	bcc.n	10c <__udivsi3+0xcc>
     108:	010b      	lsls	r3, r1, #4
     10a:	1ac0      	subs	r0, r0, r3
     10c:	4152      	adcs	r2, r2
     10e:	08c3      	lsrs	r3, r0, #3
     110:	428b      	cmp	r3, r1
     112:	d301      	bcc.n	118 <__udivsi3+0xd8>
     114:	00cb      	lsls	r3, r1, #3
     116:	1ac0      	subs	r0, r0, r3
     118:	4152      	adcs	r2, r2
     11a:	0883      	lsrs	r3, r0, #2
     11c:	428b      	cmp	r3, r1
     11e:	d301      	bcc.n	124 <__udivsi3+0xe4>
     120:	008b      	lsls	r3, r1, #2
     122:	1ac0      	subs	r0, r0, r3
     124:	4152      	adcs	r2, r2
     126:	0843      	lsrs	r3, r0, #1
     128:	428b      	cmp	r3, r1
     12a:	d301      	bcc.n	130 <__udivsi3+0xf0>
     12c:	004b      	lsls	r3, r1, #1
     12e:	1ac0      	subs	r0, r0, r3
     130:	4152      	adcs	r2, r2
     132:	1a41      	subs	r1, r0, r1
     134:	d200      	bcs.n	138 <__udivsi3+0xf8>
     136:	4601      	mov	r1, r0
     138:	4152      	adcs	r2, r2
     13a:	4610      	mov	r0, r2
     13c:	4770      	bx	lr
     13e:	e7ff      	b.n	140 <__udivsi3+0x100>
     140:	b501      	push	{r0, lr}
     142:	2000      	movs	r0, #0
     144:	f000 f8f0 	bl	328 <__aeabi_idiv0>
     148:	bd02      	pop	{r1, pc}
     14a:	46c0      	nop			; (mov r8, r8)

0000014c <__aeabi_uidivmod>:
     14c:	2900      	cmp	r1, #0
     14e:	d0f7      	beq.n	140 <__udivsi3+0x100>
     150:	e776      	b.n	40 <__udivsi3>
     152:	4770      	bx	lr

00000154 <__divsi3>:
     154:	4603      	mov	r3, r0
     156:	430b      	orrs	r3, r1
     158:	d47f      	bmi.n	25a <__divsi3+0x106>
     15a:	2200      	movs	r2, #0
     15c:	0843      	lsrs	r3, r0, #1
     15e:	428b      	cmp	r3, r1
     160:	d374      	bcc.n	24c <__divsi3+0xf8>
     162:	0903      	lsrs	r3, r0, #4
     164:	428b      	cmp	r3, r1
     166:	d35f      	bcc.n	228 <__divsi3+0xd4>
     168:	0a03      	lsrs	r3, r0, #8
     16a:	428b      	cmp	r3, r1
     16c:	d344      	bcc.n	1f8 <__divsi3+0xa4>
     16e:	0b03      	lsrs	r3, r0, #12
     170:	428b      	cmp	r3, r1
     172:	d328      	bcc.n	1c6 <__divsi3+0x72>
     174:	0c03      	lsrs	r3, r0, #16
     176:	428b      	cmp	r3, r1
     178:	d30d      	bcc.n	196 <__divsi3+0x42>
     17a:	22ff      	movs	r2, #255	; 0xff
     17c:	0209      	lsls	r1, r1, #8
     17e:	ba12      	rev	r2, r2
     180:	0c03      	lsrs	r3, r0, #16
     182:	428b      	cmp	r3, r1
     184:	d302      	bcc.n	18c <__divsi3+0x38>
     186:	1212      	asrs	r2, r2, #8
     188:	0209      	lsls	r1, r1, #8
     18a:	d065      	beq.n	258 <__divsi3+0x104>
     18c:	0b03      	lsrs	r3, r0, #12
     18e:	428b      	cmp	r3, r1
     190:	d319      	bcc.n	1c6 <__divsi3+0x72>
     192:	e000      	b.n	196 <__divsi3+0x42>
     194:	0a09      	lsrs	r1, r1, #8
     196:	0bc3      	lsrs	r3, r0, #15
     198:	428b      	cmp	r3, r1
     19a:	d301      	bcc.n	1a0 <__divsi3+0x4c>
     19c:	03cb      	lsls	r3, r1, #15
     19e:	1ac0      	subs	r0, r0, r3
     1a0:	4152      	adcs	r2, r2
     1a2:	0b83      	lsrs	r3, r0, #14
     1a4:	428b      	cmp	r3, r1
     1a6:	d301      	bcc.n	1ac <__divsi3+0x58>
     1a8:	038b      	lsls	r3, r1, #14
     1aa:	1ac0      	subs	r0, r0, r3
     1ac:	4152      	adcs	r2, r2
     1ae:	0b43      	lsrs	r3, r0, #13
     1b0:	428b      	cmp	r3, r1
     1b2:	d301      	bcc.n	1b8 <__divsi3+0x64>
     1b4:	034b      	lsls	r3, r1, #13
     1b6:	1ac0      	subs	r0, r0, r3
     1b8:	4152      	adcs	r2, r2
     1ba:	0b03      	lsrs	r3, r0, #12
     1bc:	428b      	cmp	r3, r1
     1be:	d301      	bcc.n	1c4 <__divsi3+0x70>
     1c0:	030b      	lsls	r3, r1, #12
     1c2:	1ac0      	subs	r0, r0, r3
     1c4:	4152      	adcs	r2, r2
     1c6:	0ac3      	lsrs	r3, r0, #11
     1c8:	428b      	cmp	r3, r1
     1ca:	d301      	bcc.n	1d0 <__divsi3+0x7c>
     1cc:	02cb      	lsls	r3, r1, #11
     1ce:	1ac0      	subs	r0, r0, r3
     1d0:	4152      	adcs	r2, r2
     1d2:	0a83      	lsrs	r3, r0, #10
     1d4:	428b      	cmp	r3, r1
     1d6:	d301      	bcc.n	1dc <__divsi3+0x88>
     1d8:	028b      	lsls	r3, r1, #10
     1da:	1ac0      	subs	r0, r0, r3
     1dc:	4152      	adcs	r2, r2
     1de:	0a43      	lsrs	r3, r0, #9
     1e0:	428b      	cmp	r3, r1
     1e2:	d301      	bcc.n	1e8 <__divsi3+0x94>
     1e4:	024b      	lsls	r3, r1, #9
     1e6:	1ac0      	subs	r0, r0, r3
     1e8:	4152      	adcs	r2, r2
     1ea:	0a03      	lsrs	r3, r0, #8
     1ec:	428b      	cmp	r3, r1
     1ee:	d301      	bcc.n	1f4 <__divsi3+0xa0>
     1f0:	020b      	lsls	r3, r1, #8
     1f2:	1ac0      	subs	r0, r0, r3
     1f4:	4152      	adcs	r2, r2
     1f6:	d2cd      	bcs.n	194 <__divsi3+0x40>
     1f8:	09c3      	lsrs	r3, r0, #7
     1fa:	428b      	cmp	r3, r1
     1fc:	d301      	bcc.n	202 <__divsi3+0xae>
     1fe:	01cb      	lsls	r3, r1, #7
     200:	1ac0      	subs	r0, r0, r3
     202:	4152      	adcs	r2, r2
     204:	0983      	lsrs	r3, r0, #6
     206:	428b      	cmp	r3, r1
     208:	d301      	bcc.n	20e <__divsi3+0xba>
     20a:	018b      	lsls	r3, r1, #6
     20c:	1ac0      	subs	r0, r0, r3
     20e:	4152      	adcs	r2, r2
     210:	0943      	lsrs	r3, r0, #5
     212:	428b      	cmp	r3, r1
     214:	d301      	bcc.n	21a <__divsi3+0xc6>
     216:	014b      	lsls	r3, r1, #5
     218:	1ac0      	subs	r0, r0, r3
     21a:	4152      	adcs	r2, r2
     21c:	0903      	lsrs	r3, r0, #4
     21e:	428b      	cmp	r3, r1
     220:	d301      	bcc.n	226 <__divsi3+0xd2>
     222:	010b      	lsls	r3, r1, #4
     224:	1ac0      	subs	r0, r0, r3
     226:	4152      	adcs	r2, r2
     228:	08c3      	lsrs	r3, r0, #3
     22a:	428b      	cmp	r3, r1
     22c:	d301      	bcc.n	232 <__divsi3+0xde>
     22e:	00cb      	lsls	r3, r1, #3
     230:	1ac0      	subs	r0, r0, r3
     232:	4152      	adcs	r2, r2
     234:	0883      	lsrs	r3, r0, #2
     236:	428b      	cmp	r3, r1
     238:	d301      	bcc.n	23e <__divsi3+0xea>
     23a:	008b      	lsls	r3, r1, #2
     23c:	1ac0      	subs	r0, r0, r3
     23e:	4152      	adcs	r2, r2
     240:	0843      	lsrs	r3, r0, #1
     242:	428b      	cmp	r3, r1
     244:	d301      	bcc.n	24a <__divsi3+0xf6>
     246:	004b      	lsls	r3, r1, #1
     248:	1ac0      	subs	r0, r0, r3
     24a:	4152      	adcs	r2, r2
     24c:	1a41      	subs	r1, r0, r1
     24e:	d200      	bcs.n	252 <__divsi3+0xfe>
     250:	4601      	mov	r1, r0
     252:	4152      	adcs	r2, r2
     254:	4610      	mov	r0, r2
     256:	4770      	bx	lr
     258:	e05d      	b.n	316 <__divsi3+0x1c2>
     25a:	0fca      	lsrs	r2, r1, #31
     25c:	d000      	beq.n	260 <__divsi3+0x10c>
     25e:	4249      	negs	r1, r1
     260:	1003      	asrs	r3, r0, #32
     262:	d300      	bcc.n	266 <__divsi3+0x112>
     264:	4240      	negs	r0, r0
     266:	4053      	eors	r3, r2
     268:	2200      	movs	r2, #0
     26a:	469c      	mov	ip, r3
     26c:	0903      	lsrs	r3, r0, #4
     26e:	428b      	cmp	r3, r1
     270:	d32d      	bcc.n	2ce <__divsi3+0x17a>
     272:	0a03      	lsrs	r3, r0, #8
     274:	428b      	cmp	r3, r1
     276:	d312      	bcc.n	29e <__divsi3+0x14a>
     278:	22fc      	movs	r2, #252	; 0xfc
     27a:	0189      	lsls	r1, r1, #6
     27c:	ba12      	rev	r2, r2
     27e:	0a03      	lsrs	r3, r0, #8
     280:	428b      	cmp	r3, r1
     282:	d30c      	bcc.n	29e <__divsi3+0x14a>
     284:	0189      	lsls	r1, r1, #6
     286:	1192      	asrs	r2, r2, #6
     288:	428b      	cmp	r3, r1
     28a:	d308      	bcc.n	29e <__divsi3+0x14a>
     28c:	0189      	lsls	r1, r1, #6
     28e:	1192      	asrs	r2, r2, #6
     290:	428b      	cmp	r3, r1
     292:	d304      	bcc.n	29e <__divsi3+0x14a>
     294:	0189      	lsls	r1, r1, #6
     296:	d03a      	beq.n	30e <__divsi3+0x1ba>
     298:	1192      	asrs	r2, r2, #6
     29a:	e000      	b.n	29e <__divsi3+0x14a>
     29c:	0989      	lsrs	r1, r1, #6
     29e:	09c3      	lsrs	r3, r0, #7
     2a0:	428b      	cmp	r3, r1
     2a2:	d301      	bcc.n	2a8 <__divsi3+0x154>
     2a4:	01cb      	lsls	r3, r1, #7
     2a6:	1ac0      	subs	r0, r0, r3
     2a8:	4152      	adcs	r2, r2
     2aa:	0983      	lsrs	r3, r0, #6
     2ac:	428b      	cmp	r3, r1
     2ae:	d301      	bcc.n	2b4 <__divsi3+0x160>
     2b0:	018b      	lsls	r3, r1, #6
     2b2:	1ac0      	subs	r0, r0, r3
     2b4:	4152      	adcs	r2, r2
     2b6:	0943      	lsrs	r3, r0, #5
     2b8:	428b      	cmp	r3, r1
     2ba:	d301      	bcc.n	2c0 <__divsi3+0x16c>
     2bc:	014b      	lsls	r3, r1, #5
     2be:	1ac0      	subs	r0, r0, r3
     2c0:	4152      	adcs	r2, r2
     2c2:	0903      	lsrs	r3, r0, #4
     2c4:	428b      	cmp	r3, r1
     2c6:	d301      	bcc.n	2cc <__divsi3+0x178>
     2c8:	010b      	lsls	r3, r1, #4
     2ca:	1ac0      	subs	r0, r0, r3
     2cc:	4152      	adcs	r2, r2
     2ce:	08c3      	lsrs	r3, r0, #3
     2d0:	428b      	cmp	r3, r1
     2d2:	d301      	bcc.n	2d8 <__divsi3+0x184>
     2d4:	00cb      	lsls	r3, r1, #3
     2d6:	1ac0      	subs	r0, r0, r3
     2d8:	4152      	adcs	r2, r2
     2da:	0883      	lsrs	r3, r0, #2
     2dc:	428b      	cmp	r3, r1
     2de:	d301      	bcc.n	2e4 <__divsi3+0x190>
     2e0:	008b      	lsls	r3, r1, #2
     2e2:	1ac0      	subs	r0, r0, r3
     2e4:	4152      	adcs	r2, r2
     2e6:	d2d9      	bcs.n	29c <__divsi3+0x148>
     2e8:	0843      	lsrs	r3, r0, #1
     2ea:	428b      	cmp	r3, r1
     2ec:	d301      	bcc.n	2f2 <__divsi3+0x19e>
     2ee:	004b      	lsls	r3, r1, #1
     2f0:	1ac0      	subs	r0, r0, r3
     2f2:	4152      	adcs	r2, r2
     2f4:	1a41      	subs	r1, r0, r1
     2f6:	d200      	bcs.n	2fa <__divsi3+0x1a6>
     2f8:	4601      	mov	r1, r0
     2fa:	4663      	mov	r3, ip
     2fc:	4152      	adcs	r2, r2
     2fe:	105b      	asrs	r3, r3, #1
     300:	4610      	mov	r0, r2
     302:	d301      	bcc.n	308 <__divsi3+0x1b4>
     304:	4240      	negs	r0, r0
     306:	2b00      	cmp	r3, #0
     308:	d500      	bpl.n	30c <__divsi3+0x1b8>
     30a:	4249      	negs	r1, r1
     30c:	4770      	bx	lr
     30e:	4663      	mov	r3, ip
     310:	105b      	asrs	r3, r3, #1
     312:	d300      	bcc.n	316 <__divsi3+0x1c2>
     314:	4240      	negs	r0, r0
     316:	b501      	push	{r0, lr}
     318:	2000      	movs	r0, #0
     31a:	f000 f805 	bl	328 <__aeabi_idiv0>
     31e:	bd02      	pop	{r1, pc}

00000320 <__aeabi_idivmod>:
     320:	2900      	cmp	r1, #0
     322:	d0f8      	beq.n	316 <__divsi3+0x1c2>
     324:	e716      	b.n	154 <__divsi3>
     326:	4770      	bx	lr

00000328 <__aeabi_idiv0>:
     328:	4770      	bx	lr
     32a:	46c0      	nop			; (mov r8, r8)

0000032c <__aeabi_cdrcmple>:
     32c:	4684      	mov	ip, r0
     32e:	0010      	movs	r0, r2
     330:	4662      	mov	r2, ip
     332:	468c      	mov	ip, r1
     334:	0019      	movs	r1, r3
     336:	4663      	mov	r3, ip
     338:	e000      	b.n	33c <__aeabi_cdcmpeq>
     33a:	46c0      	nop			; (mov r8, r8)

0000033c <__aeabi_cdcmpeq>:
     33c:	b51f      	push	{r0, r1, r2, r3, r4, lr}
     33e:	f000 fff9 	bl	1334 <__ledf2>
     342:	2800      	cmp	r0, #0
     344:	d401      	bmi.n	34a <__aeabi_cdcmpeq+0xe>
     346:	2100      	movs	r1, #0
     348:	42c8      	cmn	r0, r1
     34a:	bd1f      	pop	{r0, r1, r2, r3, r4, pc}

0000034c <__aeabi_dcmpeq>:
     34c:	b510      	push	{r4, lr}
     34e:	f000 ff49 	bl	11e4 <__eqdf2>
     352:	4240      	negs	r0, r0
     354:	3001      	adds	r0, #1
     356:	bd10      	pop	{r4, pc}

00000358 <__aeabi_dcmplt>:
     358:	b510      	push	{r4, lr}
     35a:	f000 ffeb 	bl	1334 <__ledf2>
     35e:	2800      	cmp	r0, #0
     360:	db01      	blt.n	366 <__aeabi_dcmplt+0xe>
     362:	2000      	movs	r0, #0
     364:	bd10      	pop	{r4, pc}
     366:	2001      	movs	r0, #1
     368:	bd10      	pop	{r4, pc}
     36a:	46c0      	nop			; (mov r8, r8)

0000036c <__aeabi_dcmple>:
     36c:	b510      	push	{r4, lr}
     36e:	f000 ffe1 	bl	1334 <__ledf2>
     372:	2800      	cmp	r0, #0
     374:	dd01      	ble.n	37a <__aeabi_dcmple+0xe>
     376:	2000      	movs	r0, #0
     378:	bd10      	pop	{r4, pc}
     37a:	2001      	movs	r0, #1
     37c:	bd10      	pop	{r4, pc}
     37e:	46c0      	nop			; (mov r8, r8)

00000380 <__aeabi_dcmpgt>:
     380:	b510      	push	{r4, lr}
     382:	f000 ff71 	bl	1268 <__gedf2>
     386:	2800      	cmp	r0, #0
     388:	dc01      	bgt.n	38e <__aeabi_dcmpgt+0xe>
     38a:	2000      	movs	r0, #0
     38c:	bd10      	pop	{r4, pc}
     38e:	2001      	movs	r0, #1
     390:	bd10      	pop	{r4, pc}
     392:	46c0      	nop			; (mov r8, r8)

00000394 <__aeabi_dcmpge>:
     394:	b510      	push	{r4, lr}
     396:	f000 ff67 	bl	1268 <__gedf2>
     39a:	2800      	cmp	r0, #0
     39c:	da01      	bge.n	3a2 <__aeabi_dcmpge+0xe>
     39e:	2000      	movs	r0, #0
     3a0:	bd10      	pop	{r4, pc}
     3a2:	2001      	movs	r0, #1
     3a4:	bd10      	pop	{r4, pc}
     3a6:	46c0      	nop			; (mov r8, r8)

000003a8 <__aeabi_uldivmod>:
     3a8:	2b00      	cmp	r3, #0
     3aa:	d111      	bne.n	3d0 <__aeabi_uldivmod+0x28>
     3ac:	2a00      	cmp	r2, #0
     3ae:	d10f      	bne.n	3d0 <__aeabi_uldivmod+0x28>
     3b0:	2900      	cmp	r1, #0
     3b2:	d100      	bne.n	3b6 <__aeabi_uldivmod+0xe>
     3b4:	2800      	cmp	r0, #0
     3b6:	d002      	beq.n	3be <__aeabi_uldivmod+0x16>
     3b8:	2100      	movs	r1, #0
     3ba:	43c9      	mvns	r1, r1
     3bc:	0008      	movs	r0, r1
     3be:	b407      	push	{r0, r1, r2}
     3c0:	4802      	ldr	r0, [pc, #8]	; (3cc <__aeabi_uldivmod+0x24>)
     3c2:	a102      	add	r1, pc, #8	; (adr r1, 3cc <__aeabi_uldivmod+0x24>)
     3c4:	1840      	adds	r0, r0, r1
     3c6:	9002      	str	r0, [sp, #8]
     3c8:	bd03      	pop	{r0, r1, pc}
     3ca:	46c0      	nop			; (mov r8, r8)
     3cc:	ffffff5d 	.word	0xffffff5d
     3d0:	b403      	push	{r0, r1}
     3d2:	4668      	mov	r0, sp
     3d4:	b501      	push	{r0, lr}
     3d6:	9802      	ldr	r0, [sp, #8]
     3d8:	f000 f806 	bl	3e8 <__udivmoddi4>
     3dc:	9b01      	ldr	r3, [sp, #4]
     3de:	469e      	mov	lr, r3
     3e0:	b002      	add	sp, #8
     3e2:	bc0c      	pop	{r2, r3}
     3e4:	4770      	bx	lr
     3e6:	46c0      	nop			; (mov r8, r8)

000003e8 <__udivmoddi4>:
     3e8:	b5f0      	push	{r4, r5, r6, r7, lr}
     3ea:	4657      	mov	r7, sl
     3ec:	464e      	mov	r6, r9
     3ee:	4645      	mov	r5, r8
     3f0:	46de      	mov	lr, fp
     3f2:	b5e0      	push	{r5, r6, r7, lr}
     3f4:	0004      	movs	r4, r0
     3f6:	000d      	movs	r5, r1
     3f8:	4692      	mov	sl, r2
     3fa:	4699      	mov	r9, r3
     3fc:	b083      	sub	sp, #12
     3fe:	428b      	cmp	r3, r1
     400:	d830      	bhi.n	464 <__udivmoddi4+0x7c>
     402:	d02d      	beq.n	460 <__udivmoddi4+0x78>
     404:	4649      	mov	r1, r9
     406:	4650      	mov	r0, sl
     408:	f001 febe 	bl	2188 <__clzdi2>
     40c:	0029      	movs	r1, r5
     40e:	0006      	movs	r6, r0
     410:	0020      	movs	r0, r4
     412:	f001 feb9 	bl	2188 <__clzdi2>
     416:	1a33      	subs	r3, r6, r0
     418:	4698      	mov	r8, r3
     41a:	3b20      	subs	r3, #32
     41c:	469b      	mov	fp, r3
     41e:	d433      	bmi.n	488 <__udivmoddi4+0xa0>
     420:	465a      	mov	r2, fp
     422:	4653      	mov	r3, sl
     424:	4093      	lsls	r3, r2
     426:	4642      	mov	r2, r8
     428:	001f      	movs	r7, r3
     42a:	4653      	mov	r3, sl
     42c:	4093      	lsls	r3, r2
     42e:	001e      	movs	r6, r3
     430:	42af      	cmp	r7, r5
     432:	d83a      	bhi.n	4aa <__udivmoddi4+0xc2>
     434:	42af      	cmp	r7, r5
     436:	d100      	bne.n	43a <__udivmoddi4+0x52>
     438:	e078      	b.n	52c <__udivmoddi4+0x144>
     43a:	465b      	mov	r3, fp
     43c:	1ba4      	subs	r4, r4, r6
     43e:	41bd      	sbcs	r5, r7
     440:	2b00      	cmp	r3, #0
     442:	da00      	bge.n	446 <__udivmoddi4+0x5e>
     444:	e075      	b.n	532 <__udivmoddi4+0x14a>
     446:	2200      	movs	r2, #0
     448:	2300      	movs	r3, #0
     44a:	9200      	str	r2, [sp, #0]
     44c:	9301      	str	r3, [sp, #4]
     44e:	2301      	movs	r3, #1
     450:	465a      	mov	r2, fp
     452:	4093      	lsls	r3, r2
     454:	9301      	str	r3, [sp, #4]
     456:	2301      	movs	r3, #1
     458:	4642      	mov	r2, r8
     45a:	4093      	lsls	r3, r2
     45c:	9300      	str	r3, [sp, #0]
     45e:	e028      	b.n	4b2 <__udivmoddi4+0xca>
     460:	4282      	cmp	r2, r0
     462:	d9cf      	bls.n	404 <__udivmoddi4+0x1c>
     464:	2200      	movs	r2, #0
     466:	2300      	movs	r3, #0
     468:	9200      	str	r2, [sp, #0]
     46a:	9301      	str	r3, [sp, #4]
     46c:	9b0c      	ldr	r3, [sp, #48]	; 0x30
     46e:	2b00      	cmp	r3, #0
     470:	d001      	beq.n	476 <__udivmoddi4+0x8e>
     472:	601c      	str	r4, [r3, #0]
     474:	605d      	str	r5, [r3, #4]
     476:	9800      	ldr	r0, [sp, #0]
     478:	9901      	ldr	r1, [sp, #4]
     47a:	b003      	add	sp, #12
     47c:	bcf0      	pop	{r4, r5, r6, r7}
     47e:	46bb      	mov	fp, r7
     480:	46b2      	mov	sl, r6
     482:	46a9      	mov	r9, r5
     484:	46a0      	mov	r8, r4
     486:	bdf0      	pop	{r4, r5, r6, r7, pc}
     488:	4642      	mov	r2, r8
     48a:	2320      	movs	r3, #32
     48c:	1a9b      	subs	r3, r3, r2
     48e:	4652      	mov	r2, sl
     490:	40da      	lsrs	r2, r3
     492:	4641      	mov	r1, r8
     494:	0013      	movs	r3, r2
     496:	464a      	mov	r2, r9
     498:	408a      	lsls	r2, r1
     49a:	0017      	movs	r7, r2
     49c:	4642      	mov	r2, r8
     49e:	431f      	orrs	r7, r3
     4a0:	4653      	mov	r3, sl
     4a2:	4093      	lsls	r3, r2
     4a4:	001e      	movs	r6, r3
     4a6:	42af      	cmp	r7, r5
     4a8:	d9c4      	bls.n	434 <__udivmoddi4+0x4c>
     4aa:	2200      	movs	r2, #0
     4ac:	2300      	movs	r3, #0
     4ae:	9200      	str	r2, [sp, #0]
     4b0:	9301      	str	r3, [sp, #4]
     4b2:	4643      	mov	r3, r8
     4b4:	2b00      	cmp	r3, #0
     4b6:	d0d9      	beq.n	46c <__udivmoddi4+0x84>
     4b8:	07fb      	lsls	r3, r7, #31
     4ba:	0872      	lsrs	r2, r6, #1
     4bc:	431a      	orrs	r2, r3
     4be:	4646      	mov	r6, r8
     4c0:	087b      	lsrs	r3, r7, #1
     4c2:	e00e      	b.n	4e2 <__udivmoddi4+0xfa>
     4c4:	42ab      	cmp	r3, r5
     4c6:	d101      	bne.n	4cc <__udivmoddi4+0xe4>
     4c8:	42a2      	cmp	r2, r4
     4ca:	d80c      	bhi.n	4e6 <__udivmoddi4+0xfe>
     4cc:	1aa4      	subs	r4, r4, r2
     4ce:	419d      	sbcs	r5, r3
     4d0:	2001      	movs	r0, #1
     4d2:	1924      	adds	r4, r4, r4
     4d4:	416d      	adcs	r5, r5
     4d6:	2100      	movs	r1, #0
     4d8:	3e01      	subs	r6, #1
     4da:	1824      	adds	r4, r4, r0
     4dc:	414d      	adcs	r5, r1
     4de:	2e00      	cmp	r6, #0
     4e0:	d006      	beq.n	4f0 <__udivmoddi4+0x108>
     4e2:	42ab      	cmp	r3, r5
     4e4:	d9ee      	bls.n	4c4 <__udivmoddi4+0xdc>
     4e6:	3e01      	subs	r6, #1
     4e8:	1924      	adds	r4, r4, r4
     4ea:	416d      	adcs	r5, r5
     4ec:	2e00      	cmp	r6, #0
     4ee:	d1f8      	bne.n	4e2 <__udivmoddi4+0xfa>
     4f0:	9800      	ldr	r0, [sp, #0]
     4f2:	9901      	ldr	r1, [sp, #4]
     4f4:	465b      	mov	r3, fp
     4f6:	1900      	adds	r0, r0, r4
     4f8:	4169      	adcs	r1, r5
     4fa:	2b00      	cmp	r3, #0
     4fc:	db24      	blt.n	548 <__udivmoddi4+0x160>
     4fe:	002b      	movs	r3, r5
     500:	465a      	mov	r2, fp
     502:	4644      	mov	r4, r8
     504:	40d3      	lsrs	r3, r2
     506:	002a      	movs	r2, r5
     508:	40e2      	lsrs	r2, r4
     50a:	001c      	movs	r4, r3
     50c:	465b      	mov	r3, fp
     50e:	0015      	movs	r5, r2
     510:	2b00      	cmp	r3, #0
     512:	db2a      	blt.n	56a <__udivmoddi4+0x182>
     514:	0026      	movs	r6, r4
     516:	409e      	lsls	r6, r3
     518:	0033      	movs	r3, r6
     51a:	0026      	movs	r6, r4
     51c:	4647      	mov	r7, r8
     51e:	40be      	lsls	r6, r7
     520:	0032      	movs	r2, r6
     522:	1a80      	subs	r0, r0, r2
     524:	4199      	sbcs	r1, r3
     526:	9000      	str	r0, [sp, #0]
     528:	9101      	str	r1, [sp, #4]
     52a:	e79f      	b.n	46c <__udivmoddi4+0x84>
     52c:	42a3      	cmp	r3, r4
     52e:	d8bc      	bhi.n	4aa <__udivmoddi4+0xc2>
     530:	e783      	b.n	43a <__udivmoddi4+0x52>
     532:	4642      	mov	r2, r8
     534:	2320      	movs	r3, #32
     536:	2100      	movs	r1, #0
     538:	1a9b      	subs	r3, r3, r2
     53a:	2200      	movs	r2, #0
     53c:	9100      	str	r1, [sp, #0]
     53e:	9201      	str	r2, [sp, #4]
     540:	2201      	movs	r2, #1
     542:	40da      	lsrs	r2, r3
     544:	9201      	str	r2, [sp, #4]
     546:	e786      	b.n	456 <__udivmoddi4+0x6e>
     548:	4642      	mov	r2, r8
     54a:	2320      	movs	r3, #32
     54c:	1a9b      	subs	r3, r3, r2
     54e:	002a      	movs	r2, r5
     550:	4646      	mov	r6, r8
     552:	409a      	lsls	r2, r3
     554:	0023      	movs	r3, r4
     556:	40f3      	lsrs	r3, r6
     558:	4644      	mov	r4, r8
     55a:	4313      	orrs	r3, r2
     55c:	002a      	movs	r2, r5
     55e:	40e2      	lsrs	r2, r4
     560:	001c      	movs	r4, r3
     562:	465b      	mov	r3, fp
     564:	0015      	movs	r5, r2
     566:	2b00      	cmp	r3, #0
     568:	dad4      	bge.n	514 <__udivmoddi4+0x12c>
     56a:	4642      	mov	r2, r8
     56c:	002f      	movs	r7, r5
     56e:	2320      	movs	r3, #32
     570:	0026      	movs	r6, r4
     572:	4097      	lsls	r7, r2
     574:	1a9b      	subs	r3, r3, r2
     576:	40de      	lsrs	r6, r3
     578:	003b      	movs	r3, r7
     57a:	4333      	orrs	r3, r6
     57c:	e7cd      	b.n	51a <__udivmoddi4+0x132>
     57e:	46c0      	nop			; (mov r8, r8)

00000580 <__aeabi_dadd>:
     580:	b5f0      	push	{r4, r5, r6, r7, lr}
     582:	464f      	mov	r7, r9
     584:	4646      	mov	r6, r8
     586:	46d6      	mov	lr, sl
     588:	000d      	movs	r5, r1
     58a:	0004      	movs	r4, r0
     58c:	b5c0      	push	{r6, r7, lr}
     58e:	001f      	movs	r7, r3
     590:	0011      	movs	r1, r2
     592:	0328      	lsls	r0, r5, #12
     594:	0f62      	lsrs	r2, r4, #29
     596:	0a40      	lsrs	r0, r0, #9
     598:	4310      	orrs	r0, r2
     59a:	007a      	lsls	r2, r7, #1
     59c:	0d52      	lsrs	r2, r2, #21
     59e:	00e3      	lsls	r3, r4, #3
     5a0:	033c      	lsls	r4, r7, #12
     5a2:	4691      	mov	r9, r2
     5a4:	0a64      	lsrs	r4, r4, #9
     5a6:	0ffa      	lsrs	r2, r7, #31
     5a8:	0f4f      	lsrs	r7, r1, #29
     5aa:	006e      	lsls	r6, r5, #1
     5ac:	4327      	orrs	r7, r4
     5ae:	4692      	mov	sl, r2
     5b0:	46b8      	mov	r8, r7
     5b2:	0d76      	lsrs	r6, r6, #21
     5b4:	0fed      	lsrs	r5, r5, #31
     5b6:	00c9      	lsls	r1, r1, #3
     5b8:	4295      	cmp	r5, r2
     5ba:	d100      	bne.n	5be <__aeabi_dadd+0x3e>
     5bc:	e099      	b.n	6f2 <__aeabi_dadd+0x172>
     5be:	464c      	mov	r4, r9
     5c0:	1b34      	subs	r4, r6, r4
     5c2:	46a4      	mov	ip, r4
     5c4:	2c00      	cmp	r4, #0
     5c6:	dc00      	bgt.n	5ca <__aeabi_dadd+0x4a>
     5c8:	e07c      	b.n	6c4 <__aeabi_dadd+0x144>
     5ca:	464a      	mov	r2, r9
     5cc:	2a00      	cmp	r2, #0
     5ce:	d100      	bne.n	5d2 <__aeabi_dadd+0x52>
     5d0:	e0b8      	b.n	744 <__aeabi_dadd+0x1c4>
     5d2:	4ac5      	ldr	r2, [pc, #788]	; (8e8 <_minimum_stack_size+0xe8>)
     5d4:	4296      	cmp	r6, r2
     5d6:	d100      	bne.n	5da <__aeabi_dadd+0x5a>
     5d8:	e11c      	b.n	814 <_minimum_stack_size+0x14>
     5da:	2280      	movs	r2, #128	; 0x80
     5dc:	003c      	movs	r4, r7
     5de:	0412      	lsls	r2, r2, #16
     5e0:	4314      	orrs	r4, r2
     5e2:	46a0      	mov	r8, r4
     5e4:	4662      	mov	r2, ip
     5e6:	2a38      	cmp	r2, #56	; 0x38
     5e8:	dd00      	ble.n	5ec <__aeabi_dadd+0x6c>
     5ea:	e161      	b.n	8b0 <_minimum_stack_size+0xb0>
     5ec:	2a1f      	cmp	r2, #31
     5ee:	dd00      	ble.n	5f2 <__aeabi_dadd+0x72>
     5f0:	e1cc      	b.n	98c <_minimum_stack_size+0x18c>
     5f2:	4664      	mov	r4, ip
     5f4:	2220      	movs	r2, #32
     5f6:	1b12      	subs	r2, r2, r4
     5f8:	4644      	mov	r4, r8
     5fa:	4094      	lsls	r4, r2
     5fc:	000f      	movs	r7, r1
     5fe:	46a1      	mov	r9, r4
     600:	4664      	mov	r4, ip
     602:	4091      	lsls	r1, r2
     604:	40e7      	lsrs	r7, r4
     606:	464c      	mov	r4, r9
     608:	1e4a      	subs	r2, r1, #1
     60a:	4191      	sbcs	r1, r2
     60c:	433c      	orrs	r4, r7
     60e:	4642      	mov	r2, r8
     610:	4321      	orrs	r1, r4
     612:	4664      	mov	r4, ip
     614:	40e2      	lsrs	r2, r4
     616:	1a80      	subs	r0, r0, r2
     618:	1a5c      	subs	r4, r3, r1
     61a:	42a3      	cmp	r3, r4
     61c:	419b      	sbcs	r3, r3
     61e:	425f      	negs	r7, r3
     620:	1bc7      	subs	r7, r0, r7
     622:	023b      	lsls	r3, r7, #8
     624:	d400      	bmi.n	628 <__aeabi_dadd+0xa8>
     626:	e0d0      	b.n	7ca <__aeabi_dadd+0x24a>
     628:	027f      	lsls	r7, r7, #9
     62a:	0a7f      	lsrs	r7, r7, #9
     62c:	2f00      	cmp	r7, #0
     62e:	d100      	bne.n	632 <__aeabi_dadd+0xb2>
     630:	e0ff      	b.n	832 <_minimum_stack_size+0x32>
     632:	0038      	movs	r0, r7
     634:	f001 fd8a 	bl	214c <__clzsi2>
     638:	0001      	movs	r1, r0
     63a:	3908      	subs	r1, #8
     63c:	2320      	movs	r3, #32
     63e:	0022      	movs	r2, r4
     640:	1a5b      	subs	r3, r3, r1
     642:	408f      	lsls	r7, r1
     644:	40da      	lsrs	r2, r3
     646:	408c      	lsls	r4, r1
     648:	4317      	orrs	r7, r2
     64a:	42b1      	cmp	r1, r6
     64c:	da00      	bge.n	650 <__aeabi_dadd+0xd0>
     64e:	e0ff      	b.n	850 <_minimum_stack_size+0x50>
     650:	1b89      	subs	r1, r1, r6
     652:	1c4b      	adds	r3, r1, #1
     654:	2b1f      	cmp	r3, #31
     656:	dd00      	ble.n	65a <__aeabi_dadd+0xda>
     658:	e0a8      	b.n	7ac <__aeabi_dadd+0x22c>
     65a:	2220      	movs	r2, #32
     65c:	0039      	movs	r1, r7
     65e:	1ad2      	subs	r2, r2, r3
     660:	0020      	movs	r0, r4
     662:	4094      	lsls	r4, r2
     664:	4091      	lsls	r1, r2
     666:	40d8      	lsrs	r0, r3
     668:	1e62      	subs	r2, r4, #1
     66a:	4194      	sbcs	r4, r2
     66c:	40df      	lsrs	r7, r3
     66e:	2600      	movs	r6, #0
     670:	4301      	orrs	r1, r0
     672:	430c      	orrs	r4, r1
     674:	0763      	lsls	r3, r4, #29
     676:	d009      	beq.n	68c <__aeabi_dadd+0x10c>
     678:	230f      	movs	r3, #15
     67a:	4023      	ands	r3, r4
     67c:	2b04      	cmp	r3, #4
     67e:	d005      	beq.n	68c <__aeabi_dadd+0x10c>
     680:	1d23      	adds	r3, r4, #4
     682:	42a3      	cmp	r3, r4
     684:	41a4      	sbcs	r4, r4
     686:	4264      	negs	r4, r4
     688:	193f      	adds	r7, r7, r4
     68a:	001c      	movs	r4, r3
     68c:	023b      	lsls	r3, r7, #8
     68e:	d400      	bmi.n	692 <__aeabi_dadd+0x112>
     690:	e09e      	b.n	7d0 <__aeabi_dadd+0x250>
     692:	4b95      	ldr	r3, [pc, #596]	; (8e8 <_minimum_stack_size+0xe8>)
     694:	3601      	adds	r6, #1
     696:	429e      	cmp	r6, r3
     698:	d100      	bne.n	69c <__aeabi_dadd+0x11c>
     69a:	e0b7      	b.n	80c <_minimum_stack_size+0xc>
     69c:	4a93      	ldr	r2, [pc, #588]	; (8ec <_minimum_stack_size+0xec>)
     69e:	08e4      	lsrs	r4, r4, #3
     6a0:	4017      	ands	r7, r2
     6a2:	077b      	lsls	r3, r7, #29
     6a4:	0571      	lsls	r1, r6, #21
     6a6:	027f      	lsls	r7, r7, #9
     6a8:	4323      	orrs	r3, r4
     6aa:	0b3f      	lsrs	r7, r7, #12
     6ac:	0d4a      	lsrs	r2, r1, #21
     6ae:	0512      	lsls	r2, r2, #20
     6b0:	433a      	orrs	r2, r7
     6b2:	07ed      	lsls	r5, r5, #31
     6b4:	432a      	orrs	r2, r5
     6b6:	0018      	movs	r0, r3
     6b8:	0011      	movs	r1, r2
     6ba:	bce0      	pop	{r5, r6, r7}
     6bc:	46ba      	mov	sl, r7
     6be:	46b1      	mov	r9, r6
     6c0:	46a8      	mov	r8, r5
     6c2:	bdf0      	pop	{r4, r5, r6, r7, pc}
     6c4:	2c00      	cmp	r4, #0
     6c6:	d04b      	beq.n	760 <__aeabi_dadd+0x1e0>
     6c8:	464c      	mov	r4, r9
     6ca:	1ba4      	subs	r4, r4, r6
     6cc:	46a4      	mov	ip, r4
     6ce:	2e00      	cmp	r6, #0
     6d0:	d000      	beq.n	6d4 <__aeabi_dadd+0x154>
     6d2:	e123      	b.n	91c <_minimum_stack_size+0x11c>
     6d4:	0004      	movs	r4, r0
     6d6:	431c      	orrs	r4, r3
     6d8:	d100      	bne.n	6dc <__aeabi_dadd+0x15c>
     6da:	e1af      	b.n	a3c <_minimum_stack_size+0x23c>
     6dc:	4662      	mov	r2, ip
     6de:	1e54      	subs	r4, r2, #1
     6e0:	2a01      	cmp	r2, #1
     6e2:	d100      	bne.n	6e6 <__aeabi_dadd+0x166>
     6e4:	e215      	b.n	b12 <_minimum_stack_size+0x312>
     6e6:	4d80      	ldr	r5, [pc, #512]	; (8e8 <_minimum_stack_size+0xe8>)
     6e8:	45ac      	cmp	ip, r5
     6ea:	d100      	bne.n	6ee <__aeabi_dadd+0x16e>
     6ec:	e1c8      	b.n	a80 <_minimum_stack_size+0x280>
     6ee:	46a4      	mov	ip, r4
     6f0:	e11b      	b.n	92a <_minimum_stack_size+0x12a>
     6f2:	464a      	mov	r2, r9
     6f4:	1ab2      	subs	r2, r6, r2
     6f6:	4694      	mov	ip, r2
     6f8:	2a00      	cmp	r2, #0
     6fa:	dc00      	bgt.n	6fe <__aeabi_dadd+0x17e>
     6fc:	e0ac      	b.n	858 <_minimum_stack_size+0x58>
     6fe:	464a      	mov	r2, r9
     700:	2a00      	cmp	r2, #0
     702:	d043      	beq.n	78c <__aeabi_dadd+0x20c>
     704:	4a78      	ldr	r2, [pc, #480]	; (8e8 <_minimum_stack_size+0xe8>)
     706:	4296      	cmp	r6, r2
     708:	d100      	bne.n	70c <__aeabi_dadd+0x18c>
     70a:	e1af      	b.n	a6c <_minimum_stack_size+0x26c>
     70c:	2280      	movs	r2, #128	; 0x80
     70e:	003c      	movs	r4, r7
     710:	0412      	lsls	r2, r2, #16
     712:	4314      	orrs	r4, r2
     714:	46a0      	mov	r8, r4
     716:	4662      	mov	r2, ip
     718:	2a38      	cmp	r2, #56	; 0x38
     71a:	dc67      	bgt.n	7ec <__aeabi_dadd+0x26c>
     71c:	2a1f      	cmp	r2, #31
     71e:	dc00      	bgt.n	722 <__aeabi_dadd+0x1a2>
     720:	e15f      	b.n	9e2 <_minimum_stack_size+0x1e2>
     722:	4647      	mov	r7, r8
     724:	3a20      	subs	r2, #32
     726:	40d7      	lsrs	r7, r2
     728:	4662      	mov	r2, ip
     72a:	2a20      	cmp	r2, #32
     72c:	d005      	beq.n	73a <__aeabi_dadd+0x1ba>
     72e:	4664      	mov	r4, ip
     730:	2240      	movs	r2, #64	; 0x40
     732:	1b12      	subs	r2, r2, r4
     734:	4644      	mov	r4, r8
     736:	4094      	lsls	r4, r2
     738:	4321      	orrs	r1, r4
     73a:	1e4a      	subs	r2, r1, #1
     73c:	4191      	sbcs	r1, r2
     73e:	000c      	movs	r4, r1
     740:	433c      	orrs	r4, r7
     742:	e057      	b.n	7f4 <__aeabi_dadd+0x274>
     744:	003a      	movs	r2, r7
     746:	430a      	orrs	r2, r1
     748:	d100      	bne.n	74c <__aeabi_dadd+0x1cc>
     74a:	e105      	b.n	958 <_minimum_stack_size+0x158>
     74c:	0022      	movs	r2, r4
     74e:	3a01      	subs	r2, #1
     750:	2c01      	cmp	r4, #1
     752:	d100      	bne.n	756 <__aeabi_dadd+0x1d6>
     754:	e182      	b.n	a5c <_minimum_stack_size+0x25c>
     756:	4c64      	ldr	r4, [pc, #400]	; (8e8 <_minimum_stack_size+0xe8>)
     758:	45a4      	cmp	ip, r4
     75a:	d05b      	beq.n	814 <_minimum_stack_size+0x14>
     75c:	4694      	mov	ip, r2
     75e:	e741      	b.n	5e4 <__aeabi_dadd+0x64>
     760:	4c63      	ldr	r4, [pc, #396]	; (8f0 <_minimum_stack_size+0xf0>)
     762:	1c77      	adds	r7, r6, #1
     764:	4227      	tst	r7, r4
     766:	d000      	beq.n	76a <__aeabi_dadd+0x1ea>
     768:	e0c4      	b.n	8f4 <_minimum_stack_size+0xf4>
     76a:	0004      	movs	r4, r0
     76c:	431c      	orrs	r4, r3
     76e:	2e00      	cmp	r6, #0
     770:	d000      	beq.n	774 <__aeabi_dadd+0x1f4>
     772:	e169      	b.n	a48 <_minimum_stack_size+0x248>
     774:	2c00      	cmp	r4, #0
     776:	d100      	bne.n	77a <__aeabi_dadd+0x1fa>
     778:	e1bf      	b.n	afa <_minimum_stack_size+0x2fa>
     77a:	4644      	mov	r4, r8
     77c:	430c      	orrs	r4, r1
     77e:	d000      	beq.n	782 <__aeabi_dadd+0x202>
     780:	e1d0      	b.n	b24 <_minimum_stack_size+0x324>
     782:	0742      	lsls	r2, r0, #29
     784:	08db      	lsrs	r3, r3, #3
     786:	4313      	orrs	r3, r2
     788:	08c0      	lsrs	r0, r0, #3
     78a:	e029      	b.n	7e0 <__aeabi_dadd+0x260>
     78c:	003a      	movs	r2, r7
     78e:	430a      	orrs	r2, r1
     790:	d100      	bne.n	794 <__aeabi_dadd+0x214>
     792:	e170      	b.n	a76 <_minimum_stack_size+0x276>
     794:	4662      	mov	r2, ip
     796:	4664      	mov	r4, ip
     798:	3a01      	subs	r2, #1
     79a:	2c01      	cmp	r4, #1
     79c:	d100      	bne.n	7a0 <__aeabi_dadd+0x220>
     79e:	e0e0      	b.n	962 <_minimum_stack_size+0x162>
     7a0:	4c51      	ldr	r4, [pc, #324]	; (8e8 <_minimum_stack_size+0xe8>)
     7a2:	45a4      	cmp	ip, r4
     7a4:	d100      	bne.n	7a8 <__aeabi_dadd+0x228>
     7a6:	e161      	b.n	a6c <_minimum_stack_size+0x26c>
     7a8:	4694      	mov	ip, r2
     7aa:	e7b4      	b.n	716 <__aeabi_dadd+0x196>
     7ac:	003a      	movs	r2, r7
     7ae:	391f      	subs	r1, #31
     7b0:	40ca      	lsrs	r2, r1
     7b2:	0011      	movs	r1, r2
     7b4:	2b20      	cmp	r3, #32
     7b6:	d003      	beq.n	7c0 <__aeabi_dadd+0x240>
     7b8:	2240      	movs	r2, #64	; 0x40
     7ba:	1ad3      	subs	r3, r2, r3
     7bc:	409f      	lsls	r7, r3
     7be:	433c      	orrs	r4, r7
     7c0:	1e63      	subs	r3, r4, #1
     7c2:	419c      	sbcs	r4, r3
     7c4:	2700      	movs	r7, #0
     7c6:	2600      	movs	r6, #0
     7c8:	430c      	orrs	r4, r1
     7ca:	0763      	lsls	r3, r4, #29
     7cc:	d000      	beq.n	7d0 <__aeabi_dadd+0x250>
     7ce:	e753      	b.n	678 <__aeabi_dadd+0xf8>
     7d0:	46b4      	mov	ip, r6
     7d2:	08e4      	lsrs	r4, r4, #3
     7d4:	077b      	lsls	r3, r7, #29
     7d6:	4323      	orrs	r3, r4
     7d8:	08f8      	lsrs	r0, r7, #3
     7da:	4a43      	ldr	r2, [pc, #268]	; (8e8 <_minimum_stack_size+0xe8>)
     7dc:	4594      	cmp	ip, r2
     7de:	d01d      	beq.n	81c <_minimum_stack_size+0x1c>
     7e0:	4662      	mov	r2, ip
     7e2:	0307      	lsls	r7, r0, #12
     7e4:	0552      	lsls	r2, r2, #21
     7e6:	0b3f      	lsrs	r7, r7, #12
     7e8:	0d52      	lsrs	r2, r2, #21
     7ea:	e760      	b.n	6ae <__aeabi_dadd+0x12e>
     7ec:	4644      	mov	r4, r8
     7ee:	430c      	orrs	r4, r1
     7f0:	1e62      	subs	r2, r4, #1
     7f2:	4194      	sbcs	r4, r2
     7f4:	18e4      	adds	r4, r4, r3
     7f6:	429c      	cmp	r4, r3
     7f8:	419b      	sbcs	r3, r3
     7fa:	425f      	negs	r7, r3
     7fc:	183f      	adds	r7, r7, r0
     7fe:	023b      	lsls	r3, r7, #8
     800:	d5e3      	bpl.n	7ca <__aeabi_dadd+0x24a>
     802:	4b39      	ldr	r3, [pc, #228]	; (8e8 <_minimum_stack_size+0xe8>)
     804:	3601      	adds	r6, #1
     806:	429e      	cmp	r6, r3
     808:	d000      	beq.n	80c <_minimum_stack_size+0xc>
     80a:	e0b5      	b.n	978 <_minimum_stack_size+0x178>
     80c:	0032      	movs	r2, r6
     80e:	2700      	movs	r7, #0
     810:	2300      	movs	r3, #0
     812:	e74c      	b.n	6ae <__aeabi_dadd+0x12e>
     814:	0742      	lsls	r2, r0, #29
     816:	08db      	lsrs	r3, r3, #3
     818:	4313      	orrs	r3, r2
     81a:	08c0      	lsrs	r0, r0, #3
     81c:	001a      	movs	r2, r3
     81e:	4302      	orrs	r2, r0
     820:	d100      	bne.n	824 <_minimum_stack_size+0x24>
     822:	e1e1      	b.n	be8 <_minimum_stack_size+0x3e8>
     824:	2780      	movs	r7, #128	; 0x80
     826:	033f      	lsls	r7, r7, #12
     828:	4307      	orrs	r7, r0
     82a:	033f      	lsls	r7, r7, #12
     82c:	4a2e      	ldr	r2, [pc, #184]	; (8e8 <_minimum_stack_size+0xe8>)
     82e:	0b3f      	lsrs	r7, r7, #12
     830:	e73d      	b.n	6ae <__aeabi_dadd+0x12e>
     832:	0020      	movs	r0, r4
     834:	f001 fc8a 	bl	214c <__clzsi2>
     838:	0001      	movs	r1, r0
     83a:	3118      	adds	r1, #24
     83c:	291f      	cmp	r1, #31
     83e:	dc00      	bgt.n	842 <_minimum_stack_size+0x42>
     840:	e6fc      	b.n	63c <__aeabi_dadd+0xbc>
     842:	3808      	subs	r0, #8
     844:	4084      	lsls	r4, r0
     846:	0027      	movs	r7, r4
     848:	2400      	movs	r4, #0
     84a:	42b1      	cmp	r1, r6
     84c:	db00      	blt.n	850 <_minimum_stack_size+0x50>
     84e:	e6ff      	b.n	650 <__aeabi_dadd+0xd0>
     850:	4a26      	ldr	r2, [pc, #152]	; (8ec <_minimum_stack_size+0xec>)
     852:	1a76      	subs	r6, r6, r1
     854:	4017      	ands	r7, r2
     856:	e70d      	b.n	674 <__aeabi_dadd+0xf4>
     858:	2a00      	cmp	r2, #0
     85a:	d02f      	beq.n	8bc <_minimum_stack_size+0xbc>
     85c:	464a      	mov	r2, r9
     85e:	1b92      	subs	r2, r2, r6
     860:	4694      	mov	ip, r2
     862:	2e00      	cmp	r6, #0
     864:	d100      	bne.n	868 <_minimum_stack_size+0x68>
     866:	e0ad      	b.n	9c4 <_minimum_stack_size+0x1c4>
     868:	4a1f      	ldr	r2, [pc, #124]	; (8e8 <_minimum_stack_size+0xe8>)
     86a:	4591      	cmp	r9, r2
     86c:	d100      	bne.n	870 <_minimum_stack_size+0x70>
     86e:	e10f      	b.n	a90 <_minimum_stack_size+0x290>
     870:	2280      	movs	r2, #128	; 0x80
     872:	0412      	lsls	r2, r2, #16
     874:	4310      	orrs	r0, r2
     876:	4662      	mov	r2, ip
     878:	2a38      	cmp	r2, #56	; 0x38
     87a:	dd00      	ble.n	87e <_minimum_stack_size+0x7e>
     87c:	e10f      	b.n	a9e <_minimum_stack_size+0x29e>
     87e:	2a1f      	cmp	r2, #31
     880:	dd00      	ble.n	884 <_minimum_stack_size+0x84>
     882:	e180      	b.n	b86 <_minimum_stack_size+0x386>
     884:	4664      	mov	r4, ip
     886:	2220      	movs	r2, #32
     888:	001e      	movs	r6, r3
     88a:	1b12      	subs	r2, r2, r4
     88c:	4667      	mov	r7, ip
     88e:	0004      	movs	r4, r0
     890:	4093      	lsls	r3, r2
     892:	4094      	lsls	r4, r2
     894:	40fe      	lsrs	r6, r7
     896:	1e5a      	subs	r2, r3, #1
     898:	4193      	sbcs	r3, r2
     89a:	40f8      	lsrs	r0, r7
     89c:	4334      	orrs	r4, r6
     89e:	431c      	orrs	r4, r3
     8a0:	4480      	add	r8, r0
     8a2:	1864      	adds	r4, r4, r1
     8a4:	428c      	cmp	r4, r1
     8a6:	41bf      	sbcs	r7, r7
     8a8:	427f      	negs	r7, r7
     8aa:	464e      	mov	r6, r9
     8ac:	4447      	add	r7, r8
     8ae:	e7a6      	b.n	7fe <__aeabi_dadd+0x27e>
     8b0:	4642      	mov	r2, r8
     8b2:	430a      	orrs	r2, r1
     8b4:	0011      	movs	r1, r2
     8b6:	1e4a      	subs	r2, r1, #1
     8b8:	4191      	sbcs	r1, r2
     8ba:	e6ad      	b.n	618 <__aeabi_dadd+0x98>
     8bc:	4c0c      	ldr	r4, [pc, #48]	; (8f0 <_minimum_stack_size+0xf0>)
     8be:	1c72      	adds	r2, r6, #1
     8c0:	4222      	tst	r2, r4
     8c2:	d000      	beq.n	8c6 <_minimum_stack_size+0xc6>
     8c4:	e0a1      	b.n	a0a <_minimum_stack_size+0x20a>
     8c6:	0002      	movs	r2, r0
     8c8:	431a      	orrs	r2, r3
     8ca:	2e00      	cmp	r6, #0
     8cc:	d000      	beq.n	8d0 <_minimum_stack_size+0xd0>
     8ce:	e0fa      	b.n	ac6 <_minimum_stack_size+0x2c6>
     8d0:	2a00      	cmp	r2, #0
     8d2:	d100      	bne.n	8d6 <_minimum_stack_size+0xd6>
     8d4:	e145      	b.n	b62 <_minimum_stack_size+0x362>
     8d6:	003a      	movs	r2, r7
     8d8:	430a      	orrs	r2, r1
     8da:	d000      	beq.n	8de <_minimum_stack_size+0xde>
     8dc:	e146      	b.n	b6c <_minimum_stack_size+0x36c>
     8de:	0742      	lsls	r2, r0, #29
     8e0:	08db      	lsrs	r3, r3, #3
     8e2:	4313      	orrs	r3, r2
     8e4:	08c0      	lsrs	r0, r0, #3
     8e6:	e77b      	b.n	7e0 <__aeabi_dadd+0x260>
     8e8:	000007ff 	.word	0x000007ff
     8ec:	ff7fffff 	.word	0xff7fffff
     8f0:	000007fe 	.word	0x000007fe
     8f4:	4647      	mov	r7, r8
     8f6:	1a5c      	subs	r4, r3, r1
     8f8:	1bc2      	subs	r2, r0, r7
     8fa:	42a3      	cmp	r3, r4
     8fc:	41bf      	sbcs	r7, r7
     8fe:	427f      	negs	r7, r7
     900:	46b9      	mov	r9, r7
     902:	0017      	movs	r7, r2
     904:	464a      	mov	r2, r9
     906:	1abf      	subs	r7, r7, r2
     908:	023a      	lsls	r2, r7, #8
     90a:	d500      	bpl.n	90e <_minimum_stack_size+0x10e>
     90c:	e08d      	b.n	a2a <_minimum_stack_size+0x22a>
     90e:	0023      	movs	r3, r4
     910:	433b      	orrs	r3, r7
     912:	d000      	beq.n	916 <_minimum_stack_size+0x116>
     914:	e68a      	b.n	62c <__aeabi_dadd+0xac>
     916:	2000      	movs	r0, #0
     918:	2500      	movs	r5, #0
     91a:	e761      	b.n	7e0 <__aeabi_dadd+0x260>
     91c:	4cb4      	ldr	r4, [pc, #720]	; (bf0 <_minimum_stack_size+0x3f0>)
     91e:	45a1      	cmp	r9, r4
     920:	d100      	bne.n	924 <_minimum_stack_size+0x124>
     922:	e0ad      	b.n	a80 <_minimum_stack_size+0x280>
     924:	2480      	movs	r4, #128	; 0x80
     926:	0424      	lsls	r4, r4, #16
     928:	4320      	orrs	r0, r4
     92a:	4664      	mov	r4, ip
     92c:	2c38      	cmp	r4, #56	; 0x38
     92e:	dc3d      	bgt.n	9ac <_minimum_stack_size+0x1ac>
     930:	4662      	mov	r2, ip
     932:	2c1f      	cmp	r4, #31
     934:	dd00      	ble.n	938 <_minimum_stack_size+0x138>
     936:	e0b7      	b.n	aa8 <_minimum_stack_size+0x2a8>
     938:	2520      	movs	r5, #32
     93a:	001e      	movs	r6, r3
     93c:	1b2d      	subs	r5, r5, r4
     93e:	0004      	movs	r4, r0
     940:	40ab      	lsls	r3, r5
     942:	40ac      	lsls	r4, r5
     944:	40d6      	lsrs	r6, r2
     946:	40d0      	lsrs	r0, r2
     948:	4642      	mov	r2, r8
     94a:	1e5d      	subs	r5, r3, #1
     94c:	41ab      	sbcs	r3, r5
     94e:	4334      	orrs	r4, r6
     950:	1a12      	subs	r2, r2, r0
     952:	4690      	mov	r8, r2
     954:	4323      	orrs	r3, r4
     956:	e02c      	b.n	9b2 <_minimum_stack_size+0x1b2>
     958:	0742      	lsls	r2, r0, #29
     95a:	08db      	lsrs	r3, r3, #3
     95c:	4313      	orrs	r3, r2
     95e:	08c0      	lsrs	r0, r0, #3
     960:	e73b      	b.n	7da <__aeabi_dadd+0x25a>
     962:	185c      	adds	r4, r3, r1
     964:	429c      	cmp	r4, r3
     966:	419b      	sbcs	r3, r3
     968:	4440      	add	r0, r8
     96a:	425b      	negs	r3, r3
     96c:	18c7      	adds	r7, r0, r3
     96e:	2601      	movs	r6, #1
     970:	023b      	lsls	r3, r7, #8
     972:	d400      	bmi.n	976 <_minimum_stack_size+0x176>
     974:	e729      	b.n	7ca <__aeabi_dadd+0x24a>
     976:	2602      	movs	r6, #2
     978:	4a9e      	ldr	r2, [pc, #632]	; (bf4 <_minimum_stack_size+0x3f4>)
     97a:	0863      	lsrs	r3, r4, #1
     97c:	4017      	ands	r7, r2
     97e:	2201      	movs	r2, #1
     980:	4014      	ands	r4, r2
     982:	431c      	orrs	r4, r3
     984:	07fb      	lsls	r3, r7, #31
     986:	431c      	orrs	r4, r3
     988:	087f      	lsrs	r7, r7, #1
     98a:	e673      	b.n	674 <__aeabi_dadd+0xf4>
     98c:	4644      	mov	r4, r8
     98e:	3a20      	subs	r2, #32
     990:	40d4      	lsrs	r4, r2
     992:	4662      	mov	r2, ip
     994:	2a20      	cmp	r2, #32
     996:	d005      	beq.n	9a4 <_minimum_stack_size+0x1a4>
     998:	4667      	mov	r7, ip
     99a:	2240      	movs	r2, #64	; 0x40
     99c:	1bd2      	subs	r2, r2, r7
     99e:	4647      	mov	r7, r8
     9a0:	4097      	lsls	r7, r2
     9a2:	4339      	orrs	r1, r7
     9a4:	1e4a      	subs	r2, r1, #1
     9a6:	4191      	sbcs	r1, r2
     9a8:	4321      	orrs	r1, r4
     9aa:	e635      	b.n	618 <__aeabi_dadd+0x98>
     9ac:	4303      	orrs	r3, r0
     9ae:	1e58      	subs	r0, r3, #1
     9b0:	4183      	sbcs	r3, r0
     9b2:	1acc      	subs	r4, r1, r3
     9b4:	42a1      	cmp	r1, r4
     9b6:	41bf      	sbcs	r7, r7
     9b8:	4643      	mov	r3, r8
     9ba:	427f      	negs	r7, r7
     9bc:	4655      	mov	r5, sl
     9be:	464e      	mov	r6, r9
     9c0:	1bdf      	subs	r7, r3, r7
     9c2:	e62e      	b.n	622 <__aeabi_dadd+0xa2>
     9c4:	0002      	movs	r2, r0
     9c6:	431a      	orrs	r2, r3
     9c8:	d100      	bne.n	9cc <_minimum_stack_size+0x1cc>
     9ca:	e0bd      	b.n	b48 <_minimum_stack_size+0x348>
     9cc:	4662      	mov	r2, ip
     9ce:	4664      	mov	r4, ip
     9d0:	3a01      	subs	r2, #1
     9d2:	2c01      	cmp	r4, #1
     9d4:	d100      	bne.n	9d8 <_minimum_stack_size+0x1d8>
     9d6:	e0e5      	b.n	ba4 <_minimum_stack_size+0x3a4>
     9d8:	4c85      	ldr	r4, [pc, #532]	; (bf0 <_minimum_stack_size+0x3f0>)
     9da:	45a4      	cmp	ip, r4
     9dc:	d058      	beq.n	a90 <_minimum_stack_size+0x290>
     9de:	4694      	mov	ip, r2
     9e0:	e749      	b.n	876 <_minimum_stack_size+0x76>
     9e2:	4664      	mov	r4, ip
     9e4:	2220      	movs	r2, #32
     9e6:	1b12      	subs	r2, r2, r4
     9e8:	4644      	mov	r4, r8
     9ea:	4094      	lsls	r4, r2
     9ec:	000f      	movs	r7, r1
     9ee:	46a1      	mov	r9, r4
     9f0:	4664      	mov	r4, ip
     9f2:	4091      	lsls	r1, r2
     9f4:	40e7      	lsrs	r7, r4
     9f6:	464c      	mov	r4, r9
     9f8:	1e4a      	subs	r2, r1, #1
     9fa:	4191      	sbcs	r1, r2
     9fc:	433c      	orrs	r4, r7
     9fe:	4642      	mov	r2, r8
     a00:	430c      	orrs	r4, r1
     a02:	4661      	mov	r1, ip
     a04:	40ca      	lsrs	r2, r1
     a06:	1880      	adds	r0, r0, r2
     a08:	e6f4      	b.n	7f4 <__aeabi_dadd+0x274>
     a0a:	4c79      	ldr	r4, [pc, #484]	; (bf0 <_minimum_stack_size+0x3f0>)
     a0c:	42a2      	cmp	r2, r4
     a0e:	d100      	bne.n	a12 <_minimum_stack_size+0x212>
     a10:	e6fd      	b.n	80e <_minimum_stack_size+0xe>
     a12:	1859      	adds	r1, r3, r1
     a14:	4299      	cmp	r1, r3
     a16:	419b      	sbcs	r3, r3
     a18:	4440      	add	r0, r8
     a1a:	425f      	negs	r7, r3
     a1c:	19c7      	adds	r7, r0, r7
     a1e:	07fc      	lsls	r4, r7, #31
     a20:	0849      	lsrs	r1, r1, #1
     a22:	0016      	movs	r6, r2
     a24:	430c      	orrs	r4, r1
     a26:	087f      	lsrs	r7, r7, #1
     a28:	e6cf      	b.n	7ca <__aeabi_dadd+0x24a>
     a2a:	1acc      	subs	r4, r1, r3
     a2c:	42a1      	cmp	r1, r4
     a2e:	41bf      	sbcs	r7, r7
     a30:	4643      	mov	r3, r8
     a32:	427f      	negs	r7, r7
     a34:	1a18      	subs	r0, r3, r0
     a36:	4655      	mov	r5, sl
     a38:	1bc7      	subs	r7, r0, r7
     a3a:	e5f7      	b.n	62c <__aeabi_dadd+0xac>
     a3c:	08c9      	lsrs	r1, r1, #3
     a3e:	077b      	lsls	r3, r7, #29
     a40:	4655      	mov	r5, sl
     a42:	430b      	orrs	r3, r1
     a44:	08f8      	lsrs	r0, r7, #3
     a46:	e6c8      	b.n	7da <__aeabi_dadd+0x25a>
     a48:	2c00      	cmp	r4, #0
     a4a:	d000      	beq.n	a4e <_minimum_stack_size+0x24e>
     a4c:	e081      	b.n	b52 <_minimum_stack_size+0x352>
     a4e:	4643      	mov	r3, r8
     a50:	430b      	orrs	r3, r1
     a52:	d115      	bne.n	a80 <_minimum_stack_size+0x280>
     a54:	2080      	movs	r0, #128	; 0x80
     a56:	2500      	movs	r5, #0
     a58:	0300      	lsls	r0, r0, #12
     a5a:	e6e3      	b.n	824 <_minimum_stack_size+0x24>
     a5c:	1a5c      	subs	r4, r3, r1
     a5e:	42a3      	cmp	r3, r4
     a60:	419b      	sbcs	r3, r3
     a62:	1bc7      	subs	r7, r0, r7
     a64:	425b      	negs	r3, r3
     a66:	2601      	movs	r6, #1
     a68:	1aff      	subs	r7, r7, r3
     a6a:	e5da      	b.n	622 <__aeabi_dadd+0xa2>
     a6c:	0742      	lsls	r2, r0, #29
     a6e:	08db      	lsrs	r3, r3, #3
     a70:	4313      	orrs	r3, r2
     a72:	08c0      	lsrs	r0, r0, #3
     a74:	e6d2      	b.n	81c <_minimum_stack_size+0x1c>
     a76:	0742      	lsls	r2, r0, #29
     a78:	08db      	lsrs	r3, r3, #3
     a7a:	4313      	orrs	r3, r2
     a7c:	08c0      	lsrs	r0, r0, #3
     a7e:	e6ac      	b.n	7da <__aeabi_dadd+0x25a>
     a80:	4643      	mov	r3, r8
     a82:	4642      	mov	r2, r8
     a84:	08c9      	lsrs	r1, r1, #3
     a86:	075b      	lsls	r3, r3, #29
     a88:	4655      	mov	r5, sl
     a8a:	430b      	orrs	r3, r1
     a8c:	08d0      	lsrs	r0, r2, #3
     a8e:	e6c5      	b.n	81c <_minimum_stack_size+0x1c>
     a90:	4643      	mov	r3, r8
     a92:	4642      	mov	r2, r8
     a94:	075b      	lsls	r3, r3, #29
     a96:	08c9      	lsrs	r1, r1, #3
     a98:	430b      	orrs	r3, r1
     a9a:	08d0      	lsrs	r0, r2, #3
     a9c:	e6be      	b.n	81c <_minimum_stack_size+0x1c>
     a9e:	4303      	orrs	r3, r0
     aa0:	001c      	movs	r4, r3
     aa2:	1e63      	subs	r3, r4, #1
     aa4:	419c      	sbcs	r4, r3
     aa6:	e6fc      	b.n	8a2 <_minimum_stack_size+0xa2>
     aa8:	0002      	movs	r2, r0
     aaa:	3c20      	subs	r4, #32
     aac:	40e2      	lsrs	r2, r4
     aae:	0014      	movs	r4, r2
     ab0:	4662      	mov	r2, ip
     ab2:	2a20      	cmp	r2, #32
     ab4:	d003      	beq.n	abe <_minimum_stack_size+0x2be>
     ab6:	2540      	movs	r5, #64	; 0x40
     ab8:	1aad      	subs	r5, r5, r2
     aba:	40a8      	lsls	r0, r5
     abc:	4303      	orrs	r3, r0
     abe:	1e58      	subs	r0, r3, #1
     ac0:	4183      	sbcs	r3, r0
     ac2:	4323      	orrs	r3, r4
     ac4:	e775      	b.n	9b2 <_minimum_stack_size+0x1b2>
     ac6:	2a00      	cmp	r2, #0
     ac8:	d0e2      	beq.n	a90 <_minimum_stack_size+0x290>
     aca:	003a      	movs	r2, r7
     acc:	430a      	orrs	r2, r1
     ace:	d0cd      	beq.n	a6c <_minimum_stack_size+0x26c>
     ad0:	0742      	lsls	r2, r0, #29
     ad2:	08db      	lsrs	r3, r3, #3
     ad4:	4313      	orrs	r3, r2
     ad6:	2280      	movs	r2, #128	; 0x80
     ad8:	08c0      	lsrs	r0, r0, #3
     ada:	0312      	lsls	r2, r2, #12
     adc:	4210      	tst	r0, r2
     ade:	d006      	beq.n	aee <_minimum_stack_size+0x2ee>
     ae0:	08fc      	lsrs	r4, r7, #3
     ae2:	4214      	tst	r4, r2
     ae4:	d103      	bne.n	aee <_minimum_stack_size+0x2ee>
     ae6:	0020      	movs	r0, r4
     ae8:	08cb      	lsrs	r3, r1, #3
     aea:	077a      	lsls	r2, r7, #29
     aec:	4313      	orrs	r3, r2
     aee:	0f5a      	lsrs	r2, r3, #29
     af0:	00db      	lsls	r3, r3, #3
     af2:	0752      	lsls	r2, r2, #29
     af4:	08db      	lsrs	r3, r3, #3
     af6:	4313      	orrs	r3, r2
     af8:	e690      	b.n	81c <_minimum_stack_size+0x1c>
     afa:	4643      	mov	r3, r8
     afc:	430b      	orrs	r3, r1
     afe:	d100      	bne.n	b02 <_minimum_stack_size+0x302>
     b00:	e709      	b.n	916 <_minimum_stack_size+0x116>
     b02:	4643      	mov	r3, r8
     b04:	4642      	mov	r2, r8
     b06:	08c9      	lsrs	r1, r1, #3
     b08:	075b      	lsls	r3, r3, #29
     b0a:	4655      	mov	r5, sl
     b0c:	430b      	orrs	r3, r1
     b0e:	08d0      	lsrs	r0, r2, #3
     b10:	e666      	b.n	7e0 <__aeabi_dadd+0x260>
     b12:	1acc      	subs	r4, r1, r3
     b14:	42a1      	cmp	r1, r4
     b16:	4189      	sbcs	r1, r1
     b18:	1a3f      	subs	r7, r7, r0
     b1a:	4249      	negs	r1, r1
     b1c:	4655      	mov	r5, sl
     b1e:	2601      	movs	r6, #1
     b20:	1a7f      	subs	r7, r7, r1
     b22:	e57e      	b.n	622 <__aeabi_dadd+0xa2>
     b24:	4642      	mov	r2, r8
     b26:	1a5c      	subs	r4, r3, r1
     b28:	1a87      	subs	r7, r0, r2
     b2a:	42a3      	cmp	r3, r4
     b2c:	4192      	sbcs	r2, r2
     b2e:	4252      	negs	r2, r2
     b30:	1abf      	subs	r7, r7, r2
     b32:	023a      	lsls	r2, r7, #8
     b34:	d53d      	bpl.n	bb2 <_minimum_stack_size+0x3b2>
     b36:	1acc      	subs	r4, r1, r3
     b38:	42a1      	cmp	r1, r4
     b3a:	4189      	sbcs	r1, r1
     b3c:	4643      	mov	r3, r8
     b3e:	4249      	negs	r1, r1
     b40:	1a1f      	subs	r7, r3, r0
     b42:	4655      	mov	r5, sl
     b44:	1a7f      	subs	r7, r7, r1
     b46:	e595      	b.n	674 <__aeabi_dadd+0xf4>
     b48:	077b      	lsls	r3, r7, #29
     b4a:	08c9      	lsrs	r1, r1, #3
     b4c:	430b      	orrs	r3, r1
     b4e:	08f8      	lsrs	r0, r7, #3
     b50:	e643      	b.n	7da <__aeabi_dadd+0x25a>
     b52:	4644      	mov	r4, r8
     b54:	08db      	lsrs	r3, r3, #3
     b56:	430c      	orrs	r4, r1
     b58:	d130      	bne.n	bbc <_minimum_stack_size+0x3bc>
     b5a:	0742      	lsls	r2, r0, #29
     b5c:	4313      	orrs	r3, r2
     b5e:	08c0      	lsrs	r0, r0, #3
     b60:	e65c      	b.n	81c <_minimum_stack_size+0x1c>
     b62:	077b      	lsls	r3, r7, #29
     b64:	08c9      	lsrs	r1, r1, #3
     b66:	430b      	orrs	r3, r1
     b68:	08f8      	lsrs	r0, r7, #3
     b6a:	e639      	b.n	7e0 <__aeabi_dadd+0x260>
     b6c:	185c      	adds	r4, r3, r1
     b6e:	429c      	cmp	r4, r3
     b70:	419b      	sbcs	r3, r3
     b72:	4440      	add	r0, r8
     b74:	425b      	negs	r3, r3
     b76:	18c7      	adds	r7, r0, r3
     b78:	023b      	lsls	r3, r7, #8
     b7a:	d400      	bmi.n	b7e <_minimum_stack_size+0x37e>
     b7c:	e625      	b.n	7ca <__aeabi_dadd+0x24a>
     b7e:	4b1d      	ldr	r3, [pc, #116]	; (bf4 <_minimum_stack_size+0x3f4>)
     b80:	2601      	movs	r6, #1
     b82:	401f      	ands	r7, r3
     b84:	e621      	b.n	7ca <__aeabi_dadd+0x24a>
     b86:	0004      	movs	r4, r0
     b88:	3a20      	subs	r2, #32
     b8a:	40d4      	lsrs	r4, r2
     b8c:	4662      	mov	r2, ip
     b8e:	2a20      	cmp	r2, #32
     b90:	d004      	beq.n	b9c <_minimum_stack_size+0x39c>
     b92:	2240      	movs	r2, #64	; 0x40
     b94:	4666      	mov	r6, ip
     b96:	1b92      	subs	r2, r2, r6
     b98:	4090      	lsls	r0, r2
     b9a:	4303      	orrs	r3, r0
     b9c:	1e5a      	subs	r2, r3, #1
     b9e:	4193      	sbcs	r3, r2
     ba0:	431c      	orrs	r4, r3
     ba2:	e67e      	b.n	8a2 <_minimum_stack_size+0xa2>
     ba4:	185c      	adds	r4, r3, r1
     ba6:	428c      	cmp	r4, r1
     ba8:	4189      	sbcs	r1, r1
     baa:	4440      	add	r0, r8
     bac:	4249      	negs	r1, r1
     bae:	1847      	adds	r7, r0, r1
     bb0:	e6dd      	b.n	96e <_minimum_stack_size+0x16e>
     bb2:	0023      	movs	r3, r4
     bb4:	433b      	orrs	r3, r7
     bb6:	d100      	bne.n	bba <_minimum_stack_size+0x3ba>
     bb8:	e6ad      	b.n	916 <_minimum_stack_size+0x116>
     bba:	e606      	b.n	7ca <__aeabi_dadd+0x24a>
     bbc:	0744      	lsls	r4, r0, #29
     bbe:	4323      	orrs	r3, r4
     bc0:	2480      	movs	r4, #128	; 0x80
     bc2:	08c0      	lsrs	r0, r0, #3
     bc4:	0324      	lsls	r4, r4, #12
     bc6:	4220      	tst	r0, r4
     bc8:	d008      	beq.n	bdc <_minimum_stack_size+0x3dc>
     bca:	4642      	mov	r2, r8
     bcc:	08d6      	lsrs	r6, r2, #3
     bce:	4226      	tst	r6, r4
     bd0:	d104      	bne.n	bdc <_minimum_stack_size+0x3dc>
     bd2:	4655      	mov	r5, sl
     bd4:	0030      	movs	r0, r6
     bd6:	08cb      	lsrs	r3, r1, #3
     bd8:	0751      	lsls	r1, r2, #29
     bda:	430b      	orrs	r3, r1
     bdc:	0f5a      	lsrs	r2, r3, #29
     bde:	00db      	lsls	r3, r3, #3
     be0:	08db      	lsrs	r3, r3, #3
     be2:	0752      	lsls	r2, r2, #29
     be4:	4313      	orrs	r3, r2
     be6:	e619      	b.n	81c <_minimum_stack_size+0x1c>
     be8:	2300      	movs	r3, #0
     bea:	4a01      	ldr	r2, [pc, #4]	; (bf0 <_minimum_stack_size+0x3f0>)
     bec:	001f      	movs	r7, r3
     bee:	e55e      	b.n	6ae <__aeabi_dadd+0x12e>
     bf0:	000007ff 	.word	0x000007ff
     bf4:	ff7fffff 	.word	0xff7fffff

00000bf8 <__aeabi_ddiv>:
     bf8:	b5f0      	push	{r4, r5, r6, r7, lr}
     bfa:	4657      	mov	r7, sl
     bfc:	464e      	mov	r6, r9
     bfe:	4645      	mov	r5, r8
     c00:	46de      	mov	lr, fp
     c02:	b5e0      	push	{r5, r6, r7, lr}
     c04:	4681      	mov	r9, r0
     c06:	0005      	movs	r5, r0
     c08:	030c      	lsls	r4, r1, #12
     c0a:	0048      	lsls	r0, r1, #1
     c0c:	4692      	mov	sl, r2
     c0e:	001f      	movs	r7, r3
     c10:	b085      	sub	sp, #20
     c12:	0b24      	lsrs	r4, r4, #12
     c14:	0d40      	lsrs	r0, r0, #21
     c16:	0fce      	lsrs	r6, r1, #31
     c18:	2800      	cmp	r0, #0
     c1a:	d100      	bne.n	c1e <__aeabi_ddiv+0x26>
     c1c:	e156      	b.n	ecc <__aeabi_ddiv+0x2d4>
     c1e:	4bd4      	ldr	r3, [pc, #848]	; (f70 <__aeabi_ddiv+0x378>)
     c20:	4298      	cmp	r0, r3
     c22:	d100      	bne.n	c26 <__aeabi_ddiv+0x2e>
     c24:	e172      	b.n	f0c <__aeabi_ddiv+0x314>
     c26:	0f6b      	lsrs	r3, r5, #29
     c28:	00e4      	lsls	r4, r4, #3
     c2a:	431c      	orrs	r4, r3
     c2c:	2380      	movs	r3, #128	; 0x80
     c2e:	041b      	lsls	r3, r3, #16
     c30:	4323      	orrs	r3, r4
     c32:	4698      	mov	r8, r3
     c34:	4bcf      	ldr	r3, [pc, #828]	; (f74 <__aeabi_ddiv+0x37c>)
     c36:	00ed      	lsls	r5, r5, #3
     c38:	469b      	mov	fp, r3
     c3a:	2300      	movs	r3, #0
     c3c:	4699      	mov	r9, r3
     c3e:	4483      	add	fp, r0
     c40:	9300      	str	r3, [sp, #0]
     c42:	033c      	lsls	r4, r7, #12
     c44:	007b      	lsls	r3, r7, #1
     c46:	4650      	mov	r0, sl
     c48:	0b24      	lsrs	r4, r4, #12
     c4a:	0d5b      	lsrs	r3, r3, #21
     c4c:	0fff      	lsrs	r7, r7, #31
     c4e:	2b00      	cmp	r3, #0
     c50:	d100      	bne.n	c54 <__aeabi_ddiv+0x5c>
     c52:	e11f      	b.n	e94 <__aeabi_ddiv+0x29c>
     c54:	4ac6      	ldr	r2, [pc, #792]	; (f70 <__aeabi_ddiv+0x378>)
     c56:	4293      	cmp	r3, r2
     c58:	d100      	bne.n	c5c <__aeabi_ddiv+0x64>
     c5a:	e162      	b.n	f22 <__aeabi_ddiv+0x32a>
     c5c:	49c5      	ldr	r1, [pc, #788]	; (f74 <__aeabi_ddiv+0x37c>)
     c5e:	0f42      	lsrs	r2, r0, #29
     c60:	468c      	mov	ip, r1
     c62:	00e4      	lsls	r4, r4, #3
     c64:	4659      	mov	r1, fp
     c66:	4314      	orrs	r4, r2
     c68:	2280      	movs	r2, #128	; 0x80
     c6a:	4463      	add	r3, ip
     c6c:	0412      	lsls	r2, r2, #16
     c6e:	1acb      	subs	r3, r1, r3
     c70:	4314      	orrs	r4, r2
     c72:	469b      	mov	fp, r3
     c74:	00c2      	lsls	r2, r0, #3
     c76:	2000      	movs	r0, #0
     c78:	0033      	movs	r3, r6
     c7a:	407b      	eors	r3, r7
     c7c:	469a      	mov	sl, r3
     c7e:	464b      	mov	r3, r9
     c80:	2b0f      	cmp	r3, #15
     c82:	d827      	bhi.n	cd4 <__aeabi_ddiv+0xdc>
     c84:	49bc      	ldr	r1, [pc, #752]	; (f78 <__aeabi_ddiv+0x380>)
     c86:	009b      	lsls	r3, r3, #2
     c88:	58cb      	ldr	r3, [r1, r3]
     c8a:	469f      	mov	pc, r3
     c8c:	46b2      	mov	sl, r6
     c8e:	9b00      	ldr	r3, [sp, #0]
     c90:	2b02      	cmp	r3, #2
     c92:	d016      	beq.n	cc2 <__aeabi_ddiv+0xca>
     c94:	2b03      	cmp	r3, #3
     c96:	d100      	bne.n	c9a <__aeabi_ddiv+0xa2>
     c98:	e28e      	b.n	11b8 <__aeabi_ddiv+0x5c0>
     c9a:	2b01      	cmp	r3, #1
     c9c:	d000      	beq.n	ca0 <__aeabi_ddiv+0xa8>
     c9e:	e0d9      	b.n	e54 <__aeabi_ddiv+0x25c>
     ca0:	2300      	movs	r3, #0
     ca2:	2400      	movs	r4, #0
     ca4:	2500      	movs	r5, #0
     ca6:	4652      	mov	r2, sl
     ca8:	051b      	lsls	r3, r3, #20
     caa:	4323      	orrs	r3, r4
     cac:	07d2      	lsls	r2, r2, #31
     cae:	4313      	orrs	r3, r2
     cb0:	0028      	movs	r0, r5
     cb2:	0019      	movs	r1, r3
     cb4:	b005      	add	sp, #20
     cb6:	bcf0      	pop	{r4, r5, r6, r7}
     cb8:	46bb      	mov	fp, r7
     cba:	46b2      	mov	sl, r6
     cbc:	46a9      	mov	r9, r5
     cbe:	46a0      	mov	r8, r4
     cc0:	bdf0      	pop	{r4, r5, r6, r7, pc}
     cc2:	2400      	movs	r4, #0
     cc4:	2500      	movs	r5, #0
     cc6:	4baa      	ldr	r3, [pc, #680]	; (f70 <__aeabi_ddiv+0x378>)
     cc8:	e7ed      	b.n	ca6 <__aeabi_ddiv+0xae>
     cca:	46ba      	mov	sl, r7
     ccc:	46a0      	mov	r8, r4
     cce:	0015      	movs	r5, r2
     cd0:	9000      	str	r0, [sp, #0]
     cd2:	e7dc      	b.n	c8e <__aeabi_ddiv+0x96>
     cd4:	4544      	cmp	r4, r8
     cd6:	d200      	bcs.n	cda <__aeabi_ddiv+0xe2>
     cd8:	e1c7      	b.n	106a <__aeabi_ddiv+0x472>
     cda:	d100      	bne.n	cde <__aeabi_ddiv+0xe6>
     cdc:	e1c2      	b.n	1064 <__aeabi_ddiv+0x46c>
     cde:	2301      	movs	r3, #1
     ce0:	425b      	negs	r3, r3
     ce2:	469c      	mov	ip, r3
     ce4:	002e      	movs	r6, r5
     ce6:	4640      	mov	r0, r8
     ce8:	2500      	movs	r5, #0
     cea:	44e3      	add	fp, ip
     cec:	0223      	lsls	r3, r4, #8
     cee:	0e14      	lsrs	r4, r2, #24
     cf0:	431c      	orrs	r4, r3
     cf2:	0c1b      	lsrs	r3, r3, #16
     cf4:	4699      	mov	r9, r3
     cf6:	0423      	lsls	r3, r4, #16
     cf8:	0c1f      	lsrs	r7, r3, #16
     cfa:	0212      	lsls	r2, r2, #8
     cfc:	4649      	mov	r1, r9
     cfe:	9200      	str	r2, [sp, #0]
     d00:	9701      	str	r7, [sp, #4]
     d02:	f7ff fa23 	bl	14c <__aeabi_uidivmod>
     d06:	0002      	movs	r2, r0
     d08:	437a      	muls	r2, r7
     d0a:	040b      	lsls	r3, r1, #16
     d0c:	0c31      	lsrs	r1, r6, #16
     d0e:	4680      	mov	r8, r0
     d10:	4319      	orrs	r1, r3
     d12:	428a      	cmp	r2, r1
     d14:	d907      	bls.n	d26 <__aeabi_ddiv+0x12e>
     d16:	2301      	movs	r3, #1
     d18:	425b      	negs	r3, r3
     d1a:	469c      	mov	ip, r3
     d1c:	1909      	adds	r1, r1, r4
     d1e:	44e0      	add	r8, ip
     d20:	428c      	cmp	r4, r1
     d22:	d800      	bhi.n	d26 <__aeabi_ddiv+0x12e>
     d24:	e207      	b.n	1136 <__aeabi_ddiv+0x53e>
     d26:	1a88      	subs	r0, r1, r2
     d28:	4649      	mov	r1, r9
     d2a:	f7ff fa0f 	bl	14c <__aeabi_uidivmod>
     d2e:	0409      	lsls	r1, r1, #16
     d30:	468c      	mov	ip, r1
     d32:	0431      	lsls	r1, r6, #16
     d34:	4666      	mov	r6, ip
     d36:	9a01      	ldr	r2, [sp, #4]
     d38:	0c09      	lsrs	r1, r1, #16
     d3a:	4342      	muls	r2, r0
     d3c:	0003      	movs	r3, r0
     d3e:	4331      	orrs	r1, r6
     d40:	428a      	cmp	r2, r1
     d42:	d904      	bls.n	d4e <__aeabi_ddiv+0x156>
     d44:	1909      	adds	r1, r1, r4
     d46:	3b01      	subs	r3, #1
     d48:	428c      	cmp	r4, r1
     d4a:	d800      	bhi.n	d4e <__aeabi_ddiv+0x156>
     d4c:	e1ed      	b.n	112a <__aeabi_ddiv+0x532>
     d4e:	1a88      	subs	r0, r1, r2
     d50:	4642      	mov	r2, r8
     d52:	0412      	lsls	r2, r2, #16
     d54:	431a      	orrs	r2, r3
     d56:	4690      	mov	r8, r2
     d58:	4641      	mov	r1, r8
     d5a:	9b00      	ldr	r3, [sp, #0]
     d5c:	040e      	lsls	r6, r1, #16
     d5e:	0c1b      	lsrs	r3, r3, #16
     d60:	001f      	movs	r7, r3
     d62:	9302      	str	r3, [sp, #8]
     d64:	9b00      	ldr	r3, [sp, #0]
     d66:	0c36      	lsrs	r6, r6, #16
     d68:	041b      	lsls	r3, r3, #16
     d6a:	0c19      	lsrs	r1, r3, #16
     d6c:	000b      	movs	r3, r1
     d6e:	4373      	muls	r3, r6
     d70:	0c12      	lsrs	r2, r2, #16
     d72:	437e      	muls	r6, r7
     d74:	9103      	str	r1, [sp, #12]
     d76:	4351      	muls	r1, r2
     d78:	437a      	muls	r2, r7
     d7a:	0c1f      	lsrs	r7, r3, #16
     d7c:	46bc      	mov	ip, r7
     d7e:	1876      	adds	r6, r6, r1
     d80:	4466      	add	r6, ip
     d82:	42b1      	cmp	r1, r6
     d84:	d903      	bls.n	d8e <__aeabi_ddiv+0x196>
     d86:	2180      	movs	r1, #128	; 0x80
     d88:	0249      	lsls	r1, r1, #9
     d8a:	468c      	mov	ip, r1
     d8c:	4462      	add	r2, ip
     d8e:	0c31      	lsrs	r1, r6, #16
     d90:	188a      	adds	r2, r1, r2
     d92:	0431      	lsls	r1, r6, #16
     d94:	041e      	lsls	r6, r3, #16
     d96:	0c36      	lsrs	r6, r6, #16
     d98:	198e      	adds	r6, r1, r6
     d9a:	4290      	cmp	r0, r2
     d9c:	d302      	bcc.n	da4 <__aeabi_ddiv+0x1ac>
     d9e:	d112      	bne.n	dc6 <__aeabi_ddiv+0x1ce>
     da0:	42b5      	cmp	r5, r6
     da2:	d210      	bcs.n	dc6 <__aeabi_ddiv+0x1ce>
     da4:	4643      	mov	r3, r8
     da6:	1e59      	subs	r1, r3, #1
     da8:	9b00      	ldr	r3, [sp, #0]
     daa:	469c      	mov	ip, r3
     dac:	4465      	add	r5, ip
     dae:	001f      	movs	r7, r3
     db0:	429d      	cmp	r5, r3
     db2:	419b      	sbcs	r3, r3
     db4:	425b      	negs	r3, r3
     db6:	191b      	adds	r3, r3, r4
     db8:	18c0      	adds	r0, r0, r3
     dba:	4284      	cmp	r4, r0
     dbc:	d200      	bcs.n	dc0 <__aeabi_ddiv+0x1c8>
     dbe:	e1a0      	b.n	1102 <__aeabi_ddiv+0x50a>
     dc0:	d100      	bne.n	dc4 <__aeabi_ddiv+0x1cc>
     dc2:	e19b      	b.n	10fc <__aeabi_ddiv+0x504>
     dc4:	4688      	mov	r8, r1
     dc6:	1bae      	subs	r6, r5, r6
     dc8:	42b5      	cmp	r5, r6
     dca:	41ad      	sbcs	r5, r5
     dcc:	1a80      	subs	r0, r0, r2
     dce:	426d      	negs	r5, r5
     dd0:	1b40      	subs	r0, r0, r5
     dd2:	4284      	cmp	r4, r0
     dd4:	d100      	bne.n	dd8 <__aeabi_ddiv+0x1e0>
     dd6:	e1d5      	b.n	1184 <__aeabi_ddiv+0x58c>
     dd8:	4649      	mov	r1, r9
     dda:	f7ff f9b7 	bl	14c <__aeabi_uidivmod>
     dde:	9a01      	ldr	r2, [sp, #4]
     de0:	040b      	lsls	r3, r1, #16
     de2:	4342      	muls	r2, r0
     de4:	0c31      	lsrs	r1, r6, #16
     de6:	0005      	movs	r5, r0
     de8:	4319      	orrs	r1, r3
     dea:	428a      	cmp	r2, r1
     dec:	d900      	bls.n	df0 <__aeabi_ddiv+0x1f8>
     dee:	e16c      	b.n	10ca <__aeabi_ddiv+0x4d2>
     df0:	1a88      	subs	r0, r1, r2
     df2:	4649      	mov	r1, r9
     df4:	f7ff f9aa 	bl	14c <__aeabi_uidivmod>
     df8:	9a01      	ldr	r2, [sp, #4]
     dfa:	0436      	lsls	r6, r6, #16
     dfc:	4342      	muls	r2, r0
     dfe:	0409      	lsls	r1, r1, #16
     e00:	0c36      	lsrs	r6, r6, #16
     e02:	0003      	movs	r3, r0
     e04:	430e      	orrs	r6, r1
     e06:	42b2      	cmp	r2, r6
     e08:	d900      	bls.n	e0c <__aeabi_ddiv+0x214>
     e0a:	e153      	b.n	10b4 <__aeabi_ddiv+0x4bc>
     e0c:	9803      	ldr	r0, [sp, #12]
     e0e:	1ab6      	subs	r6, r6, r2
     e10:	0002      	movs	r2, r0
     e12:	042d      	lsls	r5, r5, #16
     e14:	431d      	orrs	r5, r3
     e16:	9f02      	ldr	r7, [sp, #8]
     e18:	042b      	lsls	r3, r5, #16
     e1a:	0c1b      	lsrs	r3, r3, #16
     e1c:	435a      	muls	r2, r3
     e1e:	437b      	muls	r3, r7
     e20:	469c      	mov	ip, r3
     e22:	0c29      	lsrs	r1, r5, #16
     e24:	4348      	muls	r0, r1
     e26:	0c13      	lsrs	r3, r2, #16
     e28:	4484      	add	ip, r0
     e2a:	4463      	add	r3, ip
     e2c:	4379      	muls	r1, r7
     e2e:	4298      	cmp	r0, r3
     e30:	d903      	bls.n	e3a <__aeabi_ddiv+0x242>
     e32:	2080      	movs	r0, #128	; 0x80
     e34:	0240      	lsls	r0, r0, #9
     e36:	4684      	mov	ip, r0
     e38:	4461      	add	r1, ip
     e3a:	0c18      	lsrs	r0, r3, #16
     e3c:	0412      	lsls	r2, r2, #16
     e3e:	041b      	lsls	r3, r3, #16
     e40:	0c12      	lsrs	r2, r2, #16
     e42:	1841      	adds	r1, r0, r1
     e44:	189b      	adds	r3, r3, r2
     e46:	428e      	cmp	r6, r1
     e48:	d200      	bcs.n	e4c <__aeabi_ddiv+0x254>
     e4a:	e0ff      	b.n	104c <__aeabi_ddiv+0x454>
     e4c:	d100      	bne.n	e50 <__aeabi_ddiv+0x258>
     e4e:	e0fa      	b.n	1046 <__aeabi_ddiv+0x44e>
     e50:	2301      	movs	r3, #1
     e52:	431d      	orrs	r5, r3
     e54:	4a49      	ldr	r2, [pc, #292]	; (f7c <__aeabi_ddiv+0x384>)
     e56:	445a      	add	r2, fp
     e58:	2a00      	cmp	r2, #0
     e5a:	dc00      	bgt.n	e5e <__aeabi_ddiv+0x266>
     e5c:	e0aa      	b.n	fb4 <__aeabi_ddiv+0x3bc>
     e5e:	076b      	lsls	r3, r5, #29
     e60:	d000      	beq.n	e64 <__aeabi_ddiv+0x26c>
     e62:	e13d      	b.n	10e0 <__aeabi_ddiv+0x4e8>
     e64:	08ed      	lsrs	r5, r5, #3
     e66:	4643      	mov	r3, r8
     e68:	01db      	lsls	r3, r3, #7
     e6a:	d506      	bpl.n	e7a <__aeabi_ddiv+0x282>
     e6c:	4642      	mov	r2, r8
     e6e:	4b44      	ldr	r3, [pc, #272]	; (f80 <__aeabi_ddiv+0x388>)
     e70:	401a      	ands	r2, r3
     e72:	4690      	mov	r8, r2
     e74:	2280      	movs	r2, #128	; 0x80
     e76:	00d2      	lsls	r2, r2, #3
     e78:	445a      	add	r2, fp
     e7a:	4b42      	ldr	r3, [pc, #264]	; (f84 <__aeabi_ddiv+0x38c>)
     e7c:	429a      	cmp	r2, r3
     e7e:	dd00      	ble.n	e82 <__aeabi_ddiv+0x28a>
     e80:	e71f      	b.n	cc2 <__aeabi_ddiv+0xca>
     e82:	4643      	mov	r3, r8
     e84:	075b      	lsls	r3, r3, #29
     e86:	431d      	orrs	r5, r3
     e88:	4643      	mov	r3, r8
     e8a:	0552      	lsls	r2, r2, #21
     e8c:	025c      	lsls	r4, r3, #9
     e8e:	0b24      	lsrs	r4, r4, #12
     e90:	0d53      	lsrs	r3, r2, #21
     e92:	e708      	b.n	ca6 <__aeabi_ddiv+0xae>
     e94:	4652      	mov	r2, sl
     e96:	4322      	orrs	r2, r4
     e98:	d100      	bne.n	e9c <__aeabi_ddiv+0x2a4>
     e9a:	e07b      	b.n	f94 <__aeabi_ddiv+0x39c>
     e9c:	2c00      	cmp	r4, #0
     e9e:	d100      	bne.n	ea2 <__aeabi_ddiv+0x2aa>
     ea0:	e0fa      	b.n	1098 <__aeabi_ddiv+0x4a0>
     ea2:	0020      	movs	r0, r4
     ea4:	f001 f952 	bl	214c <__clzsi2>
     ea8:	0002      	movs	r2, r0
     eaa:	3a0b      	subs	r2, #11
     eac:	231d      	movs	r3, #29
     eae:	0001      	movs	r1, r0
     eb0:	1a9b      	subs	r3, r3, r2
     eb2:	4652      	mov	r2, sl
     eb4:	3908      	subs	r1, #8
     eb6:	40da      	lsrs	r2, r3
     eb8:	408c      	lsls	r4, r1
     eba:	4314      	orrs	r4, r2
     ebc:	4652      	mov	r2, sl
     ebe:	408a      	lsls	r2, r1
     ec0:	4b31      	ldr	r3, [pc, #196]	; (f88 <__aeabi_ddiv+0x390>)
     ec2:	4458      	add	r0, fp
     ec4:	469b      	mov	fp, r3
     ec6:	4483      	add	fp, r0
     ec8:	2000      	movs	r0, #0
     eca:	e6d5      	b.n	c78 <__aeabi_ddiv+0x80>
     ecc:	464b      	mov	r3, r9
     ece:	4323      	orrs	r3, r4
     ed0:	4698      	mov	r8, r3
     ed2:	d044      	beq.n	f5e <__aeabi_ddiv+0x366>
     ed4:	2c00      	cmp	r4, #0
     ed6:	d100      	bne.n	eda <__aeabi_ddiv+0x2e2>
     ed8:	e0ce      	b.n	1078 <__aeabi_ddiv+0x480>
     eda:	0020      	movs	r0, r4
     edc:	f001 f936 	bl	214c <__clzsi2>
     ee0:	0001      	movs	r1, r0
     ee2:	0002      	movs	r2, r0
     ee4:	390b      	subs	r1, #11
     ee6:	231d      	movs	r3, #29
     ee8:	1a5b      	subs	r3, r3, r1
     eea:	4649      	mov	r1, r9
     eec:	0010      	movs	r0, r2
     eee:	40d9      	lsrs	r1, r3
     ef0:	3808      	subs	r0, #8
     ef2:	4084      	lsls	r4, r0
     ef4:	000b      	movs	r3, r1
     ef6:	464d      	mov	r5, r9
     ef8:	4323      	orrs	r3, r4
     efa:	4698      	mov	r8, r3
     efc:	4085      	lsls	r5, r0
     efe:	4823      	ldr	r0, [pc, #140]	; (f8c <__aeabi_ddiv+0x394>)
     f00:	1a83      	subs	r3, r0, r2
     f02:	469b      	mov	fp, r3
     f04:	2300      	movs	r3, #0
     f06:	4699      	mov	r9, r3
     f08:	9300      	str	r3, [sp, #0]
     f0a:	e69a      	b.n	c42 <__aeabi_ddiv+0x4a>
     f0c:	464b      	mov	r3, r9
     f0e:	4323      	orrs	r3, r4
     f10:	4698      	mov	r8, r3
     f12:	d11d      	bne.n	f50 <__aeabi_ddiv+0x358>
     f14:	2308      	movs	r3, #8
     f16:	4699      	mov	r9, r3
     f18:	3b06      	subs	r3, #6
     f1a:	2500      	movs	r5, #0
     f1c:	4683      	mov	fp, r0
     f1e:	9300      	str	r3, [sp, #0]
     f20:	e68f      	b.n	c42 <__aeabi_ddiv+0x4a>
     f22:	4652      	mov	r2, sl
     f24:	4322      	orrs	r2, r4
     f26:	d109      	bne.n	f3c <__aeabi_ddiv+0x344>
     f28:	2302      	movs	r3, #2
     f2a:	4649      	mov	r1, r9
     f2c:	4319      	orrs	r1, r3
     f2e:	4b18      	ldr	r3, [pc, #96]	; (f90 <__aeabi_ddiv+0x398>)
     f30:	4689      	mov	r9, r1
     f32:	469c      	mov	ip, r3
     f34:	2400      	movs	r4, #0
     f36:	2002      	movs	r0, #2
     f38:	44e3      	add	fp, ip
     f3a:	e69d      	b.n	c78 <__aeabi_ddiv+0x80>
     f3c:	2303      	movs	r3, #3
     f3e:	464a      	mov	r2, r9
     f40:	431a      	orrs	r2, r3
     f42:	4b13      	ldr	r3, [pc, #76]	; (f90 <__aeabi_ddiv+0x398>)
     f44:	4691      	mov	r9, r2
     f46:	469c      	mov	ip, r3
     f48:	4652      	mov	r2, sl
     f4a:	2003      	movs	r0, #3
     f4c:	44e3      	add	fp, ip
     f4e:	e693      	b.n	c78 <__aeabi_ddiv+0x80>
     f50:	230c      	movs	r3, #12
     f52:	4699      	mov	r9, r3
     f54:	3b09      	subs	r3, #9
     f56:	46a0      	mov	r8, r4
     f58:	4683      	mov	fp, r0
     f5a:	9300      	str	r3, [sp, #0]
     f5c:	e671      	b.n	c42 <__aeabi_ddiv+0x4a>
     f5e:	2304      	movs	r3, #4
     f60:	4699      	mov	r9, r3
     f62:	2300      	movs	r3, #0
     f64:	469b      	mov	fp, r3
     f66:	3301      	adds	r3, #1
     f68:	2500      	movs	r5, #0
     f6a:	9300      	str	r3, [sp, #0]
     f6c:	e669      	b.n	c42 <__aeabi_ddiv+0x4a>
     f6e:	46c0      	nop			; (mov r8, r8)
     f70:	000007ff 	.word	0x000007ff
     f74:	fffffc01 	.word	0xfffffc01
     f78:	000085dc 	.word	0x000085dc
     f7c:	000003ff 	.word	0x000003ff
     f80:	feffffff 	.word	0xfeffffff
     f84:	000007fe 	.word	0x000007fe
     f88:	000003f3 	.word	0x000003f3
     f8c:	fffffc0d 	.word	0xfffffc0d
     f90:	fffff801 	.word	0xfffff801
     f94:	4649      	mov	r1, r9
     f96:	2301      	movs	r3, #1
     f98:	4319      	orrs	r1, r3
     f9a:	4689      	mov	r9, r1
     f9c:	2400      	movs	r4, #0
     f9e:	2001      	movs	r0, #1
     fa0:	e66a      	b.n	c78 <__aeabi_ddiv+0x80>
     fa2:	2300      	movs	r3, #0
     fa4:	2480      	movs	r4, #128	; 0x80
     fa6:	469a      	mov	sl, r3
     fa8:	2500      	movs	r5, #0
     faa:	4b8a      	ldr	r3, [pc, #552]	; (11d4 <__aeabi_ddiv+0x5dc>)
     fac:	0324      	lsls	r4, r4, #12
     fae:	e67a      	b.n	ca6 <__aeabi_ddiv+0xae>
     fb0:	2501      	movs	r5, #1
     fb2:	426d      	negs	r5, r5
     fb4:	2301      	movs	r3, #1
     fb6:	1a9b      	subs	r3, r3, r2
     fb8:	2b38      	cmp	r3, #56	; 0x38
     fba:	dd00      	ble.n	fbe <__aeabi_ddiv+0x3c6>
     fbc:	e670      	b.n	ca0 <__aeabi_ddiv+0xa8>
     fbe:	2b1f      	cmp	r3, #31
     fc0:	dc00      	bgt.n	fc4 <__aeabi_ddiv+0x3cc>
     fc2:	e0bf      	b.n	1144 <__aeabi_ddiv+0x54c>
     fc4:	211f      	movs	r1, #31
     fc6:	4249      	negs	r1, r1
     fc8:	1a8a      	subs	r2, r1, r2
     fca:	4641      	mov	r1, r8
     fcc:	40d1      	lsrs	r1, r2
     fce:	000a      	movs	r2, r1
     fd0:	2b20      	cmp	r3, #32
     fd2:	d004      	beq.n	fde <__aeabi_ddiv+0x3e6>
     fd4:	4641      	mov	r1, r8
     fd6:	4b80      	ldr	r3, [pc, #512]	; (11d8 <__aeabi_ddiv+0x5e0>)
     fd8:	445b      	add	r3, fp
     fda:	4099      	lsls	r1, r3
     fdc:	430d      	orrs	r5, r1
     fde:	1e6b      	subs	r3, r5, #1
     fe0:	419d      	sbcs	r5, r3
     fe2:	2307      	movs	r3, #7
     fe4:	432a      	orrs	r2, r5
     fe6:	001d      	movs	r5, r3
     fe8:	2400      	movs	r4, #0
     fea:	4015      	ands	r5, r2
     fec:	4213      	tst	r3, r2
     fee:	d100      	bne.n	ff2 <__aeabi_ddiv+0x3fa>
     ff0:	e0d4      	b.n	119c <__aeabi_ddiv+0x5a4>
     ff2:	210f      	movs	r1, #15
     ff4:	2300      	movs	r3, #0
     ff6:	4011      	ands	r1, r2
     ff8:	2904      	cmp	r1, #4
     ffa:	d100      	bne.n	ffe <__aeabi_ddiv+0x406>
     ffc:	e0cb      	b.n	1196 <__aeabi_ddiv+0x59e>
     ffe:	1d11      	adds	r1, r2, #4
    1000:	4291      	cmp	r1, r2
    1002:	4192      	sbcs	r2, r2
    1004:	4252      	negs	r2, r2
    1006:	189b      	adds	r3, r3, r2
    1008:	000a      	movs	r2, r1
    100a:	0219      	lsls	r1, r3, #8
    100c:	d400      	bmi.n	1010 <__aeabi_ddiv+0x418>
    100e:	e0c2      	b.n	1196 <__aeabi_ddiv+0x59e>
    1010:	2301      	movs	r3, #1
    1012:	2400      	movs	r4, #0
    1014:	2500      	movs	r5, #0
    1016:	e646      	b.n	ca6 <__aeabi_ddiv+0xae>
    1018:	2380      	movs	r3, #128	; 0x80
    101a:	4641      	mov	r1, r8
    101c:	031b      	lsls	r3, r3, #12
    101e:	4219      	tst	r1, r3
    1020:	d008      	beq.n	1034 <__aeabi_ddiv+0x43c>
    1022:	421c      	tst	r4, r3
    1024:	d106      	bne.n	1034 <__aeabi_ddiv+0x43c>
    1026:	431c      	orrs	r4, r3
    1028:	0324      	lsls	r4, r4, #12
    102a:	46ba      	mov	sl, r7
    102c:	0015      	movs	r5, r2
    102e:	4b69      	ldr	r3, [pc, #420]	; (11d4 <__aeabi_ddiv+0x5dc>)
    1030:	0b24      	lsrs	r4, r4, #12
    1032:	e638      	b.n	ca6 <__aeabi_ddiv+0xae>
    1034:	2480      	movs	r4, #128	; 0x80
    1036:	4643      	mov	r3, r8
    1038:	0324      	lsls	r4, r4, #12
    103a:	431c      	orrs	r4, r3
    103c:	0324      	lsls	r4, r4, #12
    103e:	46b2      	mov	sl, r6
    1040:	4b64      	ldr	r3, [pc, #400]	; (11d4 <__aeabi_ddiv+0x5dc>)
    1042:	0b24      	lsrs	r4, r4, #12
    1044:	e62f      	b.n	ca6 <__aeabi_ddiv+0xae>
    1046:	2b00      	cmp	r3, #0
    1048:	d100      	bne.n	104c <__aeabi_ddiv+0x454>
    104a:	e703      	b.n	e54 <__aeabi_ddiv+0x25c>
    104c:	19a6      	adds	r6, r4, r6
    104e:	1e68      	subs	r0, r5, #1
    1050:	42a6      	cmp	r6, r4
    1052:	d200      	bcs.n	1056 <__aeabi_ddiv+0x45e>
    1054:	e08d      	b.n	1172 <__aeabi_ddiv+0x57a>
    1056:	428e      	cmp	r6, r1
    1058:	d200      	bcs.n	105c <__aeabi_ddiv+0x464>
    105a:	e0a3      	b.n	11a4 <__aeabi_ddiv+0x5ac>
    105c:	d100      	bne.n	1060 <__aeabi_ddiv+0x468>
    105e:	e0b3      	b.n	11c8 <__aeabi_ddiv+0x5d0>
    1060:	0005      	movs	r5, r0
    1062:	e6f5      	b.n	e50 <__aeabi_ddiv+0x258>
    1064:	42aa      	cmp	r2, r5
    1066:	d900      	bls.n	106a <__aeabi_ddiv+0x472>
    1068:	e639      	b.n	cde <__aeabi_ddiv+0xe6>
    106a:	4643      	mov	r3, r8
    106c:	07de      	lsls	r6, r3, #31
    106e:	0858      	lsrs	r0, r3, #1
    1070:	086b      	lsrs	r3, r5, #1
    1072:	431e      	orrs	r6, r3
    1074:	07ed      	lsls	r5, r5, #31
    1076:	e639      	b.n	cec <__aeabi_ddiv+0xf4>
    1078:	4648      	mov	r0, r9
    107a:	f001 f867 	bl	214c <__clzsi2>
    107e:	0001      	movs	r1, r0
    1080:	0002      	movs	r2, r0
    1082:	3115      	adds	r1, #21
    1084:	3220      	adds	r2, #32
    1086:	291c      	cmp	r1, #28
    1088:	dc00      	bgt.n	108c <__aeabi_ddiv+0x494>
    108a:	e72c      	b.n	ee6 <__aeabi_ddiv+0x2ee>
    108c:	464b      	mov	r3, r9
    108e:	3808      	subs	r0, #8
    1090:	4083      	lsls	r3, r0
    1092:	2500      	movs	r5, #0
    1094:	4698      	mov	r8, r3
    1096:	e732      	b.n	efe <__aeabi_ddiv+0x306>
    1098:	f001 f858 	bl	214c <__clzsi2>
    109c:	0003      	movs	r3, r0
    109e:	001a      	movs	r2, r3
    10a0:	3215      	adds	r2, #21
    10a2:	3020      	adds	r0, #32
    10a4:	2a1c      	cmp	r2, #28
    10a6:	dc00      	bgt.n	10aa <__aeabi_ddiv+0x4b2>
    10a8:	e700      	b.n	eac <__aeabi_ddiv+0x2b4>
    10aa:	4654      	mov	r4, sl
    10ac:	3b08      	subs	r3, #8
    10ae:	2200      	movs	r2, #0
    10b0:	409c      	lsls	r4, r3
    10b2:	e705      	b.n	ec0 <__aeabi_ddiv+0x2c8>
    10b4:	1936      	adds	r6, r6, r4
    10b6:	3b01      	subs	r3, #1
    10b8:	42b4      	cmp	r4, r6
    10ba:	d900      	bls.n	10be <__aeabi_ddiv+0x4c6>
    10bc:	e6a6      	b.n	e0c <__aeabi_ddiv+0x214>
    10be:	42b2      	cmp	r2, r6
    10c0:	d800      	bhi.n	10c4 <__aeabi_ddiv+0x4cc>
    10c2:	e6a3      	b.n	e0c <__aeabi_ddiv+0x214>
    10c4:	1e83      	subs	r3, r0, #2
    10c6:	1936      	adds	r6, r6, r4
    10c8:	e6a0      	b.n	e0c <__aeabi_ddiv+0x214>
    10ca:	1909      	adds	r1, r1, r4
    10cc:	3d01      	subs	r5, #1
    10ce:	428c      	cmp	r4, r1
    10d0:	d900      	bls.n	10d4 <__aeabi_ddiv+0x4dc>
    10d2:	e68d      	b.n	df0 <__aeabi_ddiv+0x1f8>
    10d4:	428a      	cmp	r2, r1
    10d6:	d800      	bhi.n	10da <__aeabi_ddiv+0x4e2>
    10d8:	e68a      	b.n	df0 <__aeabi_ddiv+0x1f8>
    10da:	1e85      	subs	r5, r0, #2
    10dc:	1909      	adds	r1, r1, r4
    10de:	e687      	b.n	df0 <__aeabi_ddiv+0x1f8>
    10e0:	230f      	movs	r3, #15
    10e2:	402b      	ands	r3, r5
    10e4:	2b04      	cmp	r3, #4
    10e6:	d100      	bne.n	10ea <__aeabi_ddiv+0x4f2>
    10e8:	e6bc      	b.n	e64 <__aeabi_ddiv+0x26c>
    10ea:	2305      	movs	r3, #5
    10ec:	425b      	negs	r3, r3
    10ee:	42ab      	cmp	r3, r5
    10f0:	419b      	sbcs	r3, r3
    10f2:	3504      	adds	r5, #4
    10f4:	425b      	negs	r3, r3
    10f6:	08ed      	lsrs	r5, r5, #3
    10f8:	4498      	add	r8, r3
    10fa:	e6b4      	b.n	e66 <__aeabi_ddiv+0x26e>
    10fc:	42af      	cmp	r7, r5
    10fe:	d900      	bls.n	1102 <__aeabi_ddiv+0x50a>
    1100:	e660      	b.n	dc4 <__aeabi_ddiv+0x1cc>
    1102:	4282      	cmp	r2, r0
    1104:	d804      	bhi.n	1110 <__aeabi_ddiv+0x518>
    1106:	d000      	beq.n	110a <__aeabi_ddiv+0x512>
    1108:	e65c      	b.n	dc4 <__aeabi_ddiv+0x1cc>
    110a:	42ae      	cmp	r6, r5
    110c:	d800      	bhi.n	1110 <__aeabi_ddiv+0x518>
    110e:	e659      	b.n	dc4 <__aeabi_ddiv+0x1cc>
    1110:	2302      	movs	r3, #2
    1112:	425b      	negs	r3, r3
    1114:	469c      	mov	ip, r3
    1116:	9b00      	ldr	r3, [sp, #0]
    1118:	44e0      	add	r8, ip
    111a:	469c      	mov	ip, r3
    111c:	4465      	add	r5, ip
    111e:	429d      	cmp	r5, r3
    1120:	419b      	sbcs	r3, r3
    1122:	425b      	negs	r3, r3
    1124:	191b      	adds	r3, r3, r4
    1126:	18c0      	adds	r0, r0, r3
    1128:	e64d      	b.n	dc6 <__aeabi_ddiv+0x1ce>
    112a:	428a      	cmp	r2, r1
    112c:	d800      	bhi.n	1130 <__aeabi_ddiv+0x538>
    112e:	e60e      	b.n	d4e <__aeabi_ddiv+0x156>
    1130:	1e83      	subs	r3, r0, #2
    1132:	1909      	adds	r1, r1, r4
    1134:	e60b      	b.n	d4e <__aeabi_ddiv+0x156>
    1136:	428a      	cmp	r2, r1
    1138:	d800      	bhi.n	113c <__aeabi_ddiv+0x544>
    113a:	e5f4      	b.n	d26 <__aeabi_ddiv+0x12e>
    113c:	1e83      	subs	r3, r0, #2
    113e:	4698      	mov	r8, r3
    1140:	1909      	adds	r1, r1, r4
    1142:	e5f0      	b.n	d26 <__aeabi_ddiv+0x12e>
    1144:	4925      	ldr	r1, [pc, #148]	; (11dc <__aeabi_ddiv+0x5e4>)
    1146:	0028      	movs	r0, r5
    1148:	4459      	add	r1, fp
    114a:	408d      	lsls	r5, r1
    114c:	4642      	mov	r2, r8
    114e:	408a      	lsls	r2, r1
    1150:	1e69      	subs	r1, r5, #1
    1152:	418d      	sbcs	r5, r1
    1154:	4641      	mov	r1, r8
    1156:	40d8      	lsrs	r0, r3
    1158:	40d9      	lsrs	r1, r3
    115a:	4302      	orrs	r2, r0
    115c:	432a      	orrs	r2, r5
    115e:	000b      	movs	r3, r1
    1160:	0751      	lsls	r1, r2, #29
    1162:	d100      	bne.n	1166 <__aeabi_ddiv+0x56e>
    1164:	e751      	b.n	100a <__aeabi_ddiv+0x412>
    1166:	210f      	movs	r1, #15
    1168:	4011      	ands	r1, r2
    116a:	2904      	cmp	r1, #4
    116c:	d000      	beq.n	1170 <__aeabi_ddiv+0x578>
    116e:	e746      	b.n	ffe <__aeabi_ddiv+0x406>
    1170:	e74b      	b.n	100a <__aeabi_ddiv+0x412>
    1172:	0005      	movs	r5, r0
    1174:	428e      	cmp	r6, r1
    1176:	d000      	beq.n	117a <__aeabi_ddiv+0x582>
    1178:	e66a      	b.n	e50 <__aeabi_ddiv+0x258>
    117a:	9a00      	ldr	r2, [sp, #0]
    117c:	4293      	cmp	r3, r2
    117e:	d000      	beq.n	1182 <__aeabi_ddiv+0x58a>
    1180:	e666      	b.n	e50 <__aeabi_ddiv+0x258>
    1182:	e667      	b.n	e54 <__aeabi_ddiv+0x25c>
    1184:	4a16      	ldr	r2, [pc, #88]	; (11e0 <__aeabi_ddiv+0x5e8>)
    1186:	445a      	add	r2, fp
    1188:	2a00      	cmp	r2, #0
    118a:	dc00      	bgt.n	118e <__aeabi_ddiv+0x596>
    118c:	e710      	b.n	fb0 <__aeabi_ddiv+0x3b8>
    118e:	2301      	movs	r3, #1
    1190:	2500      	movs	r5, #0
    1192:	4498      	add	r8, r3
    1194:	e667      	b.n	e66 <__aeabi_ddiv+0x26e>
    1196:	075d      	lsls	r5, r3, #29
    1198:	025b      	lsls	r3, r3, #9
    119a:	0b1c      	lsrs	r4, r3, #12
    119c:	08d2      	lsrs	r2, r2, #3
    119e:	2300      	movs	r3, #0
    11a0:	4315      	orrs	r5, r2
    11a2:	e580      	b.n	ca6 <__aeabi_ddiv+0xae>
    11a4:	9800      	ldr	r0, [sp, #0]
    11a6:	3d02      	subs	r5, #2
    11a8:	0042      	lsls	r2, r0, #1
    11aa:	4282      	cmp	r2, r0
    11ac:	41bf      	sbcs	r7, r7
    11ae:	427f      	negs	r7, r7
    11b0:	193c      	adds	r4, r7, r4
    11b2:	1936      	adds	r6, r6, r4
    11b4:	9200      	str	r2, [sp, #0]
    11b6:	e7dd      	b.n	1174 <__aeabi_ddiv+0x57c>
    11b8:	2480      	movs	r4, #128	; 0x80
    11ba:	4643      	mov	r3, r8
    11bc:	0324      	lsls	r4, r4, #12
    11be:	431c      	orrs	r4, r3
    11c0:	0324      	lsls	r4, r4, #12
    11c2:	4b04      	ldr	r3, [pc, #16]	; (11d4 <__aeabi_ddiv+0x5dc>)
    11c4:	0b24      	lsrs	r4, r4, #12
    11c6:	e56e      	b.n	ca6 <__aeabi_ddiv+0xae>
    11c8:	9a00      	ldr	r2, [sp, #0]
    11ca:	429a      	cmp	r2, r3
    11cc:	d3ea      	bcc.n	11a4 <__aeabi_ddiv+0x5ac>
    11ce:	0005      	movs	r5, r0
    11d0:	e7d3      	b.n	117a <__aeabi_ddiv+0x582>
    11d2:	46c0      	nop			; (mov r8, r8)
    11d4:	000007ff 	.word	0x000007ff
    11d8:	0000043e 	.word	0x0000043e
    11dc:	0000041e 	.word	0x0000041e
    11e0:	000003ff 	.word	0x000003ff

000011e4 <__eqdf2>:
    11e4:	b5f0      	push	{r4, r5, r6, r7, lr}
    11e6:	464e      	mov	r6, r9
    11e8:	4645      	mov	r5, r8
    11ea:	46de      	mov	lr, fp
    11ec:	4657      	mov	r7, sl
    11ee:	4690      	mov	r8, r2
    11f0:	b5e0      	push	{r5, r6, r7, lr}
    11f2:	0017      	movs	r7, r2
    11f4:	031a      	lsls	r2, r3, #12
    11f6:	0b12      	lsrs	r2, r2, #12
    11f8:	0005      	movs	r5, r0
    11fa:	4684      	mov	ip, r0
    11fc:	4819      	ldr	r0, [pc, #100]	; (1264 <__eqdf2+0x80>)
    11fe:	030e      	lsls	r6, r1, #12
    1200:	004c      	lsls	r4, r1, #1
    1202:	4691      	mov	r9, r2
    1204:	005a      	lsls	r2, r3, #1
    1206:	0fdb      	lsrs	r3, r3, #31
    1208:	469b      	mov	fp, r3
    120a:	0b36      	lsrs	r6, r6, #12
    120c:	0d64      	lsrs	r4, r4, #21
    120e:	0fc9      	lsrs	r1, r1, #31
    1210:	0d52      	lsrs	r2, r2, #21
    1212:	4284      	cmp	r4, r0
    1214:	d019      	beq.n	124a <__eqdf2+0x66>
    1216:	4282      	cmp	r2, r0
    1218:	d010      	beq.n	123c <__eqdf2+0x58>
    121a:	2001      	movs	r0, #1
    121c:	4294      	cmp	r4, r2
    121e:	d10e      	bne.n	123e <__eqdf2+0x5a>
    1220:	454e      	cmp	r6, r9
    1222:	d10c      	bne.n	123e <__eqdf2+0x5a>
    1224:	2001      	movs	r0, #1
    1226:	45c4      	cmp	ip, r8
    1228:	d109      	bne.n	123e <__eqdf2+0x5a>
    122a:	4559      	cmp	r1, fp
    122c:	d017      	beq.n	125e <__eqdf2+0x7a>
    122e:	2c00      	cmp	r4, #0
    1230:	d105      	bne.n	123e <__eqdf2+0x5a>
    1232:	0030      	movs	r0, r6
    1234:	4328      	orrs	r0, r5
    1236:	1e43      	subs	r3, r0, #1
    1238:	4198      	sbcs	r0, r3
    123a:	e000      	b.n	123e <__eqdf2+0x5a>
    123c:	2001      	movs	r0, #1
    123e:	bcf0      	pop	{r4, r5, r6, r7}
    1240:	46bb      	mov	fp, r7
    1242:	46b2      	mov	sl, r6
    1244:	46a9      	mov	r9, r5
    1246:	46a0      	mov	r8, r4
    1248:	bdf0      	pop	{r4, r5, r6, r7, pc}
    124a:	0033      	movs	r3, r6
    124c:	2001      	movs	r0, #1
    124e:	432b      	orrs	r3, r5
    1250:	d1f5      	bne.n	123e <__eqdf2+0x5a>
    1252:	42a2      	cmp	r2, r4
    1254:	d1f3      	bne.n	123e <__eqdf2+0x5a>
    1256:	464b      	mov	r3, r9
    1258:	433b      	orrs	r3, r7
    125a:	d1f0      	bne.n	123e <__eqdf2+0x5a>
    125c:	e7e2      	b.n	1224 <__eqdf2+0x40>
    125e:	2000      	movs	r0, #0
    1260:	e7ed      	b.n	123e <__eqdf2+0x5a>
    1262:	46c0      	nop			; (mov r8, r8)
    1264:	000007ff 	.word	0x000007ff

00001268 <__gedf2>:
    1268:	b5f0      	push	{r4, r5, r6, r7, lr}
    126a:	4647      	mov	r7, r8
    126c:	46ce      	mov	lr, r9
    126e:	0004      	movs	r4, r0
    1270:	0018      	movs	r0, r3
    1272:	0016      	movs	r6, r2
    1274:	031b      	lsls	r3, r3, #12
    1276:	0b1b      	lsrs	r3, r3, #12
    1278:	4d2d      	ldr	r5, [pc, #180]	; (1330 <__gedf2+0xc8>)
    127a:	004a      	lsls	r2, r1, #1
    127c:	4699      	mov	r9, r3
    127e:	b580      	push	{r7, lr}
    1280:	0043      	lsls	r3, r0, #1
    1282:	030f      	lsls	r7, r1, #12
    1284:	46a4      	mov	ip, r4
    1286:	46b0      	mov	r8, r6
    1288:	0b3f      	lsrs	r7, r7, #12
    128a:	0d52      	lsrs	r2, r2, #21
    128c:	0fc9      	lsrs	r1, r1, #31
    128e:	0d5b      	lsrs	r3, r3, #21
    1290:	0fc0      	lsrs	r0, r0, #31
    1292:	42aa      	cmp	r2, r5
    1294:	d021      	beq.n	12da <__gedf2+0x72>
    1296:	42ab      	cmp	r3, r5
    1298:	d013      	beq.n	12c2 <__gedf2+0x5a>
    129a:	2a00      	cmp	r2, #0
    129c:	d122      	bne.n	12e4 <__gedf2+0x7c>
    129e:	433c      	orrs	r4, r7
    12a0:	2b00      	cmp	r3, #0
    12a2:	d102      	bne.n	12aa <__gedf2+0x42>
    12a4:	464d      	mov	r5, r9
    12a6:	432e      	orrs	r6, r5
    12a8:	d022      	beq.n	12f0 <__gedf2+0x88>
    12aa:	2c00      	cmp	r4, #0
    12ac:	d010      	beq.n	12d0 <__gedf2+0x68>
    12ae:	4281      	cmp	r1, r0
    12b0:	d022      	beq.n	12f8 <__gedf2+0x90>
    12b2:	2002      	movs	r0, #2
    12b4:	3901      	subs	r1, #1
    12b6:	4008      	ands	r0, r1
    12b8:	3801      	subs	r0, #1
    12ba:	bcc0      	pop	{r6, r7}
    12bc:	46b9      	mov	r9, r7
    12be:	46b0      	mov	r8, r6
    12c0:	bdf0      	pop	{r4, r5, r6, r7, pc}
    12c2:	464d      	mov	r5, r9
    12c4:	432e      	orrs	r6, r5
    12c6:	d129      	bne.n	131c <__gedf2+0xb4>
    12c8:	2a00      	cmp	r2, #0
    12ca:	d1f0      	bne.n	12ae <__gedf2+0x46>
    12cc:	433c      	orrs	r4, r7
    12ce:	d1ee      	bne.n	12ae <__gedf2+0x46>
    12d0:	2800      	cmp	r0, #0
    12d2:	d1f2      	bne.n	12ba <__gedf2+0x52>
    12d4:	2001      	movs	r0, #1
    12d6:	4240      	negs	r0, r0
    12d8:	e7ef      	b.n	12ba <__gedf2+0x52>
    12da:	003d      	movs	r5, r7
    12dc:	4325      	orrs	r5, r4
    12de:	d11d      	bne.n	131c <__gedf2+0xb4>
    12e0:	4293      	cmp	r3, r2
    12e2:	d0ee      	beq.n	12c2 <__gedf2+0x5a>
    12e4:	2b00      	cmp	r3, #0
    12e6:	d1e2      	bne.n	12ae <__gedf2+0x46>
    12e8:	464c      	mov	r4, r9
    12ea:	4326      	orrs	r6, r4
    12ec:	d1df      	bne.n	12ae <__gedf2+0x46>
    12ee:	e7e0      	b.n	12b2 <__gedf2+0x4a>
    12f0:	2000      	movs	r0, #0
    12f2:	2c00      	cmp	r4, #0
    12f4:	d0e1      	beq.n	12ba <__gedf2+0x52>
    12f6:	e7dc      	b.n	12b2 <__gedf2+0x4a>
    12f8:	429a      	cmp	r2, r3
    12fa:	dc0a      	bgt.n	1312 <__gedf2+0xaa>
    12fc:	dbe8      	blt.n	12d0 <__gedf2+0x68>
    12fe:	454f      	cmp	r7, r9
    1300:	d8d7      	bhi.n	12b2 <__gedf2+0x4a>
    1302:	d00e      	beq.n	1322 <__gedf2+0xba>
    1304:	2000      	movs	r0, #0
    1306:	454f      	cmp	r7, r9
    1308:	d2d7      	bcs.n	12ba <__gedf2+0x52>
    130a:	2900      	cmp	r1, #0
    130c:	d0e2      	beq.n	12d4 <__gedf2+0x6c>
    130e:	0008      	movs	r0, r1
    1310:	e7d3      	b.n	12ba <__gedf2+0x52>
    1312:	4243      	negs	r3, r0
    1314:	4158      	adcs	r0, r3
    1316:	0040      	lsls	r0, r0, #1
    1318:	3801      	subs	r0, #1
    131a:	e7ce      	b.n	12ba <__gedf2+0x52>
    131c:	2002      	movs	r0, #2
    131e:	4240      	negs	r0, r0
    1320:	e7cb      	b.n	12ba <__gedf2+0x52>
    1322:	45c4      	cmp	ip, r8
    1324:	d8c5      	bhi.n	12b2 <__gedf2+0x4a>
    1326:	2000      	movs	r0, #0
    1328:	45c4      	cmp	ip, r8
    132a:	d2c6      	bcs.n	12ba <__gedf2+0x52>
    132c:	e7ed      	b.n	130a <__gedf2+0xa2>
    132e:	46c0      	nop			; (mov r8, r8)
    1330:	000007ff 	.word	0x000007ff

00001334 <__ledf2>:
    1334:	b5f0      	push	{r4, r5, r6, r7, lr}
    1336:	4647      	mov	r7, r8
    1338:	46ce      	mov	lr, r9
    133a:	0004      	movs	r4, r0
    133c:	0018      	movs	r0, r3
    133e:	0016      	movs	r6, r2
    1340:	031b      	lsls	r3, r3, #12
    1342:	0b1b      	lsrs	r3, r3, #12
    1344:	4d2c      	ldr	r5, [pc, #176]	; (13f8 <__ledf2+0xc4>)
    1346:	004a      	lsls	r2, r1, #1
    1348:	4699      	mov	r9, r3
    134a:	b580      	push	{r7, lr}
    134c:	0043      	lsls	r3, r0, #1
    134e:	030f      	lsls	r7, r1, #12
    1350:	46a4      	mov	ip, r4
    1352:	46b0      	mov	r8, r6
    1354:	0b3f      	lsrs	r7, r7, #12
    1356:	0d52      	lsrs	r2, r2, #21
    1358:	0fc9      	lsrs	r1, r1, #31
    135a:	0d5b      	lsrs	r3, r3, #21
    135c:	0fc0      	lsrs	r0, r0, #31
    135e:	42aa      	cmp	r2, r5
    1360:	d00d      	beq.n	137e <__ledf2+0x4a>
    1362:	42ab      	cmp	r3, r5
    1364:	d010      	beq.n	1388 <__ledf2+0x54>
    1366:	2a00      	cmp	r2, #0
    1368:	d127      	bne.n	13ba <__ledf2+0x86>
    136a:	433c      	orrs	r4, r7
    136c:	2b00      	cmp	r3, #0
    136e:	d111      	bne.n	1394 <__ledf2+0x60>
    1370:	464d      	mov	r5, r9
    1372:	432e      	orrs	r6, r5
    1374:	d10e      	bne.n	1394 <__ledf2+0x60>
    1376:	2000      	movs	r0, #0
    1378:	2c00      	cmp	r4, #0
    137a:	d015      	beq.n	13a8 <__ledf2+0x74>
    137c:	e00e      	b.n	139c <__ledf2+0x68>
    137e:	003d      	movs	r5, r7
    1380:	4325      	orrs	r5, r4
    1382:	d110      	bne.n	13a6 <__ledf2+0x72>
    1384:	4293      	cmp	r3, r2
    1386:	d118      	bne.n	13ba <__ledf2+0x86>
    1388:	464d      	mov	r5, r9
    138a:	432e      	orrs	r6, r5
    138c:	d10b      	bne.n	13a6 <__ledf2+0x72>
    138e:	2a00      	cmp	r2, #0
    1390:	d102      	bne.n	1398 <__ledf2+0x64>
    1392:	433c      	orrs	r4, r7
    1394:	2c00      	cmp	r4, #0
    1396:	d00b      	beq.n	13b0 <__ledf2+0x7c>
    1398:	4281      	cmp	r1, r0
    139a:	d014      	beq.n	13c6 <__ledf2+0x92>
    139c:	2002      	movs	r0, #2
    139e:	3901      	subs	r1, #1
    13a0:	4008      	ands	r0, r1
    13a2:	3801      	subs	r0, #1
    13a4:	e000      	b.n	13a8 <__ledf2+0x74>
    13a6:	2002      	movs	r0, #2
    13a8:	bcc0      	pop	{r6, r7}
    13aa:	46b9      	mov	r9, r7
    13ac:	46b0      	mov	r8, r6
    13ae:	bdf0      	pop	{r4, r5, r6, r7, pc}
    13b0:	2800      	cmp	r0, #0
    13b2:	d1f9      	bne.n	13a8 <__ledf2+0x74>
    13b4:	2001      	movs	r0, #1
    13b6:	4240      	negs	r0, r0
    13b8:	e7f6      	b.n	13a8 <__ledf2+0x74>
    13ba:	2b00      	cmp	r3, #0
    13bc:	d1ec      	bne.n	1398 <__ledf2+0x64>
    13be:	464c      	mov	r4, r9
    13c0:	4326      	orrs	r6, r4
    13c2:	d1e9      	bne.n	1398 <__ledf2+0x64>
    13c4:	e7ea      	b.n	139c <__ledf2+0x68>
    13c6:	429a      	cmp	r2, r3
    13c8:	dd04      	ble.n	13d4 <__ledf2+0xa0>
    13ca:	4243      	negs	r3, r0
    13cc:	4158      	adcs	r0, r3
    13ce:	0040      	lsls	r0, r0, #1
    13d0:	3801      	subs	r0, #1
    13d2:	e7e9      	b.n	13a8 <__ledf2+0x74>
    13d4:	429a      	cmp	r2, r3
    13d6:	dbeb      	blt.n	13b0 <__ledf2+0x7c>
    13d8:	454f      	cmp	r7, r9
    13da:	d8df      	bhi.n	139c <__ledf2+0x68>
    13dc:	d006      	beq.n	13ec <__ledf2+0xb8>
    13de:	2000      	movs	r0, #0
    13e0:	454f      	cmp	r7, r9
    13e2:	d2e1      	bcs.n	13a8 <__ledf2+0x74>
    13e4:	2900      	cmp	r1, #0
    13e6:	d0e5      	beq.n	13b4 <__ledf2+0x80>
    13e8:	0008      	movs	r0, r1
    13ea:	e7dd      	b.n	13a8 <__ledf2+0x74>
    13ec:	45c4      	cmp	ip, r8
    13ee:	d8d5      	bhi.n	139c <__ledf2+0x68>
    13f0:	2000      	movs	r0, #0
    13f2:	45c4      	cmp	ip, r8
    13f4:	d2d8      	bcs.n	13a8 <__ledf2+0x74>
    13f6:	e7f5      	b.n	13e4 <__ledf2+0xb0>
    13f8:	000007ff 	.word	0x000007ff

000013fc <__aeabi_dmul>:
    13fc:	b5f0      	push	{r4, r5, r6, r7, lr}
    13fe:	4657      	mov	r7, sl
    1400:	464e      	mov	r6, r9
    1402:	4645      	mov	r5, r8
    1404:	46de      	mov	lr, fp
    1406:	b5e0      	push	{r5, r6, r7, lr}
    1408:	4698      	mov	r8, r3
    140a:	030c      	lsls	r4, r1, #12
    140c:	004b      	lsls	r3, r1, #1
    140e:	0006      	movs	r6, r0
    1410:	4692      	mov	sl, r2
    1412:	b087      	sub	sp, #28
    1414:	0b24      	lsrs	r4, r4, #12
    1416:	0d5b      	lsrs	r3, r3, #21
    1418:	0fcf      	lsrs	r7, r1, #31
    141a:	2b00      	cmp	r3, #0
    141c:	d100      	bne.n	1420 <__aeabi_dmul+0x24>
    141e:	e15c      	b.n	16da <__aeabi_dmul+0x2de>
    1420:	4ad9      	ldr	r2, [pc, #868]	; (1788 <__aeabi_dmul+0x38c>)
    1422:	4293      	cmp	r3, r2
    1424:	d100      	bne.n	1428 <__aeabi_dmul+0x2c>
    1426:	e175      	b.n	1714 <__aeabi_dmul+0x318>
    1428:	0f42      	lsrs	r2, r0, #29
    142a:	00e4      	lsls	r4, r4, #3
    142c:	4314      	orrs	r4, r2
    142e:	2280      	movs	r2, #128	; 0x80
    1430:	0412      	lsls	r2, r2, #16
    1432:	4314      	orrs	r4, r2
    1434:	4ad5      	ldr	r2, [pc, #852]	; (178c <__aeabi_dmul+0x390>)
    1436:	00c5      	lsls	r5, r0, #3
    1438:	4694      	mov	ip, r2
    143a:	4463      	add	r3, ip
    143c:	9300      	str	r3, [sp, #0]
    143e:	2300      	movs	r3, #0
    1440:	4699      	mov	r9, r3
    1442:	469b      	mov	fp, r3
    1444:	4643      	mov	r3, r8
    1446:	4642      	mov	r2, r8
    1448:	031e      	lsls	r6, r3, #12
    144a:	0fd2      	lsrs	r2, r2, #31
    144c:	005b      	lsls	r3, r3, #1
    144e:	4650      	mov	r0, sl
    1450:	4690      	mov	r8, r2
    1452:	0b36      	lsrs	r6, r6, #12
    1454:	0d5b      	lsrs	r3, r3, #21
    1456:	d100      	bne.n	145a <__aeabi_dmul+0x5e>
    1458:	e120      	b.n	169c <__aeabi_dmul+0x2a0>
    145a:	4acb      	ldr	r2, [pc, #812]	; (1788 <__aeabi_dmul+0x38c>)
    145c:	4293      	cmp	r3, r2
    145e:	d100      	bne.n	1462 <__aeabi_dmul+0x66>
    1460:	e162      	b.n	1728 <__aeabi_dmul+0x32c>
    1462:	49ca      	ldr	r1, [pc, #808]	; (178c <__aeabi_dmul+0x390>)
    1464:	0f42      	lsrs	r2, r0, #29
    1466:	468c      	mov	ip, r1
    1468:	9900      	ldr	r1, [sp, #0]
    146a:	4463      	add	r3, ip
    146c:	00f6      	lsls	r6, r6, #3
    146e:	468c      	mov	ip, r1
    1470:	4316      	orrs	r6, r2
    1472:	2280      	movs	r2, #128	; 0x80
    1474:	449c      	add	ip, r3
    1476:	0412      	lsls	r2, r2, #16
    1478:	4663      	mov	r3, ip
    147a:	4316      	orrs	r6, r2
    147c:	00c2      	lsls	r2, r0, #3
    147e:	2000      	movs	r0, #0
    1480:	9300      	str	r3, [sp, #0]
    1482:	9900      	ldr	r1, [sp, #0]
    1484:	4643      	mov	r3, r8
    1486:	3101      	adds	r1, #1
    1488:	468c      	mov	ip, r1
    148a:	4649      	mov	r1, r9
    148c:	407b      	eors	r3, r7
    148e:	9301      	str	r3, [sp, #4]
    1490:	290f      	cmp	r1, #15
    1492:	d826      	bhi.n	14e2 <__aeabi_dmul+0xe6>
    1494:	4bbe      	ldr	r3, [pc, #760]	; (1790 <__aeabi_dmul+0x394>)
    1496:	0089      	lsls	r1, r1, #2
    1498:	5859      	ldr	r1, [r3, r1]
    149a:	468f      	mov	pc, r1
    149c:	4643      	mov	r3, r8
    149e:	9301      	str	r3, [sp, #4]
    14a0:	0034      	movs	r4, r6
    14a2:	0015      	movs	r5, r2
    14a4:	4683      	mov	fp, r0
    14a6:	465b      	mov	r3, fp
    14a8:	2b02      	cmp	r3, #2
    14aa:	d016      	beq.n	14da <__aeabi_dmul+0xde>
    14ac:	2b03      	cmp	r3, #3
    14ae:	d100      	bne.n	14b2 <__aeabi_dmul+0xb6>
    14b0:	e203      	b.n	18ba <__aeabi_dmul+0x4be>
    14b2:	2b01      	cmp	r3, #1
    14b4:	d000      	beq.n	14b8 <__aeabi_dmul+0xbc>
    14b6:	e0cd      	b.n	1654 <__aeabi_dmul+0x258>
    14b8:	2200      	movs	r2, #0
    14ba:	2400      	movs	r4, #0
    14bc:	2500      	movs	r5, #0
    14be:	9b01      	ldr	r3, [sp, #4]
    14c0:	0512      	lsls	r2, r2, #20
    14c2:	4322      	orrs	r2, r4
    14c4:	07db      	lsls	r3, r3, #31
    14c6:	431a      	orrs	r2, r3
    14c8:	0028      	movs	r0, r5
    14ca:	0011      	movs	r1, r2
    14cc:	b007      	add	sp, #28
    14ce:	bcf0      	pop	{r4, r5, r6, r7}
    14d0:	46bb      	mov	fp, r7
    14d2:	46b2      	mov	sl, r6
    14d4:	46a9      	mov	r9, r5
    14d6:	46a0      	mov	r8, r4
    14d8:	bdf0      	pop	{r4, r5, r6, r7, pc}
    14da:	2400      	movs	r4, #0
    14dc:	2500      	movs	r5, #0
    14de:	4aaa      	ldr	r2, [pc, #680]	; (1788 <__aeabi_dmul+0x38c>)
    14e0:	e7ed      	b.n	14be <__aeabi_dmul+0xc2>
    14e2:	0c28      	lsrs	r0, r5, #16
    14e4:	042d      	lsls	r5, r5, #16
    14e6:	0c2d      	lsrs	r5, r5, #16
    14e8:	002b      	movs	r3, r5
    14ea:	0c11      	lsrs	r1, r2, #16
    14ec:	0412      	lsls	r2, r2, #16
    14ee:	0c12      	lsrs	r2, r2, #16
    14f0:	4353      	muls	r3, r2
    14f2:	4698      	mov	r8, r3
    14f4:	0013      	movs	r3, r2
    14f6:	002f      	movs	r7, r5
    14f8:	4343      	muls	r3, r0
    14fa:	4699      	mov	r9, r3
    14fc:	434f      	muls	r7, r1
    14fe:	444f      	add	r7, r9
    1500:	46bb      	mov	fp, r7
    1502:	4647      	mov	r7, r8
    1504:	000b      	movs	r3, r1
    1506:	0c3f      	lsrs	r7, r7, #16
    1508:	46ba      	mov	sl, r7
    150a:	4343      	muls	r3, r0
    150c:	44da      	add	sl, fp
    150e:	9302      	str	r3, [sp, #8]
    1510:	45d1      	cmp	r9, sl
    1512:	d904      	bls.n	151e <__aeabi_dmul+0x122>
    1514:	2780      	movs	r7, #128	; 0x80
    1516:	027f      	lsls	r7, r7, #9
    1518:	46b9      	mov	r9, r7
    151a:	444b      	add	r3, r9
    151c:	9302      	str	r3, [sp, #8]
    151e:	4653      	mov	r3, sl
    1520:	0c1b      	lsrs	r3, r3, #16
    1522:	469b      	mov	fp, r3
    1524:	4653      	mov	r3, sl
    1526:	041f      	lsls	r7, r3, #16
    1528:	4643      	mov	r3, r8
    152a:	041b      	lsls	r3, r3, #16
    152c:	0c1b      	lsrs	r3, r3, #16
    152e:	4698      	mov	r8, r3
    1530:	003b      	movs	r3, r7
    1532:	4443      	add	r3, r8
    1534:	9304      	str	r3, [sp, #16]
    1536:	0c33      	lsrs	r3, r6, #16
    1538:	0436      	lsls	r6, r6, #16
    153a:	0c36      	lsrs	r6, r6, #16
    153c:	4698      	mov	r8, r3
    153e:	0033      	movs	r3, r6
    1540:	4343      	muls	r3, r0
    1542:	4699      	mov	r9, r3
    1544:	4643      	mov	r3, r8
    1546:	4343      	muls	r3, r0
    1548:	002f      	movs	r7, r5
    154a:	469a      	mov	sl, r3
    154c:	4643      	mov	r3, r8
    154e:	4377      	muls	r7, r6
    1550:	435d      	muls	r5, r3
    1552:	0c38      	lsrs	r0, r7, #16
    1554:	444d      	add	r5, r9
    1556:	1945      	adds	r5, r0, r5
    1558:	45a9      	cmp	r9, r5
    155a:	d903      	bls.n	1564 <__aeabi_dmul+0x168>
    155c:	2380      	movs	r3, #128	; 0x80
    155e:	025b      	lsls	r3, r3, #9
    1560:	4699      	mov	r9, r3
    1562:	44ca      	add	sl, r9
    1564:	043f      	lsls	r7, r7, #16
    1566:	0c28      	lsrs	r0, r5, #16
    1568:	0c3f      	lsrs	r7, r7, #16
    156a:	042d      	lsls	r5, r5, #16
    156c:	19ed      	adds	r5, r5, r7
    156e:	0c27      	lsrs	r7, r4, #16
    1570:	0424      	lsls	r4, r4, #16
    1572:	0c24      	lsrs	r4, r4, #16
    1574:	0003      	movs	r3, r0
    1576:	0020      	movs	r0, r4
    1578:	4350      	muls	r0, r2
    157a:	437a      	muls	r2, r7
    157c:	4691      	mov	r9, r2
    157e:	003a      	movs	r2, r7
    1580:	4453      	add	r3, sl
    1582:	9305      	str	r3, [sp, #20]
    1584:	0c03      	lsrs	r3, r0, #16
    1586:	469a      	mov	sl, r3
    1588:	434a      	muls	r2, r1
    158a:	4361      	muls	r1, r4
    158c:	4449      	add	r1, r9
    158e:	4451      	add	r1, sl
    1590:	44ab      	add	fp, r5
    1592:	4589      	cmp	r9, r1
    1594:	d903      	bls.n	159e <__aeabi_dmul+0x1a2>
    1596:	2380      	movs	r3, #128	; 0x80
    1598:	025b      	lsls	r3, r3, #9
    159a:	4699      	mov	r9, r3
    159c:	444a      	add	r2, r9
    159e:	0400      	lsls	r0, r0, #16
    15a0:	0c0b      	lsrs	r3, r1, #16
    15a2:	0c00      	lsrs	r0, r0, #16
    15a4:	0409      	lsls	r1, r1, #16
    15a6:	1809      	adds	r1, r1, r0
    15a8:	0020      	movs	r0, r4
    15aa:	4699      	mov	r9, r3
    15ac:	4643      	mov	r3, r8
    15ae:	4370      	muls	r0, r6
    15b0:	435c      	muls	r4, r3
    15b2:	437e      	muls	r6, r7
    15b4:	435f      	muls	r7, r3
    15b6:	0c03      	lsrs	r3, r0, #16
    15b8:	4698      	mov	r8, r3
    15ba:	19a4      	adds	r4, r4, r6
    15bc:	4444      	add	r4, r8
    15be:	444a      	add	r2, r9
    15c0:	9703      	str	r7, [sp, #12]
    15c2:	42a6      	cmp	r6, r4
    15c4:	d904      	bls.n	15d0 <__aeabi_dmul+0x1d4>
    15c6:	2380      	movs	r3, #128	; 0x80
    15c8:	025b      	lsls	r3, r3, #9
    15ca:	4698      	mov	r8, r3
    15cc:	4447      	add	r7, r8
    15ce:	9703      	str	r7, [sp, #12]
    15d0:	0423      	lsls	r3, r4, #16
    15d2:	9e02      	ldr	r6, [sp, #8]
    15d4:	469a      	mov	sl, r3
    15d6:	9b05      	ldr	r3, [sp, #20]
    15d8:	445e      	add	r6, fp
    15da:	4698      	mov	r8, r3
    15dc:	42ae      	cmp	r6, r5
    15de:	41ad      	sbcs	r5, r5
    15e0:	1876      	adds	r6, r6, r1
    15e2:	428e      	cmp	r6, r1
    15e4:	4189      	sbcs	r1, r1
    15e6:	0400      	lsls	r0, r0, #16
    15e8:	0c00      	lsrs	r0, r0, #16
    15ea:	4450      	add	r0, sl
    15ec:	4440      	add	r0, r8
    15ee:	426d      	negs	r5, r5
    15f0:	1947      	adds	r7, r0, r5
    15f2:	46b8      	mov	r8, r7
    15f4:	4693      	mov	fp, r2
    15f6:	4249      	negs	r1, r1
    15f8:	4689      	mov	r9, r1
    15fa:	44c3      	add	fp, r8
    15fc:	44d9      	add	r9, fp
    15fe:	4298      	cmp	r0, r3
    1600:	4180      	sbcs	r0, r0
    1602:	45a8      	cmp	r8, r5
    1604:	41ad      	sbcs	r5, r5
    1606:	4593      	cmp	fp, r2
    1608:	4192      	sbcs	r2, r2
    160a:	4589      	cmp	r9, r1
    160c:	4189      	sbcs	r1, r1
    160e:	426d      	negs	r5, r5
    1610:	4240      	negs	r0, r0
    1612:	4328      	orrs	r0, r5
    1614:	0c24      	lsrs	r4, r4, #16
    1616:	4252      	negs	r2, r2
    1618:	4249      	negs	r1, r1
    161a:	430a      	orrs	r2, r1
    161c:	9b03      	ldr	r3, [sp, #12]
    161e:	1900      	adds	r0, r0, r4
    1620:	1880      	adds	r0, r0, r2
    1622:	18c7      	adds	r7, r0, r3
    1624:	464b      	mov	r3, r9
    1626:	0ddc      	lsrs	r4, r3, #23
    1628:	9b04      	ldr	r3, [sp, #16]
    162a:	0275      	lsls	r5, r6, #9
    162c:	431d      	orrs	r5, r3
    162e:	1e6a      	subs	r2, r5, #1
    1630:	4195      	sbcs	r5, r2
    1632:	464b      	mov	r3, r9
    1634:	0df6      	lsrs	r6, r6, #23
    1636:	027f      	lsls	r7, r7, #9
    1638:	4335      	orrs	r5, r6
    163a:	025a      	lsls	r2, r3, #9
    163c:	433c      	orrs	r4, r7
    163e:	4315      	orrs	r5, r2
    1640:	01fb      	lsls	r3, r7, #7
    1642:	d400      	bmi.n	1646 <__aeabi_dmul+0x24a>
    1644:	e11c      	b.n	1880 <__aeabi_dmul+0x484>
    1646:	2101      	movs	r1, #1
    1648:	086a      	lsrs	r2, r5, #1
    164a:	400d      	ands	r5, r1
    164c:	4315      	orrs	r5, r2
    164e:	07e2      	lsls	r2, r4, #31
    1650:	4315      	orrs	r5, r2
    1652:	0864      	lsrs	r4, r4, #1
    1654:	494f      	ldr	r1, [pc, #316]	; (1794 <__aeabi_dmul+0x398>)
    1656:	4461      	add	r1, ip
    1658:	2900      	cmp	r1, #0
    165a:	dc00      	bgt.n	165e <__aeabi_dmul+0x262>
    165c:	e0b0      	b.n	17c0 <__aeabi_dmul+0x3c4>
    165e:	076b      	lsls	r3, r5, #29
    1660:	d009      	beq.n	1676 <__aeabi_dmul+0x27a>
    1662:	220f      	movs	r2, #15
    1664:	402a      	ands	r2, r5
    1666:	2a04      	cmp	r2, #4
    1668:	d005      	beq.n	1676 <__aeabi_dmul+0x27a>
    166a:	1d2a      	adds	r2, r5, #4
    166c:	42aa      	cmp	r2, r5
    166e:	41ad      	sbcs	r5, r5
    1670:	426d      	negs	r5, r5
    1672:	1964      	adds	r4, r4, r5
    1674:	0015      	movs	r5, r2
    1676:	01e3      	lsls	r3, r4, #7
    1678:	d504      	bpl.n	1684 <__aeabi_dmul+0x288>
    167a:	2180      	movs	r1, #128	; 0x80
    167c:	4a46      	ldr	r2, [pc, #280]	; (1798 <__aeabi_dmul+0x39c>)
    167e:	00c9      	lsls	r1, r1, #3
    1680:	4014      	ands	r4, r2
    1682:	4461      	add	r1, ip
    1684:	4a45      	ldr	r2, [pc, #276]	; (179c <__aeabi_dmul+0x3a0>)
    1686:	4291      	cmp	r1, r2
    1688:	dd00      	ble.n	168c <__aeabi_dmul+0x290>
    168a:	e726      	b.n	14da <__aeabi_dmul+0xde>
    168c:	0762      	lsls	r2, r4, #29
    168e:	08ed      	lsrs	r5, r5, #3
    1690:	0264      	lsls	r4, r4, #9
    1692:	0549      	lsls	r1, r1, #21
    1694:	4315      	orrs	r5, r2
    1696:	0b24      	lsrs	r4, r4, #12
    1698:	0d4a      	lsrs	r2, r1, #21
    169a:	e710      	b.n	14be <__aeabi_dmul+0xc2>
    169c:	4652      	mov	r2, sl
    169e:	4332      	orrs	r2, r6
    16a0:	d100      	bne.n	16a4 <__aeabi_dmul+0x2a8>
    16a2:	e07f      	b.n	17a4 <__aeabi_dmul+0x3a8>
    16a4:	2e00      	cmp	r6, #0
    16a6:	d100      	bne.n	16aa <__aeabi_dmul+0x2ae>
    16a8:	e0dc      	b.n	1864 <__aeabi_dmul+0x468>
    16aa:	0030      	movs	r0, r6
    16ac:	f000 fd4e 	bl	214c <__clzsi2>
    16b0:	0002      	movs	r2, r0
    16b2:	3a0b      	subs	r2, #11
    16b4:	231d      	movs	r3, #29
    16b6:	0001      	movs	r1, r0
    16b8:	1a9b      	subs	r3, r3, r2
    16ba:	4652      	mov	r2, sl
    16bc:	3908      	subs	r1, #8
    16be:	40da      	lsrs	r2, r3
    16c0:	408e      	lsls	r6, r1
    16c2:	4316      	orrs	r6, r2
    16c4:	4652      	mov	r2, sl
    16c6:	408a      	lsls	r2, r1
    16c8:	9b00      	ldr	r3, [sp, #0]
    16ca:	4935      	ldr	r1, [pc, #212]	; (17a0 <__aeabi_dmul+0x3a4>)
    16cc:	1a18      	subs	r0, r3, r0
    16ce:	0003      	movs	r3, r0
    16d0:	468c      	mov	ip, r1
    16d2:	4463      	add	r3, ip
    16d4:	2000      	movs	r0, #0
    16d6:	9300      	str	r3, [sp, #0]
    16d8:	e6d3      	b.n	1482 <__aeabi_dmul+0x86>
    16da:	0025      	movs	r5, r4
    16dc:	4305      	orrs	r5, r0
    16de:	d04a      	beq.n	1776 <__aeabi_dmul+0x37a>
    16e0:	2c00      	cmp	r4, #0
    16e2:	d100      	bne.n	16e6 <__aeabi_dmul+0x2ea>
    16e4:	e0b0      	b.n	1848 <__aeabi_dmul+0x44c>
    16e6:	0020      	movs	r0, r4
    16e8:	f000 fd30 	bl	214c <__clzsi2>
    16ec:	0001      	movs	r1, r0
    16ee:	0002      	movs	r2, r0
    16f0:	390b      	subs	r1, #11
    16f2:	231d      	movs	r3, #29
    16f4:	0010      	movs	r0, r2
    16f6:	1a5b      	subs	r3, r3, r1
    16f8:	0031      	movs	r1, r6
    16fa:	0035      	movs	r5, r6
    16fc:	3808      	subs	r0, #8
    16fe:	4084      	lsls	r4, r0
    1700:	40d9      	lsrs	r1, r3
    1702:	4085      	lsls	r5, r0
    1704:	430c      	orrs	r4, r1
    1706:	4826      	ldr	r0, [pc, #152]	; (17a0 <__aeabi_dmul+0x3a4>)
    1708:	1a83      	subs	r3, r0, r2
    170a:	9300      	str	r3, [sp, #0]
    170c:	2300      	movs	r3, #0
    170e:	4699      	mov	r9, r3
    1710:	469b      	mov	fp, r3
    1712:	e697      	b.n	1444 <__aeabi_dmul+0x48>
    1714:	0005      	movs	r5, r0
    1716:	4325      	orrs	r5, r4
    1718:	d126      	bne.n	1768 <__aeabi_dmul+0x36c>
    171a:	2208      	movs	r2, #8
    171c:	9300      	str	r3, [sp, #0]
    171e:	2302      	movs	r3, #2
    1720:	2400      	movs	r4, #0
    1722:	4691      	mov	r9, r2
    1724:	469b      	mov	fp, r3
    1726:	e68d      	b.n	1444 <__aeabi_dmul+0x48>
    1728:	4652      	mov	r2, sl
    172a:	9b00      	ldr	r3, [sp, #0]
    172c:	4332      	orrs	r2, r6
    172e:	d110      	bne.n	1752 <__aeabi_dmul+0x356>
    1730:	4915      	ldr	r1, [pc, #84]	; (1788 <__aeabi_dmul+0x38c>)
    1732:	2600      	movs	r6, #0
    1734:	468c      	mov	ip, r1
    1736:	4463      	add	r3, ip
    1738:	4649      	mov	r1, r9
    173a:	9300      	str	r3, [sp, #0]
    173c:	2302      	movs	r3, #2
    173e:	4319      	orrs	r1, r3
    1740:	4689      	mov	r9, r1
    1742:	2002      	movs	r0, #2
    1744:	e69d      	b.n	1482 <__aeabi_dmul+0x86>
    1746:	465b      	mov	r3, fp
    1748:	9701      	str	r7, [sp, #4]
    174a:	2b02      	cmp	r3, #2
    174c:	d000      	beq.n	1750 <__aeabi_dmul+0x354>
    174e:	e6ad      	b.n	14ac <__aeabi_dmul+0xb0>
    1750:	e6c3      	b.n	14da <__aeabi_dmul+0xde>
    1752:	4a0d      	ldr	r2, [pc, #52]	; (1788 <__aeabi_dmul+0x38c>)
    1754:	2003      	movs	r0, #3
    1756:	4694      	mov	ip, r2
    1758:	4463      	add	r3, ip
    175a:	464a      	mov	r2, r9
    175c:	9300      	str	r3, [sp, #0]
    175e:	2303      	movs	r3, #3
    1760:	431a      	orrs	r2, r3
    1762:	4691      	mov	r9, r2
    1764:	4652      	mov	r2, sl
    1766:	e68c      	b.n	1482 <__aeabi_dmul+0x86>
    1768:	220c      	movs	r2, #12
    176a:	9300      	str	r3, [sp, #0]
    176c:	2303      	movs	r3, #3
    176e:	0005      	movs	r5, r0
    1770:	4691      	mov	r9, r2
    1772:	469b      	mov	fp, r3
    1774:	e666      	b.n	1444 <__aeabi_dmul+0x48>
    1776:	2304      	movs	r3, #4
    1778:	4699      	mov	r9, r3
    177a:	2300      	movs	r3, #0
    177c:	9300      	str	r3, [sp, #0]
    177e:	3301      	adds	r3, #1
    1780:	2400      	movs	r4, #0
    1782:	469b      	mov	fp, r3
    1784:	e65e      	b.n	1444 <__aeabi_dmul+0x48>
    1786:	46c0      	nop			; (mov r8, r8)
    1788:	000007ff 	.word	0x000007ff
    178c:	fffffc01 	.word	0xfffffc01
    1790:	0000861c 	.word	0x0000861c
    1794:	000003ff 	.word	0x000003ff
    1798:	feffffff 	.word	0xfeffffff
    179c:	000007fe 	.word	0x000007fe
    17a0:	fffffc0d 	.word	0xfffffc0d
    17a4:	4649      	mov	r1, r9
    17a6:	2301      	movs	r3, #1
    17a8:	4319      	orrs	r1, r3
    17aa:	4689      	mov	r9, r1
    17ac:	2600      	movs	r6, #0
    17ae:	2001      	movs	r0, #1
    17b0:	e667      	b.n	1482 <__aeabi_dmul+0x86>
    17b2:	2300      	movs	r3, #0
    17b4:	2480      	movs	r4, #128	; 0x80
    17b6:	2500      	movs	r5, #0
    17b8:	4a43      	ldr	r2, [pc, #268]	; (18c8 <__aeabi_dmul+0x4cc>)
    17ba:	9301      	str	r3, [sp, #4]
    17bc:	0324      	lsls	r4, r4, #12
    17be:	e67e      	b.n	14be <__aeabi_dmul+0xc2>
    17c0:	2001      	movs	r0, #1
    17c2:	1a40      	subs	r0, r0, r1
    17c4:	2838      	cmp	r0, #56	; 0x38
    17c6:	dd00      	ble.n	17ca <__aeabi_dmul+0x3ce>
    17c8:	e676      	b.n	14b8 <__aeabi_dmul+0xbc>
    17ca:	281f      	cmp	r0, #31
    17cc:	dd5b      	ble.n	1886 <__aeabi_dmul+0x48a>
    17ce:	221f      	movs	r2, #31
    17d0:	0023      	movs	r3, r4
    17d2:	4252      	negs	r2, r2
    17d4:	1a51      	subs	r1, r2, r1
    17d6:	40cb      	lsrs	r3, r1
    17d8:	0019      	movs	r1, r3
    17da:	2820      	cmp	r0, #32
    17dc:	d003      	beq.n	17e6 <__aeabi_dmul+0x3ea>
    17de:	4a3b      	ldr	r2, [pc, #236]	; (18cc <__aeabi_dmul+0x4d0>)
    17e0:	4462      	add	r2, ip
    17e2:	4094      	lsls	r4, r2
    17e4:	4325      	orrs	r5, r4
    17e6:	1e6a      	subs	r2, r5, #1
    17e8:	4195      	sbcs	r5, r2
    17ea:	002a      	movs	r2, r5
    17ec:	430a      	orrs	r2, r1
    17ee:	2107      	movs	r1, #7
    17f0:	000d      	movs	r5, r1
    17f2:	2400      	movs	r4, #0
    17f4:	4015      	ands	r5, r2
    17f6:	4211      	tst	r1, r2
    17f8:	d05b      	beq.n	18b2 <__aeabi_dmul+0x4b6>
    17fa:	210f      	movs	r1, #15
    17fc:	2400      	movs	r4, #0
    17fe:	4011      	ands	r1, r2
    1800:	2904      	cmp	r1, #4
    1802:	d053      	beq.n	18ac <__aeabi_dmul+0x4b0>
    1804:	1d11      	adds	r1, r2, #4
    1806:	4291      	cmp	r1, r2
    1808:	4192      	sbcs	r2, r2
    180a:	4252      	negs	r2, r2
    180c:	18a4      	adds	r4, r4, r2
    180e:	000a      	movs	r2, r1
    1810:	0223      	lsls	r3, r4, #8
    1812:	d54b      	bpl.n	18ac <__aeabi_dmul+0x4b0>
    1814:	2201      	movs	r2, #1
    1816:	2400      	movs	r4, #0
    1818:	2500      	movs	r5, #0
    181a:	e650      	b.n	14be <__aeabi_dmul+0xc2>
    181c:	2380      	movs	r3, #128	; 0x80
    181e:	031b      	lsls	r3, r3, #12
    1820:	421c      	tst	r4, r3
    1822:	d009      	beq.n	1838 <__aeabi_dmul+0x43c>
    1824:	421e      	tst	r6, r3
    1826:	d107      	bne.n	1838 <__aeabi_dmul+0x43c>
    1828:	4333      	orrs	r3, r6
    182a:	031c      	lsls	r4, r3, #12
    182c:	4643      	mov	r3, r8
    182e:	0015      	movs	r5, r2
    1830:	0b24      	lsrs	r4, r4, #12
    1832:	4a25      	ldr	r2, [pc, #148]	; (18c8 <__aeabi_dmul+0x4cc>)
    1834:	9301      	str	r3, [sp, #4]
    1836:	e642      	b.n	14be <__aeabi_dmul+0xc2>
    1838:	2280      	movs	r2, #128	; 0x80
    183a:	0312      	lsls	r2, r2, #12
    183c:	4314      	orrs	r4, r2
    183e:	0324      	lsls	r4, r4, #12
    1840:	4a21      	ldr	r2, [pc, #132]	; (18c8 <__aeabi_dmul+0x4cc>)
    1842:	0b24      	lsrs	r4, r4, #12
    1844:	9701      	str	r7, [sp, #4]
    1846:	e63a      	b.n	14be <__aeabi_dmul+0xc2>
    1848:	f000 fc80 	bl	214c <__clzsi2>
    184c:	0001      	movs	r1, r0
    184e:	0002      	movs	r2, r0
    1850:	3115      	adds	r1, #21
    1852:	3220      	adds	r2, #32
    1854:	291c      	cmp	r1, #28
    1856:	dc00      	bgt.n	185a <__aeabi_dmul+0x45e>
    1858:	e74b      	b.n	16f2 <__aeabi_dmul+0x2f6>
    185a:	0034      	movs	r4, r6
    185c:	3808      	subs	r0, #8
    185e:	2500      	movs	r5, #0
    1860:	4084      	lsls	r4, r0
    1862:	e750      	b.n	1706 <__aeabi_dmul+0x30a>
    1864:	f000 fc72 	bl	214c <__clzsi2>
    1868:	0003      	movs	r3, r0
    186a:	001a      	movs	r2, r3
    186c:	3215      	adds	r2, #21
    186e:	3020      	adds	r0, #32
    1870:	2a1c      	cmp	r2, #28
    1872:	dc00      	bgt.n	1876 <__aeabi_dmul+0x47a>
    1874:	e71e      	b.n	16b4 <__aeabi_dmul+0x2b8>
    1876:	4656      	mov	r6, sl
    1878:	3b08      	subs	r3, #8
    187a:	2200      	movs	r2, #0
    187c:	409e      	lsls	r6, r3
    187e:	e723      	b.n	16c8 <__aeabi_dmul+0x2cc>
    1880:	9b00      	ldr	r3, [sp, #0]
    1882:	469c      	mov	ip, r3
    1884:	e6e6      	b.n	1654 <__aeabi_dmul+0x258>
    1886:	4912      	ldr	r1, [pc, #72]	; (18d0 <__aeabi_dmul+0x4d4>)
    1888:	0022      	movs	r2, r4
    188a:	4461      	add	r1, ip
    188c:	002e      	movs	r6, r5
    188e:	408d      	lsls	r5, r1
    1890:	408a      	lsls	r2, r1
    1892:	40c6      	lsrs	r6, r0
    1894:	1e69      	subs	r1, r5, #1
    1896:	418d      	sbcs	r5, r1
    1898:	4332      	orrs	r2, r6
    189a:	432a      	orrs	r2, r5
    189c:	40c4      	lsrs	r4, r0
    189e:	0753      	lsls	r3, r2, #29
    18a0:	d0b6      	beq.n	1810 <__aeabi_dmul+0x414>
    18a2:	210f      	movs	r1, #15
    18a4:	4011      	ands	r1, r2
    18a6:	2904      	cmp	r1, #4
    18a8:	d1ac      	bne.n	1804 <__aeabi_dmul+0x408>
    18aa:	e7b1      	b.n	1810 <__aeabi_dmul+0x414>
    18ac:	0765      	lsls	r5, r4, #29
    18ae:	0264      	lsls	r4, r4, #9
    18b0:	0b24      	lsrs	r4, r4, #12
    18b2:	08d2      	lsrs	r2, r2, #3
    18b4:	4315      	orrs	r5, r2
    18b6:	2200      	movs	r2, #0
    18b8:	e601      	b.n	14be <__aeabi_dmul+0xc2>
    18ba:	2280      	movs	r2, #128	; 0x80
    18bc:	0312      	lsls	r2, r2, #12
    18be:	4314      	orrs	r4, r2
    18c0:	0324      	lsls	r4, r4, #12
    18c2:	4a01      	ldr	r2, [pc, #4]	; (18c8 <__aeabi_dmul+0x4cc>)
    18c4:	0b24      	lsrs	r4, r4, #12
    18c6:	e5fa      	b.n	14be <__aeabi_dmul+0xc2>
    18c8:	000007ff 	.word	0x000007ff
    18cc:	0000043e 	.word	0x0000043e
    18d0:	0000041e 	.word	0x0000041e

000018d4 <__aeabi_dsub>:
    18d4:	b5f8      	push	{r3, r4, r5, r6, r7, lr}
    18d6:	4657      	mov	r7, sl
    18d8:	464e      	mov	r6, r9
    18da:	4645      	mov	r5, r8
    18dc:	46de      	mov	lr, fp
    18de:	b5e0      	push	{r5, r6, r7, lr}
    18e0:	001e      	movs	r6, r3
    18e2:	0017      	movs	r7, r2
    18e4:	004a      	lsls	r2, r1, #1
    18e6:	030b      	lsls	r3, r1, #12
    18e8:	0d52      	lsrs	r2, r2, #21
    18ea:	0a5b      	lsrs	r3, r3, #9
    18ec:	4690      	mov	r8, r2
    18ee:	0f42      	lsrs	r2, r0, #29
    18f0:	431a      	orrs	r2, r3
    18f2:	0fcd      	lsrs	r5, r1, #31
    18f4:	4ccd      	ldr	r4, [pc, #820]	; (1c2c <__aeabi_dsub+0x358>)
    18f6:	0331      	lsls	r1, r6, #12
    18f8:	00c3      	lsls	r3, r0, #3
    18fa:	4694      	mov	ip, r2
    18fc:	0070      	lsls	r0, r6, #1
    18fe:	0f7a      	lsrs	r2, r7, #29
    1900:	0a49      	lsrs	r1, r1, #9
    1902:	00ff      	lsls	r7, r7, #3
    1904:	469a      	mov	sl, r3
    1906:	46b9      	mov	r9, r7
    1908:	0d40      	lsrs	r0, r0, #21
    190a:	0ff6      	lsrs	r6, r6, #31
    190c:	4311      	orrs	r1, r2
    190e:	42a0      	cmp	r0, r4
    1910:	d100      	bne.n	1914 <__aeabi_dsub+0x40>
    1912:	e0b1      	b.n	1a78 <__aeabi_dsub+0x1a4>
    1914:	2201      	movs	r2, #1
    1916:	4056      	eors	r6, r2
    1918:	46b3      	mov	fp, r6
    191a:	42b5      	cmp	r5, r6
    191c:	d100      	bne.n	1920 <__aeabi_dsub+0x4c>
    191e:	e088      	b.n	1a32 <__aeabi_dsub+0x15e>
    1920:	4642      	mov	r2, r8
    1922:	1a12      	subs	r2, r2, r0
    1924:	2a00      	cmp	r2, #0
    1926:	dc00      	bgt.n	192a <__aeabi_dsub+0x56>
    1928:	e0ae      	b.n	1a88 <__aeabi_dsub+0x1b4>
    192a:	2800      	cmp	r0, #0
    192c:	d100      	bne.n	1930 <__aeabi_dsub+0x5c>
    192e:	e0c1      	b.n	1ab4 <__aeabi_dsub+0x1e0>
    1930:	48be      	ldr	r0, [pc, #760]	; (1c2c <__aeabi_dsub+0x358>)
    1932:	4580      	cmp	r8, r0
    1934:	d100      	bne.n	1938 <__aeabi_dsub+0x64>
    1936:	e151      	b.n	1bdc <__aeabi_dsub+0x308>
    1938:	2080      	movs	r0, #128	; 0x80
    193a:	0400      	lsls	r0, r0, #16
    193c:	4301      	orrs	r1, r0
    193e:	2a38      	cmp	r2, #56	; 0x38
    1940:	dd00      	ble.n	1944 <__aeabi_dsub+0x70>
    1942:	e17b      	b.n	1c3c <__aeabi_dsub+0x368>
    1944:	2a1f      	cmp	r2, #31
    1946:	dd00      	ble.n	194a <__aeabi_dsub+0x76>
    1948:	e1ee      	b.n	1d28 <__aeabi_dsub+0x454>
    194a:	2020      	movs	r0, #32
    194c:	003e      	movs	r6, r7
    194e:	1a80      	subs	r0, r0, r2
    1950:	000c      	movs	r4, r1
    1952:	40d6      	lsrs	r6, r2
    1954:	40d1      	lsrs	r1, r2
    1956:	4087      	lsls	r7, r0
    1958:	4662      	mov	r2, ip
    195a:	4084      	lsls	r4, r0
    195c:	1a52      	subs	r2, r2, r1
    195e:	1e78      	subs	r0, r7, #1
    1960:	4187      	sbcs	r7, r0
    1962:	4694      	mov	ip, r2
    1964:	4334      	orrs	r4, r6
    1966:	4327      	orrs	r7, r4
    1968:	1bdc      	subs	r4, r3, r7
    196a:	42a3      	cmp	r3, r4
    196c:	419b      	sbcs	r3, r3
    196e:	4662      	mov	r2, ip
    1970:	425b      	negs	r3, r3
    1972:	1ad3      	subs	r3, r2, r3
    1974:	4699      	mov	r9, r3
    1976:	464b      	mov	r3, r9
    1978:	021b      	lsls	r3, r3, #8
    197a:	d400      	bmi.n	197e <__aeabi_dsub+0xaa>
    197c:	e118      	b.n	1bb0 <__aeabi_dsub+0x2dc>
    197e:	464b      	mov	r3, r9
    1980:	0258      	lsls	r0, r3, #9
    1982:	0a43      	lsrs	r3, r0, #9
    1984:	4699      	mov	r9, r3
    1986:	464b      	mov	r3, r9
    1988:	2b00      	cmp	r3, #0
    198a:	d100      	bne.n	198e <__aeabi_dsub+0xba>
    198c:	e137      	b.n	1bfe <__aeabi_dsub+0x32a>
    198e:	4648      	mov	r0, r9
    1990:	f000 fbdc 	bl	214c <__clzsi2>
    1994:	0001      	movs	r1, r0
    1996:	3908      	subs	r1, #8
    1998:	2320      	movs	r3, #32
    199a:	0022      	movs	r2, r4
    199c:	4648      	mov	r0, r9
    199e:	1a5b      	subs	r3, r3, r1
    19a0:	40da      	lsrs	r2, r3
    19a2:	4088      	lsls	r0, r1
    19a4:	408c      	lsls	r4, r1
    19a6:	4643      	mov	r3, r8
    19a8:	4310      	orrs	r0, r2
    19aa:	4588      	cmp	r8, r1
    19ac:	dd00      	ble.n	19b0 <__aeabi_dsub+0xdc>
    19ae:	e136      	b.n	1c1e <__aeabi_dsub+0x34a>
    19b0:	1ac9      	subs	r1, r1, r3
    19b2:	1c4b      	adds	r3, r1, #1
    19b4:	2b1f      	cmp	r3, #31
    19b6:	dd00      	ble.n	19ba <__aeabi_dsub+0xe6>
    19b8:	e0ea      	b.n	1b90 <__aeabi_dsub+0x2bc>
    19ba:	2220      	movs	r2, #32
    19bc:	0026      	movs	r6, r4
    19be:	1ad2      	subs	r2, r2, r3
    19c0:	0001      	movs	r1, r0
    19c2:	4094      	lsls	r4, r2
    19c4:	40de      	lsrs	r6, r3
    19c6:	40d8      	lsrs	r0, r3
    19c8:	2300      	movs	r3, #0
    19ca:	4091      	lsls	r1, r2
    19cc:	1e62      	subs	r2, r4, #1
    19ce:	4194      	sbcs	r4, r2
    19d0:	4681      	mov	r9, r0
    19d2:	4698      	mov	r8, r3
    19d4:	4331      	orrs	r1, r6
    19d6:	430c      	orrs	r4, r1
    19d8:	0763      	lsls	r3, r4, #29
    19da:	d009      	beq.n	19f0 <__aeabi_dsub+0x11c>
    19dc:	230f      	movs	r3, #15
    19de:	4023      	ands	r3, r4
    19e0:	2b04      	cmp	r3, #4
    19e2:	d005      	beq.n	19f0 <__aeabi_dsub+0x11c>
    19e4:	1d23      	adds	r3, r4, #4
    19e6:	42a3      	cmp	r3, r4
    19e8:	41a4      	sbcs	r4, r4
    19ea:	4264      	negs	r4, r4
    19ec:	44a1      	add	r9, r4
    19ee:	001c      	movs	r4, r3
    19f0:	464b      	mov	r3, r9
    19f2:	021b      	lsls	r3, r3, #8
    19f4:	d400      	bmi.n	19f8 <__aeabi_dsub+0x124>
    19f6:	e0de      	b.n	1bb6 <__aeabi_dsub+0x2e2>
    19f8:	4641      	mov	r1, r8
    19fa:	4b8c      	ldr	r3, [pc, #560]	; (1c2c <__aeabi_dsub+0x358>)
    19fc:	3101      	adds	r1, #1
    19fe:	4299      	cmp	r1, r3
    1a00:	d100      	bne.n	1a04 <__aeabi_dsub+0x130>
    1a02:	e0e7      	b.n	1bd4 <__aeabi_dsub+0x300>
    1a04:	464b      	mov	r3, r9
    1a06:	488a      	ldr	r0, [pc, #552]	; (1c30 <__aeabi_dsub+0x35c>)
    1a08:	08e4      	lsrs	r4, r4, #3
    1a0a:	4003      	ands	r3, r0
    1a0c:	0018      	movs	r0, r3
    1a0e:	0549      	lsls	r1, r1, #21
    1a10:	075b      	lsls	r3, r3, #29
    1a12:	0240      	lsls	r0, r0, #9
    1a14:	4323      	orrs	r3, r4
    1a16:	0d4a      	lsrs	r2, r1, #21
    1a18:	0b04      	lsrs	r4, r0, #12
    1a1a:	0512      	lsls	r2, r2, #20
    1a1c:	07ed      	lsls	r5, r5, #31
    1a1e:	4322      	orrs	r2, r4
    1a20:	432a      	orrs	r2, r5
    1a22:	0018      	movs	r0, r3
    1a24:	0011      	movs	r1, r2
    1a26:	bcf0      	pop	{r4, r5, r6, r7}
    1a28:	46bb      	mov	fp, r7
    1a2a:	46b2      	mov	sl, r6
    1a2c:	46a9      	mov	r9, r5
    1a2e:	46a0      	mov	r8, r4
    1a30:	bdf8      	pop	{r3, r4, r5, r6, r7, pc}
    1a32:	4642      	mov	r2, r8
    1a34:	1a12      	subs	r2, r2, r0
    1a36:	2a00      	cmp	r2, #0
    1a38:	dd52      	ble.n	1ae0 <__aeabi_dsub+0x20c>
    1a3a:	2800      	cmp	r0, #0
    1a3c:	d100      	bne.n	1a40 <__aeabi_dsub+0x16c>
    1a3e:	e09c      	b.n	1b7a <__aeabi_dsub+0x2a6>
    1a40:	45a0      	cmp	r8, r4
    1a42:	d100      	bne.n	1a46 <__aeabi_dsub+0x172>
    1a44:	e0ca      	b.n	1bdc <__aeabi_dsub+0x308>
    1a46:	2080      	movs	r0, #128	; 0x80
    1a48:	0400      	lsls	r0, r0, #16
    1a4a:	4301      	orrs	r1, r0
    1a4c:	2a38      	cmp	r2, #56	; 0x38
    1a4e:	dd00      	ble.n	1a52 <__aeabi_dsub+0x17e>
    1a50:	e149      	b.n	1ce6 <__aeabi_dsub+0x412>
    1a52:	2a1f      	cmp	r2, #31
    1a54:	dc00      	bgt.n	1a58 <__aeabi_dsub+0x184>
    1a56:	e197      	b.n	1d88 <__aeabi_dsub+0x4b4>
    1a58:	0010      	movs	r0, r2
    1a5a:	000e      	movs	r6, r1
    1a5c:	3820      	subs	r0, #32
    1a5e:	40c6      	lsrs	r6, r0
    1a60:	2a20      	cmp	r2, #32
    1a62:	d004      	beq.n	1a6e <__aeabi_dsub+0x19a>
    1a64:	2040      	movs	r0, #64	; 0x40
    1a66:	1a82      	subs	r2, r0, r2
    1a68:	4091      	lsls	r1, r2
    1a6a:	430f      	orrs	r7, r1
    1a6c:	46b9      	mov	r9, r7
    1a6e:	464c      	mov	r4, r9
    1a70:	1e62      	subs	r2, r4, #1
    1a72:	4194      	sbcs	r4, r2
    1a74:	4334      	orrs	r4, r6
    1a76:	e13a      	b.n	1cee <__aeabi_dsub+0x41a>
    1a78:	000a      	movs	r2, r1
    1a7a:	433a      	orrs	r2, r7
    1a7c:	d028      	beq.n	1ad0 <__aeabi_dsub+0x1fc>
    1a7e:	46b3      	mov	fp, r6
    1a80:	42b5      	cmp	r5, r6
    1a82:	d02b      	beq.n	1adc <__aeabi_dsub+0x208>
    1a84:	4a6b      	ldr	r2, [pc, #428]	; (1c34 <__aeabi_dsub+0x360>)
    1a86:	4442      	add	r2, r8
    1a88:	2a00      	cmp	r2, #0
    1a8a:	d05d      	beq.n	1b48 <__aeabi_dsub+0x274>
    1a8c:	4642      	mov	r2, r8
    1a8e:	4644      	mov	r4, r8
    1a90:	1a82      	subs	r2, r0, r2
    1a92:	2c00      	cmp	r4, #0
    1a94:	d000      	beq.n	1a98 <__aeabi_dsub+0x1c4>
    1a96:	e0f5      	b.n	1c84 <__aeabi_dsub+0x3b0>
    1a98:	4665      	mov	r5, ip
    1a9a:	431d      	orrs	r5, r3
    1a9c:	d100      	bne.n	1aa0 <__aeabi_dsub+0x1cc>
    1a9e:	e19c      	b.n	1dda <__aeabi_dsub+0x506>
    1aa0:	1e55      	subs	r5, r2, #1
    1aa2:	2a01      	cmp	r2, #1
    1aa4:	d100      	bne.n	1aa8 <__aeabi_dsub+0x1d4>
    1aa6:	e1fb      	b.n	1ea0 <__aeabi_dsub+0x5cc>
    1aa8:	4c60      	ldr	r4, [pc, #384]	; (1c2c <__aeabi_dsub+0x358>)
    1aaa:	42a2      	cmp	r2, r4
    1aac:	d100      	bne.n	1ab0 <__aeabi_dsub+0x1dc>
    1aae:	e1bd      	b.n	1e2c <__aeabi_dsub+0x558>
    1ab0:	002a      	movs	r2, r5
    1ab2:	e0f0      	b.n	1c96 <__aeabi_dsub+0x3c2>
    1ab4:	0008      	movs	r0, r1
    1ab6:	4338      	orrs	r0, r7
    1ab8:	d100      	bne.n	1abc <__aeabi_dsub+0x1e8>
    1aba:	e0c3      	b.n	1c44 <__aeabi_dsub+0x370>
    1abc:	1e50      	subs	r0, r2, #1
    1abe:	2a01      	cmp	r2, #1
    1ac0:	d100      	bne.n	1ac4 <__aeabi_dsub+0x1f0>
    1ac2:	e1a8      	b.n	1e16 <__aeabi_dsub+0x542>
    1ac4:	4c59      	ldr	r4, [pc, #356]	; (1c2c <__aeabi_dsub+0x358>)
    1ac6:	42a2      	cmp	r2, r4
    1ac8:	d100      	bne.n	1acc <__aeabi_dsub+0x1f8>
    1aca:	e087      	b.n	1bdc <__aeabi_dsub+0x308>
    1acc:	0002      	movs	r2, r0
    1ace:	e736      	b.n	193e <__aeabi_dsub+0x6a>
    1ad0:	2201      	movs	r2, #1
    1ad2:	4056      	eors	r6, r2
    1ad4:	46b3      	mov	fp, r6
    1ad6:	42b5      	cmp	r5, r6
    1ad8:	d000      	beq.n	1adc <__aeabi_dsub+0x208>
    1ada:	e721      	b.n	1920 <__aeabi_dsub+0x4c>
    1adc:	4a55      	ldr	r2, [pc, #340]	; (1c34 <__aeabi_dsub+0x360>)
    1ade:	4442      	add	r2, r8
    1ae0:	2a00      	cmp	r2, #0
    1ae2:	d100      	bne.n	1ae6 <__aeabi_dsub+0x212>
    1ae4:	e0b5      	b.n	1c52 <__aeabi_dsub+0x37e>
    1ae6:	4642      	mov	r2, r8
    1ae8:	4644      	mov	r4, r8
    1aea:	1a82      	subs	r2, r0, r2
    1aec:	2c00      	cmp	r4, #0
    1aee:	d100      	bne.n	1af2 <__aeabi_dsub+0x21e>
    1af0:	e138      	b.n	1d64 <__aeabi_dsub+0x490>
    1af2:	4e4e      	ldr	r6, [pc, #312]	; (1c2c <__aeabi_dsub+0x358>)
    1af4:	42b0      	cmp	r0, r6
    1af6:	d100      	bne.n	1afa <__aeabi_dsub+0x226>
    1af8:	e1de      	b.n	1eb8 <__aeabi_dsub+0x5e4>
    1afa:	2680      	movs	r6, #128	; 0x80
    1afc:	4664      	mov	r4, ip
    1afe:	0436      	lsls	r6, r6, #16
    1b00:	4334      	orrs	r4, r6
    1b02:	46a4      	mov	ip, r4
    1b04:	2a38      	cmp	r2, #56	; 0x38
    1b06:	dd00      	ble.n	1b0a <__aeabi_dsub+0x236>
    1b08:	e196      	b.n	1e38 <__aeabi_dsub+0x564>
    1b0a:	2a1f      	cmp	r2, #31
    1b0c:	dd00      	ble.n	1b10 <__aeabi_dsub+0x23c>
    1b0e:	e224      	b.n	1f5a <__aeabi_dsub+0x686>
    1b10:	2620      	movs	r6, #32
    1b12:	1ab4      	subs	r4, r6, r2
    1b14:	46a2      	mov	sl, r4
    1b16:	4664      	mov	r4, ip
    1b18:	4656      	mov	r6, sl
    1b1a:	40b4      	lsls	r4, r6
    1b1c:	46a1      	mov	r9, r4
    1b1e:	001c      	movs	r4, r3
    1b20:	464e      	mov	r6, r9
    1b22:	40d4      	lsrs	r4, r2
    1b24:	4326      	orrs	r6, r4
    1b26:	0034      	movs	r4, r6
    1b28:	4656      	mov	r6, sl
    1b2a:	40b3      	lsls	r3, r6
    1b2c:	1e5e      	subs	r6, r3, #1
    1b2e:	41b3      	sbcs	r3, r6
    1b30:	431c      	orrs	r4, r3
    1b32:	4663      	mov	r3, ip
    1b34:	40d3      	lsrs	r3, r2
    1b36:	18c9      	adds	r1, r1, r3
    1b38:	19e4      	adds	r4, r4, r7
    1b3a:	42bc      	cmp	r4, r7
    1b3c:	41bf      	sbcs	r7, r7
    1b3e:	427f      	negs	r7, r7
    1b40:	46b9      	mov	r9, r7
    1b42:	4680      	mov	r8, r0
    1b44:	4489      	add	r9, r1
    1b46:	e0d8      	b.n	1cfa <__aeabi_dsub+0x426>
    1b48:	4640      	mov	r0, r8
    1b4a:	4c3b      	ldr	r4, [pc, #236]	; (1c38 <__aeabi_dsub+0x364>)
    1b4c:	3001      	adds	r0, #1
    1b4e:	4220      	tst	r0, r4
    1b50:	d000      	beq.n	1b54 <__aeabi_dsub+0x280>
    1b52:	e0b4      	b.n	1cbe <__aeabi_dsub+0x3ea>
    1b54:	4640      	mov	r0, r8
    1b56:	2800      	cmp	r0, #0
    1b58:	d000      	beq.n	1b5c <__aeabi_dsub+0x288>
    1b5a:	e144      	b.n	1de6 <__aeabi_dsub+0x512>
    1b5c:	4660      	mov	r0, ip
    1b5e:	4318      	orrs	r0, r3
    1b60:	d100      	bne.n	1b64 <__aeabi_dsub+0x290>
    1b62:	e190      	b.n	1e86 <__aeabi_dsub+0x5b2>
    1b64:	0008      	movs	r0, r1
    1b66:	4338      	orrs	r0, r7
    1b68:	d000      	beq.n	1b6c <__aeabi_dsub+0x298>
    1b6a:	e1aa      	b.n	1ec2 <__aeabi_dsub+0x5ee>
    1b6c:	4661      	mov	r1, ip
    1b6e:	08db      	lsrs	r3, r3, #3
    1b70:	0749      	lsls	r1, r1, #29
    1b72:	430b      	orrs	r3, r1
    1b74:	4661      	mov	r1, ip
    1b76:	08cc      	lsrs	r4, r1, #3
    1b78:	e027      	b.n	1bca <__aeabi_dsub+0x2f6>
    1b7a:	0008      	movs	r0, r1
    1b7c:	4338      	orrs	r0, r7
    1b7e:	d061      	beq.n	1c44 <__aeabi_dsub+0x370>
    1b80:	1e50      	subs	r0, r2, #1
    1b82:	2a01      	cmp	r2, #1
    1b84:	d100      	bne.n	1b88 <__aeabi_dsub+0x2b4>
    1b86:	e139      	b.n	1dfc <__aeabi_dsub+0x528>
    1b88:	42a2      	cmp	r2, r4
    1b8a:	d027      	beq.n	1bdc <__aeabi_dsub+0x308>
    1b8c:	0002      	movs	r2, r0
    1b8e:	e75d      	b.n	1a4c <__aeabi_dsub+0x178>
    1b90:	0002      	movs	r2, r0
    1b92:	391f      	subs	r1, #31
    1b94:	40ca      	lsrs	r2, r1
    1b96:	0011      	movs	r1, r2
    1b98:	2b20      	cmp	r3, #32
    1b9a:	d003      	beq.n	1ba4 <__aeabi_dsub+0x2d0>
    1b9c:	2240      	movs	r2, #64	; 0x40
    1b9e:	1ad3      	subs	r3, r2, r3
    1ba0:	4098      	lsls	r0, r3
    1ba2:	4304      	orrs	r4, r0
    1ba4:	1e63      	subs	r3, r4, #1
    1ba6:	419c      	sbcs	r4, r3
    1ba8:	2300      	movs	r3, #0
    1baa:	4699      	mov	r9, r3
    1bac:	4698      	mov	r8, r3
    1bae:	430c      	orrs	r4, r1
    1bb0:	0763      	lsls	r3, r4, #29
    1bb2:	d000      	beq.n	1bb6 <__aeabi_dsub+0x2e2>
    1bb4:	e712      	b.n	19dc <__aeabi_dsub+0x108>
    1bb6:	464b      	mov	r3, r9
    1bb8:	464a      	mov	r2, r9
    1bba:	08e4      	lsrs	r4, r4, #3
    1bbc:	075b      	lsls	r3, r3, #29
    1bbe:	4323      	orrs	r3, r4
    1bc0:	08d4      	lsrs	r4, r2, #3
    1bc2:	4642      	mov	r2, r8
    1bc4:	4919      	ldr	r1, [pc, #100]	; (1c2c <__aeabi_dsub+0x358>)
    1bc6:	428a      	cmp	r2, r1
    1bc8:	d00e      	beq.n	1be8 <__aeabi_dsub+0x314>
    1bca:	0324      	lsls	r4, r4, #12
    1bcc:	0552      	lsls	r2, r2, #21
    1bce:	0b24      	lsrs	r4, r4, #12
    1bd0:	0d52      	lsrs	r2, r2, #21
    1bd2:	e722      	b.n	1a1a <__aeabi_dsub+0x146>
    1bd4:	000a      	movs	r2, r1
    1bd6:	2400      	movs	r4, #0
    1bd8:	2300      	movs	r3, #0
    1bda:	e71e      	b.n	1a1a <__aeabi_dsub+0x146>
    1bdc:	08db      	lsrs	r3, r3, #3
    1bde:	4662      	mov	r2, ip
    1be0:	0752      	lsls	r2, r2, #29
    1be2:	4313      	orrs	r3, r2
    1be4:	4662      	mov	r2, ip
    1be6:	08d4      	lsrs	r4, r2, #3
    1be8:	001a      	movs	r2, r3
    1bea:	4322      	orrs	r2, r4
    1bec:	d100      	bne.n	1bf0 <__aeabi_dsub+0x31c>
    1bee:	e1fc      	b.n	1fea <__aeabi_dsub+0x716>
    1bf0:	2280      	movs	r2, #128	; 0x80
    1bf2:	0312      	lsls	r2, r2, #12
    1bf4:	4314      	orrs	r4, r2
    1bf6:	0324      	lsls	r4, r4, #12
    1bf8:	4a0c      	ldr	r2, [pc, #48]	; (1c2c <__aeabi_dsub+0x358>)
    1bfa:	0b24      	lsrs	r4, r4, #12
    1bfc:	e70d      	b.n	1a1a <__aeabi_dsub+0x146>
    1bfe:	0020      	movs	r0, r4
    1c00:	f000 faa4 	bl	214c <__clzsi2>
    1c04:	0001      	movs	r1, r0
    1c06:	3118      	adds	r1, #24
    1c08:	291f      	cmp	r1, #31
    1c0a:	dc00      	bgt.n	1c0e <__aeabi_dsub+0x33a>
    1c0c:	e6c4      	b.n	1998 <__aeabi_dsub+0xc4>
    1c0e:	3808      	subs	r0, #8
    1c10:	4084      	lsls	r4, r0
    1c12:	4643      	mov	r3, r8
    1c14:	0020      	movs	r0, r4
    1c16:	2400      	movs	r4, #0
    1c18:	4588      	cmp	r8, r1
    1c1a:	dc00      	bgt.n	1c1e <__aeabi_dsub+0x34a>
    1c1c:	e6c8      	b.n	19b0 <__aeabi_dsub+0xdc>
    1c1e:	4a04      	ldr	r2, [pc, #16]	; (1c30 <__aeabi_dsub+0x35c>)
    1c20:	1a5b      	subs	r3, r3, r1
    1c22:	4010      	ands	r0, r2
    1c24:	4698      	mov	r8, r3
    1c26:	4681      	mov	r9, r0
    1c28:	e6d6      	b.n	19d8 <__aeabi_dsub+0x104>
    1c2a:	46c0      	nop			; (mov r8, r8)
    1c2c:	000007ff 	.word	0x000007ff
    1c30:	ff7fffff 	.word	0xff7fffff
    1c34:	fffff801 	.word	0xfffff801
    1c38:	000007fe 	.word	0x000007fe
    1c3c:	430f      	orrs	r7, r1
    1c3e:	1e7a      	subs	r2, r7, #1
    1c40:	4197      	sbcs	r7, r2
    1c42:	e691      	b.n	1968 <__aeabi_dsub+0x94>
    1c44:	4661      	mov	r1, ip
    1c46:	08db      	lsrs	r3, r3, #3
    1c48:	0749      	lsls	r1, r1, #29
    1c4a:	430b      	orrs	r3, r1
    1c4c:	4661      	mov	r1, ip
    1c4e:	08cc      	lsrs	r4, r1, #3
    1c50:	e7b8      	b.n	1bc4 <__aeabi_dsub+0x2f0>
    1c52:	4640      	mov	r0, r8
    1c54:	4cd3      	ldr	r4, [pc, #844]	; (1fa4 <__aeabi_dsub+0x6d0>)
    1c56:	3001      	adds	r0, #1
    1c58:	4220      	tst	r0, r4
    1c5a:	d000      	beq.n	1c5e <__aeabi_dsub+0x38a>
    1c5c:	e0a2      	b.n	1da4 <__aeabi_dsub+0x4d0>
    1c5e:	4640      	mov	r0, r8
    1c60:	2800      	cmp	r0, #0
    1c62:	d000      	beq.n	1c66 <__aeabi_dsub+0x392>
    1c64:	e101      	b.n	1e6a <__aeabi_dsub+0x596>
    1c66:	4660      	mov	r0, ip
    1c68:	4318      	orrs	r0, r3
    1c6a:	d100      	bne.n	1c6e <__aeabi_dsub+0x39a>
    1c6c:	e15e      	b.n	1f2c <__aeabi_dsub+0x658>
    1c6e:	0008      	movs	r0, r1
    1c70:	4338      	orrs	r0, r7
    1c72:	d000      	beq.n	1c76 <__aeabi_dsub+0x3a2>
    1c74:	e15f      	b.n	1f36 <__aeabi_dsub+0x662>
    1c76:	4661      	mov	r1, ip
    1c78:	08db      	lsrs	r3, r3, #3
    1c7a:	0749      	lsls	r1, r1, #29
    1c7c:	430b      	orrs	r3, r1
    1c7e:	4661      	mov	r1, ip
    1c80:	08cc      	lsrs	r4, r1, #3
    1c82:	e7a2      	b.n	1bca <__aeabi_dsub+0x2f6>
    1c84:	4dc8      	ldr	r5, [pc, #800]	; (1fa8 <__aeabi_dsub+0x6d4>)
    1c86:	42a8      	cmp	r0, r5
    1c88:	d100      	bne.n	1c8c <__aeabi_dsub+0x3b8>
    1c8a:	e0cf      	b.n	1e2c <__aeabi_dsub+0x558>
    1c8c:	2580      	movs	r5, #128	; 0x80
    1c8e:	4664      	mov	r4, ip
    1c90:	042d      	lsls	r5, r5, #16
    1c92:	432c      	orrs	r4, r5
    1c94:	46a4      	mov	ip, r4
    1c96:	2a38      	cmp	r2, #56	; 0x38
    1c98:	dc56      	bgt.n	1d48 <__aeabi_dsub+0x474>
    1c9a:	2a1f      	cmp	r2, #31
    1c9c:	dd00      	ble.n	1ca0 <__aeabi_dsub+0x3cc>
    1c9e:	e0d1      	b.n	1e44 <__aeabi_dsub+0x570>
    1ca0:	2520      	movs	r5, #32
    1ca2:	001e      	movs	r6, r3
    1ca4:	1aad      	subs	r5, r5, r2
    1ca6:	4664      	mov	r4, ip
    1ca8:	40ab      	lsls	r3, r5
    1caa:	40ac      	lsls	r4, r5
    1cac:	40d6      	lsrs	r6, r2
    1cae:	1e5d      	subs	r5, r3, #1
    1cb0:	41ab      	sbcs	r3, r5
    1cb2:	4334      	orrs	r4, r6
    1cb4:	4323      	orrs	r3, r4
    1cb6:	4664      	mov	r4, ip
    1cb8:	40d4      	lsrs	r4, r2
    1cba:	1b09      	subs	r1, r1, r4
    1cbc:	e049      	b.n	1d52 <__aeabi_dsub+0x47e>
    1cbe:	4660      	mov	r0, ip
    1cc0:	1bdc      	subs	r4, r3, r7
    1cc2:	1a46      	subs	r6, r0, r1
    1cc4:	42a3      	cmp	r3, r4
    1cc6:	4180      	sbcs	r0, r0
    1cc8:	4240      	negs	r0, r0
    1cca:	4681      	mov	r9, r0
    1ccc:	0030      	movs	r0, r6
    1cce:	464e      	mov	r6, r9
    1cd0:	1b80      	subs	r0, r0, r6
    1cd2:	4681      	mov	r9, r0
    1cd4:	0200      	lsls	r0, r0, #8
    1cd6:	d476      	bmi.n	1dc6 <__aeabi_dsub+0x4f2>
    1cd8:	464b      	mov	r3, r9
    1cda:	4323      	orrs	r3, r4
    1cdc:	d000      	beq.n	1ce0 <__aeabi_dsub+0x40c>
    1cde:	e652      	b.n	1986 <__aeabi_dsub+0xb2>
    1ce0:	2400      	movs	r4, #0
    1ce2:	2500      	movs	r5, #0
    1ce4:	e771      	b.n	1bca <__aeabi_dsub+0x2f6>
    1ce6:	4339      	orrs	r1, r7
    1ce8:	000c      	movs	r4, r1
    1cea:	1e62      	subs	r2, r4, #1
    1cec:	4194      	sbcs	r4, r2
    1cee:	18e4      	adds	r4, r4, r3
    1cf0:	429c      	cmp	r4, r3
    1cf2:	419b      	sbcs	r3, r3
    1cf4:	425b      	negs	r3, r3
    1cf6:	4463      	add	r3, ip
    1cf8:	4699      	mov	r9, r3
    1cfa:	464b      	mov	r3, r9
    1cfc:	021b      	lsls	r3, r3, #8
    1cfe:	d400      	bmi.n	1d02 <__aeabi_dsub+0x42e>
    1d00:	e756      	b.n	1bb0 <__aeabi_dsub+0x2dc>
    1d02:	2301      	movs	r3, #1
    1d04:	469c      	mov	ip, r3
    1d06:	4ba8      	ldr	r3, [pc, #672]	; (1fa8 <__aeabi_dsub+0x6d4>)
    1d08:	44e0      	add	r8, ip
    1d0a:	4598      	cmp	r8, r3
    1d0c:	d038      	beq.n	1d80 <__aeabi_dsub+0x4ac>
    1d0e:	464b      	mov	r3, r9
    1d10:	48a6      	ldr	r0, [pc, #664]	; (1fac <__aeabi_dsub+0x6d8>)
    1d12:	2201      	movs	r2, #1
    1d14:	4003      	ands	r3, r0
    1d16:	0018      	movs	r0, r3
    1d18:	0863      	lsrs	r3, r4, #1
    1d1a:	4014      	ands	r4, r2
    1d1c:	431c      	orrs	r4, r3
    1d1e:	07c3      	lsls	r3, r0, #31
    1d20:	431c      	orrs	r4, r3
    1d22:	0843      	lsrs	r3, r0, #1
    1d24:	4699      	mov	r9, r3
    1d26:	e657      	b.n	19d8 <__aeabi_dsub+0x104>
    1d28:	0010      	movs	r0, r2
    1d2a:	000e      	movs	r6, r1
    1d2c:	3820      	subs	r0, #32
    1d2e:	40c6      	lsrs	r6, r0
    1d30:	2a20      	cmp	r2, #32
    1d32:	d004      	beq.n	1d3e <__aeabi_dsub+0x46a>
    1d34:	2040      	movs	r0, #64	; 0x40
    1d36:	1a82      	subs	r2, r0, r2
    1d38:	4091      	lsls	r1, r2
    1d3a:	430f      	orrs	r7, r1
    1d3c:	46b9      	mov	r9, r7
    1d3e:	464f      	mov	r7, r9
    1d40:	1e7a      	subs	r2, r7, #1
    1d42:	4197      	sbcs	r7, r2
    1d44:	4337      	orrs	r7, r6
    1d46:	e60f      	b.n	1968 <__aeabi_dsub+0x94>
    1d48:	4662      	mov	r2, ip
    1d4a:	431a      	orrs	r2, r3
    1d4c:	0013      	movs	r3, r2
    1d4e:	1e5a      	subs	r2, r3, #1
    1d50:	4193      	sbcs	r3, r2
    1d52:	1afc      	subs	r4, r7, r3
    1d54:	42a7      	cmp	r7, r4
    1d56:	41bf      	sbcs	r7, r7
    1d58:	427f      	negs	r7, r7
    1d5a:	1bcb      	subs	r3, r1, r7
    1d5c:	4699      	mov	r9, r3
    1d5e:	465d      	mov	r5, fp
    1d60:	4680      	mov	r8, r0
    1d62:	e608      	b.n	1976 <__aeabi_dsub+0xa2>
    1d64:	4666      	mov	r6, ip
    1d66:	431e      	orrs	r6, r3
    1d68:	d100      	bne.n	1d6c <__aeabi_dsub+0x498>
    1d6a:	e0be      	b.n	1eea <__aeabi_dsub+0x616>
    1d6c:	1e56      	subs	r6, r2, #1
    1d6e:	2a01      	cmp	r2, #1
    1d70:	d100      	bne.n	1d74 <__aeabi_dsub+0x4a0>
    1d72:	e109      	b.n	1f88 <__aeabi_dsub+0x6b4>
    1d74:	4c8c      	ldr	r4, [pc, #560]	; (1fa8 <__aeabi_dsub+0x6d4>)
    1d76:	42a2      	cmp	r2, r4
    1d78:	d100      	bne.n	1d7c <__aeabi_dsub+0x4a8>
    1d7a:	e119      	b.n	1fb0 <__aeabi_dsub+0x6dc>
    1d7c:	0032      	movs	r2, r6
    1d7e:	e6c1      	b.n	1b04 <__aeabi_dsub+0x230>
    1d80:	4642      	mov	r2, r8
    1d82:	2400      	movs	r4, #0
    1d84:	2300      	movs	r3, #0
    1d86:	e648      	b.n	1a1a <__aeabi_dsub+0x146>
    1d88:	2020      	movs	r0, #32
    1d8a:	000c      	movs	r4, r1
    1d8c:	1a80      	subs	r0, r0, r2
    1d8e:	003e      	movs	r6, r7
    1d90:	4087      	lsls	r7, r0
    1d92:	4084      	lsls	r4, r0
    1d94:	40d6      	lsrs	r6, r2
    1d96:	1e78      	subs	r0, r7, #1
    1d98:	4187      	sbcs	r7, r0
    1d9a:	40d1      	lsrs	r1, r2
    1d9c:	4334      	orrs	r4, r6
    1d9e:	433c      	orrs	r4, r7
    1da0:	448c      	add	ip, r1
    1da2:	e7a4      	b.n	1cee <__aeabi_dsub+0x41a>
    1da4:	4a80      	ldr	r2, [pc, #512]	; (1fa8 <__aeabi_dsub+0x6d4>)
    1da6:	4290      	cmp	r0, r2
    1da8:	d100      	bne.n	1dac <__aeabi_dsub+0x4d8>
    1daa:	e0e9      	b.n	1f80 <__aeabi_dsub+0x6ac>
    1dac:	19df      	adds	r7, r3, r7
    1dae:	429f      	cmp	r7, r3
    1db0:	419b      	sbcs	r3, r3
    1db2:	4461      	add	r1, ip
    1db4:	425b      	negs	r3, r3
    1db6:	18c9      	adds	r1, r1, r3
    1db8:	07cc      	lsls	r4, r1, #31
    1dba:	087f      	lsrs	r7, r7, #1
    1dbc:	084b      	lsrs	r3, r1, #1
    1dbe:	4699      	mov	r9, r3
    1dc0:	4680      	mov	r8, r0
    1dc2:	433c      	orrs	r4, r7
    1dc4:	e6f4      	b.n	1bb0 <__aeabi_dsub+0x2dc>
    1dc6:	1afc      	subs	r4, r7, r3
    1dc8:	42a7      	cmp	r7, r4
    1dca:	41bf      	sbcs	r7, r7
    1dcc:	4663      	mov	r3, ip
    1dce:	427f      	negs	r7, r7
    1dd0:	1ac9      	subs	r1, r1, r3
    1dd2:	1bcb      	subs	r3, r1, r7
    1dd4:	4699      	mov	r9, r3
    1dd6:	465d      	mov	r5, fp
    1dd8:	e5d5      	b.n	1986 <__aeabi_dsub+0xb2>
    1dda:	08ff      	lsrs	r7, r7, #3
    1ddc:	074b      	lsls	r3, r1, #29
    1dde:	465d      	mov	r5, fp
    1de0:	433b      	orrs	r3, r7
    1de2:	08cc      	lsrs	r4, r1, #3
    1de4:	e6ee      	b.n	1bc4 <__aeabi_dsub+0x2f0>
    1de6:	4662      	mov	r2, ip
    1de8:	431a      	orrs	r2, r3
    1dea:	d000      	beq.n	1dee <__aeabi_dsub+0x51a>
    1dec:	e082      	b.n	1ef4 <__aeabi_dsub+0x620>
    1dee:	000b      	movs	r3, r1
    1df0:	433b      	orrs	r3, r7
    1df2:	d11b      	bne.n	1e2c <__aeabi_dsub+0x558>
    1df4:	2480      	movs	r4, #128	; 0x80
    1df6:	2500      	movs	r5, #0
    1df8:	0324      	lsls	r4, r4, #12
    1dfa:	e6f9      	b.n	1bf0 <__aeabi_dsub+0x31c>
    1dfc:	19dc      	adds	r4, r3, r7
    1dfe:	429c      	cmp	r4, r3
    1e00:	419b      	sbcs	r3, r3
    1e02:	4461      	add	r1, ip
    1e04:	4689      	mov	r9, r1
    1e06:	425b      	negs	r3, r3
    1e08:	4499      	add	r9, r3
    1e0a:	464b      	mov	r3, r9
    1e0c:	021b      	lsls	r3, r3, #8
    1e0e:	d444      	bmi.n	1e9a <__aeabi_dsub+0x5c6>
    1e10:	2301      	movs	r3, #1
    1e12:	4698      	mov	r8, r3
    1e14:	e6cc      	b.n	1bb0 <__aeabi_dsub+0x2dc>
    1e16:	1bdc      	subs	r4, r3, r7
    1e18:	4662      	mov	r2, ip
    1e1a:	42a3      	cmp	r3, r4
    1e1c:	419b      	sbcs	r3, r3
    1e1e:	1a51      	subs	r1, r2, r1
    1e20:	425b      	negs	r3, r3
    1e22:	1acb      	subs	r3, r1, r3
    1e24:	4699      	mov	r9, r3
    1e26:	2301      	movs	r3, #1
    1e28:	4698      	mov	r8, r3
    1e2a:	e5a4      	b.n	1976 <__aeabi_dsub+0xa2>
    1e2c:	08ff      	lsrs	r7, r7, #3
    1e2e:	074b      	lsls	r3, r1, #29
    1e30:	465d      	mov	r5, fp
    1e32:	433b      	orrs	r3, r7
    1e34:	08cc      	lsrs	r4, r1, #3
    1e36:	e6d7      	b.n	1be8 <__aeabi_dsub+0x314>
    1e38:	4662      	mov	r2, ip
    1e3a:	431a      	orrs	r2, r3
    1e3c:	0014      	movs	r4, r2
    1e3e:	1e63      	subs	r3, r4, #1
    1e40:	419c      	sbcs	r4, r3
    1e42:	e679      	b.n	1b38 <__aeabi_dsub+0x264>
    1e44:	0015      	movs	r5, r2
    1e46:	4664      	mov	r4, ip
    1e48:	3d20      	subs	r5, #32
    1e4a:	40ec      	lsrs	r4, r5
    1e4c:	46a0      	mov	r8, r4
    1e4e:	2a20      	cmp	r2, #32
    1e50:	d005      	beq.n	1e5e <__aeabi_dsub+0x58a>
    1e52:	2540      	movs	r5, #64	; 0x40
    1e54:	4664      	mov	r4, ip
    1e56:	1aaa      	subs	r2, r5, r2
    1e58:	4094      	lsls	r4, r2
    1e5a:	4323      	orrs	r3, r4
    1e5c:	469a      	mov	sl, r3
    1e5e:	4654      	mov	r4, sl
    1e60:	1e63      	subs	r3, r4, #1
    1e62:	419c      	sbcs	r4, r3
    1e64:	4643      	mov	r3, r8
    1e66:	4323      	orrs	r3, r4
    1e68:	e773      	b.n	1d52 <__aeabi_dsub+0x47e>
    1e6a:	4662      	mov	r2, ip
    1e6c:	431a      	orrs	r2, r3
    1e6e:	d023      	beq.n	1eb8 <__aeabi_dsub+0x5e4>
    1e70:	000a      	movs	r2, r1
    1e72:	433a      	orrs	r2, r7
    1e74:	d000      	beq.n	1e78 <__aeabi_dsub+0x5a4>
    1e76:	e0a0      	b.n	1fba <__aeabi_dsub+0x6e6>
    1e78:	4662      	mov	r2, ip
    1e7a:	08db      	lsrs	r3, r3, #3
    1e7c:	0752      	lsls	r2, r2, #29
    1e7e:	4313      	orrs	r3, r2
    1e80:	4662      	mov	r2, ip
    1e82:	08d4      	lsrs	r4, r2, #3
    1e84:	e6b0      	b.n	1be8 <__aeabi_dsub+0x314>
    1e86:	000b      	movs	r3, r1
    1e88:	433b      	orrs	r3, r7
    1e8a:	d100      	bne.n	1e8e <__aeabi_dsub+0x5ba>
    1e8c:	e728      	b.n	1ce0 <__aeabi_dsub+0x40c>
    1e8e:	08ff      	lsrs	r7, r7, #3
    1e90:	074b      	lsls	r3, r1, #29
    1e92:	465d      	mov	r5, fp
    1e94:	433b      	orrs	r3, r7
    1e96:	08cc      	lsrs	r4, r1, #3
    1e98:	e697      	b.n	1bca <__aeabi_dsub+0x2f6>
    1e9a:	2302      	movs	r3, #2
    1e9c:	4698      	mov	r8, r3
    1e9e:	e736      	b.n	1d0e <__aeabi_dsub+0x43a>
    1ea0:	1afc      	subs	r4, r7, r3
    1ea2:	42a7      	cmp	r7, r4
    1ea4:	41bf      	sbcs	r7, r7
    1ea6:	4663      	mov	r3, ip
    1ea8:	427f      	negs	r7, r7
    1eaa:	1ac9      	subs	r1, r1, r3
    1eac:	1bcb      	subs	r3, r1, r7
    1eae:	4699      	mov	r9, r3
    1eb0:	2301      	movs	r3, #1
    1eb2:	465d      	mov	r5, fp
    1eb4:	4698      	mov	r8, r3
    1eb6:	e55e      	b.n	1976 <__aeabi_dsub+0xa2>
    1eb8:	074b      	lsls	r3, r1, #29
    1eba:	08ff      	lsrs	r7, r7, #3
    1ebc:	433b      	orrs	r3, r7
    1ebe:	08cc      	lsrs	r4, r1, #3
    1ec0:	e692      	b.n	1be8 <__aeabi_dsub+0x314>
    1ec2:	1bdc      	subs	r4, r3, r7
    1ec4:	4660      	mov	r0, ip
    1ec6:	42a3      	cmp	r3, r4
    1ec8:	41b6      	sbcs	r6, r6
    1eca:	1a40      	subs	r0, r0, r1
    1ecc:	4276      	negs	r6, r6
    1ece:	1b80      	subs	r0, r0, r6
    1ed0:	4681      	mov	r9, r0
    1ed2:	0200      	lsls	r0, r0, #8
    1ed4:	d560      	bpl.n	1f98 <__aeabi_dsub+0x6c4>
    1ed6:	1afc      	subs	r4, r7, r3
    1ed8:	42a7      	cmp	r7, r4
    1eda:	41bf      	sbcs	r7, r7
    1edc:	4663      	mov	r3, ip
    1ede:	427f      	negs	r7, r7
    1ee0:	1ac9      	subs	r1, r1, r3
    1ee2:	1bcb      	subs	r3, r1, r7
    1ee4:	4699      	mov	r9, r3
    1ee6:	465d      	mov	r5, fp
    1ee8:	e576      	b.n	19d8 <__aeabi_dsub+0x104>
    1eea:	08ff      	lsrs	r7, r7, #3
    1eec:	074b      	lsls	r3, r1, #29
    1eee:	433b      	orrs	r3, r7
    1ef0:	08cc      	lsrs	r4, r1, #3
    1ef2:	e667      	b.n	1bc4 <__aeabi_dsub+0x2f0>
    1ef4:	000a      	movs	r2, r1
    1ef6:	08db      	lsrs	r3, r3, #3
    1ef8:	433a      	orrs	r2, r7
    1efa:	d100      	bne.n	1efe <__aeabi_dsub+0x62a>
    1efc:	e66f      	b.n	1bde <__aeabi_dsub+0x30a>
    1efe:	4662      	mov	r2, ip
    1f00:	0752      	lsls	r2, r2, #29
    1f02:	4313      	orrs	r3, r2
    1f04:	4662      	mov	r2, ip
    1f06:	08d4      	lsrs	r4, r2, #3
    1f08:	2280      	movs	r2, #128	; 0x80
    1f0a:	0312      	lsls	r2, r2, #12
    1f0c:	4214      	tst	r4, r2
    1f0e:	d007      	beq.n	1f20 <__aeabi_dsub+0x64c>
    1f10:	08c8      	lsrs	r0, r1, #3
    1f12:	4210      	tst	r0, r2
    1f14:	d104      	bne.n	1f20 <__aeabi_dsub+0x64c>
    1f16:	465d      	mov	r5, fp
    1f18:	0004      	movs	r4, r0
    1f1a:	08fb      	lsrs	r3, r7, #3
    1f1c:	0749      	lsls	r1, r1, #29
    1f1e:	430b      	orrs	r3, r1
    1f20:	0f5a      	lsrs	r2, r3, #29
    1f22:	00db      	lsls	r3, r3, #3
    1f24:	08db      	lsrs	r3, r3, #3
    1f26:	0752      	lsls	r2, r2, #29
    1f28:	4313      	orrs	r3, r2
    1f2a:	e65d      	b.n	1be8 <__aeabi_dsub+0x314>
    1f2c:	074b      	lsls	r3, r1, #29
    1f2e:	08ff      	lsrs	r7, r7, #3
    1f30:	433b      	orrs	r3, r7
    1f32:	08cc      	lsrs	r4, r1, #3
    1f34:	e649      	b.n	1bca <__aeabi_dsub+0x2f6>
    1f36:	19dc      	adds	r4, r3, r7
    1f38:	429c      	cmp	r4, r3
    1f3a:	419b      	sbcs	r3, r3
    1f3c:	4461      	add	r1, ip
    1f3e:	4689      	mov	r9, r1
    1f40:	425b      	negs	r3, r3
    1f42:	4499      	add	r9, r3
    1f44:	464b      	mov	r3, r9
    1f46:	021b      	lsls	r3, r3, #8
    1f48:	d400      	bmi.n	1f4c <__aeabi_dsub+0x678>
    1f4a:	e631      	b.n	1bb0 <__aeabi_dsub+0x2dc>
    1f4c:	464a      	mov	r2, r9
    1f4e:	4b17      	ldr	r3, [pc, #92]	; (1fac <__aeabi_dsub+0x6d8>)
    1f50:	401a      	ands	r2, r3
    1f52:	2301      	movs	r3, #1
    1f54:	4691      	mov	r9, r2
    1f56:	4698      	mov	r8, r3
    1f58:	e62a      	b.n	1bb0 <__aeabi_dsub+0x2dc>
    1f5a:	0016      	movs	r6, r2
    1f5c:	4664      	mov	r4, ip
    1f5e:	3e20      	subs	r6, #32
    1f60:	40f4      	lsrs	r4, r6
    1f62:	46a0      	mov	r8, r4
    1f64:	2a20      	cmp	r2, #32
    1f66:	d005      	beq.n	1f74 <__aeabi_dsub+0x6a0>
    1f68:	2640      	movs	r6, #64	; 0x40
    1f6a:	4664      	mov	r4, ip
    1f6c:	1ab2      	subs	r2, r6, r2
    1f6e:	4094      	lsls	r4, r2
    1f70:	4323      	orrs	r3, r4
    1f72:	469a      	mov	sl, r3
    1f74:	4654      	mov	r4, sl
    1f76:	1e63      	subs	r3, r4, #1
    1f78:	419c      	sbcs	r4, r3
    1f7a:	4643      	mov	r3, r8
    1f7c:	431c      	orrs	r4, r3
    1f7e:	e5db      	b.n	1b38 <__aeabi_dsub+0x264>
    1f80:	0002      	movs	r2, r0
    1f82:	2400      	movs	r4, #0
    1f84:	2300      	movs	r3, #0
    1f86:	e548      	b.n	1a1a <__aeabi_dsub+0x146>
    1f88:	19dc      	adds	r4, r3, r7
    1f8a:	42bc      	cmp	r4, r7
    1f8c:	41bf      	sbcs	r7, r7
    1f8e:	4461      	add	r1, ip
    1f90:	4689      	mov	r9, r1
    1f92:	427f      	negs	r7, r7
    1f94:	44b9      	add	r9, r7
    1f96:	e738      	b.n	1e0a <__aeabi_dsub+0x536>
    1f98:	464b      	mov	r3, r9
    1f9a:	4323      	orrs	r3, r4
    1f9c:	d100      	bne.n	1fa0 <__aeabi_dsub+0x6cc>
    1f9e:	e69f      	b.n	1ce0 <__aeabi_dsub+0x40c>
    1fa0:	e606      	b.n	1bb0 <__aeabi_dsub+0x2dc>
    1fa2:	46c0      	nop			; (mov r8, r8)
    1fa4:	000007fe 	.word	0x000007fe
    1fa8:	000007ff 	.word	0x000007ff
    1fac:	ff7fffff 	.word	0xff7fffff
    1fb0:	08ff      	lsrs	r7, r7, #3
    1fb2:	074b      	lsls	r3, r1, #29
    1fb4:	433b      	orrs	r3, r7
    1fb6:	08cc      	lsrs	r4, r1, #3
    1fb8:	e616      	b.n	1be8 <__aeabi_dsub+0x314>
    1fba:	4662      	mov	r2, ip
    1fbc:	08db      	lsrs	r3, r3, #3
    1fbe:	0752      	lsls	r2, r2, #29
    1fc0:	4313      	orrs	r3, r2
    1fc2:	4662      	mov	r2, ip
    1fc4:	08d4      	lsrs	r4, r2, #3
    1fc6:	2280      	movs	r2, #128	; 0x80
    1fc8:	0312      	lsls	r2, r2, #12
    1fca:	4214      	tst	r4, r2
    1fcc:	d007      	beq.n	1fde <__aeabi_dsub+0x70a>
    1fce:	08c8      	lsrs	r0, r1, #3
    1fd0:	4210      	tst	r0, r2
    1fd2:	d104      	bne.n	1fde <__aeabi_dsub+0x70a>
    1fd4:	465d      	mov	r5, fp
    1fd6:	0004      	movs	r4, r0
    1fd8:	08fb      	lsrs	r3, r7, #3
    1fda:	0749      	lsls	r1, r1, #29
    1fdc:	430b      	orrs	r3, r1
    1fde:	0f5a      	lsrs	r2, r3, #29
    1fe0:	00db      	lsls	r3, r3, #3
    1fe2:	0752      	lsls	r2, r2, #29
    1fe4:	08db      	lsrs	r3, r3, #3
    1fe6:	4313      	orrs	r3, r2
    1fe8:	e5fe      	b.n	1be8 <__aeabi_dsub+0x314>
    1fea:	2300      	movs	r3, #0
    1fec:	4a01      	ldr	r2, [pc, #4]	; (1ff4 <__aeabi_dsub+0x720>)
    1fee:	001c      	movs	r4, r3
    1ff0:	e513      	b.n	1a1a <__aeabi_dsub+0x146>
    1ff2:	46c0      	nop			; (mov r8, r8)
    1ff4:	000007ff 	.word	0x000007ff

00001ff8 <__aeabi_dcmpun>:
    1ff8:	b570      	push	{r4, r5, r6, lr}
    1ffa:	0005      	movs	r5, r0
    1ffc:	480c      	ldr	r0, [pc, #48]	; (2030 <__aeabi_dcmpun+0x38>)
    1ffe:	031c      	lsls	r4, r3, #12
    2000:	0016      	movs	r6, r2
    2002:	005b      	lsls	r3, r3, #1
    2004:	030a      	lsls	r2, r1, #12
    2006:	0049      	lsls	r1, r1, #1
    2008:	0b12      	lsrs	r2, r2, #12
    200a:	0d49      	lsrs	r1, r1, #21
    200c:	0b24      	lsrs	r4, r4, #12
    200e:	0d5b      	lsrs	r3, r3, #21
    2010:	4281      	cmp	r1, r0
    2012:	d008      	beq.n	2026 <__aeabi_dcmpun+0x2e>
    2014:	4a06      	ldr	r2, [pc, #24]	; (2030 <__aeabi_dcmpun+0x38>)
    2016:	2000      	movs	r0, #0
    2018:	4293      	cmp	r3, r2
    201a:	d103      	bne.n	2024 <__aeabi_dcmpun+0x2c>
    201c:	0020      	movs	r0, r4
    201e:	4330      	orrs	r0, r6
    2020:	1e43      	subs	r3, r0, #1
    2022:	4198      	sbcs	r0, r3
    2024:	bd70      	pop	{r4, r5, r6, pc}
    2026:	2001      	movs	r0, #1
    2028:	432a      	orrs	r2, r5
    202a:	d1fb      	bne.n	2024 <__aeabi_dcmpun+0x2c>
    202c:	e7f2      	b.n	2014 <__aeabi_dcmpun+0x1c>
    202e:	46c0      	nop			; (mov r8, r8)
    2030:	000007ff 	.word	0x000007ff

00002034 <__aeabi_d2iz>:
    2034:	000a      	movs	r2, r1
    2036:	b530      	push	{r4, r5, lr}
    2038:	4c13      	ldr	r4, [pc, #76]	; (2088 <__aeabi_d2iz+0x54>)
    203a:	0053      	lsls	r3, r2, #1
    203c:	0309      	lsls	r1, r1, #12
    203e:	0005      	movs	r5, r0
    2040:	0b09      	lsrs	r1, r1, #12
    2042:	2000      	movs	r0, #0
    2044:	0d5b      	lsrs	r3, r3, #21
    2046:	0fd2      	lsrs	r2, r2, #31
    2048:	42a3      	cmp	r3, r4
    204a:	dd04      	ble.n	2056 <__aeabi_d2iz+0x22>
    204c:	480f      	ldr	r0, [pc, #60]	; (208c <__aeabi_d2iz+0x58>)
    204e:	4283      	cmp	r3, r0
    2050:	dd02      	ble.n	2058 <__aeabi_d2iz+0x24>
    2052:	4b0f      	ldr	r3, [pc, #60]	; (2090 <__aeabi_d2iz+0x5c>)
    2054:	18d0      	adds	r0, r2, r3
    2056:	bd30      	pop	{r4, r5, pc}
    2058:	2080      	movs	r0, #128	; 0x80
    205a:	0340      	lsls	r0, r0, #13
    205c:	4301      	orrs	r1, r0
    205e:	480d      	ldr	r0, [pc, #52]	; (2094 <__aeabi_d2iz+0x60>)
    2060:	1ac0      	subs	r0, r0, r3
    2062:	281f      	cmp	r0, #31
    2064:	dd08      	ble.n	2078 <__aeabi_d2iz+0x44>
    2066:	480c      	ldr	r0, [pc, #48]	; (2098 <__aeabi_d2iz+0x64>)
    2068:	1ac3      	subs	r3, r0, r3
    206a:	40d9      	lsrs	r1, r3
    206c:	000b      	movs	r3, r1
    206e:	4258      	negs	r0, r3
    2070:	2a00      	cmp	r2, #0
    2072:	d1f0      	bne.n	2056 <__aeabi_d2iz+0x22>
    2074:	0018      	movs	r0, r3
    2076:	e7ee      	b.n	2056 <__aeabi_d2iz+0x22>
    2078:	4c08      	ldr	r4, [pc, #32]	; (209c <__aeabi_d2iz+0x68>)
    207a:	40c5      	lsrs	r5, r0
    207c:	46a4      	mov	ip, r4
    207e:	4463      	add	r3, ip
    2080:	4099      	lsls	r1, r3
    2082:	000b      	movs	r3, r1
    2084:	432b      	orrs	r3, r5
    2086:	e7f2      	b.n	206e <__aeabi_d2iz+0x3a>
    2088:	000003fe 	.word	0x000003fe
    208c:	0000041d 	.word	0x0000041d
    2090:	7fffffff 	.word	0x7fffffff
    2094:	00000433 	.word	0x00000433
    2098:	00000413 	.word	0x00000413
    209c:	fffffbed 	.word	0xfffffbed

000020a0 <__aeabi_i2d>:
    20a0:	b570      	push	{r4, r5, r6, lr}
    20a2:	2800      	cmp	r0, #0
    20a4:	d016      	beq.n	20d4 <__aeabi_i2d+0x34>
    20a6:	17c3      	asrs	r3, r0, #31
    20a8:	18c5      	adds	r5, r0, r3
    20aa:	405d      	eors	r5, r3
    20ac:	0fc4      	lsrs	r4, r0, #31
    20ae:	0028      	movs	r0, r5
    20b0:	f000 f84c 	bl	214c <__clzsi2>
    20b4:	4a11      	ldr	r2, [pc, #68]	; (20fc <__aeabi_i2d+0x5c>)
    20b6:	1a12      	subs	r2, r2, r0
    20b8:	280a      	cmp	r0, #10
    20ba:	dc16      	bgt.n	20ea <__aeabi_i2d+0x4a>
    20bc:	0003      	movs	r3, r0
    20be:	002e      	movs	r6, r5
    20c0:	3315      	adds	r3, #21
    20c2:	409e      	lsls	r6, r3
    20c4:	230b      	movs	r3, #11
    20c6:	1a18      	subs	r0, r3, r0
    20c8:	40c5      	lsrs	r5, r0
    20ca:	0552      	lsls	r2, r2, #21
    20cc:	032d      	lsls	r5, r5, #12
    20ce:	0b2d      	lsrs	r5, r5, #12
    20d0:	0d53      	lsrs	r3, r2, #21
    20d2:	e003      	b.n	20dc <__aeabi_i2d+0x3c>
    20d4:	2400      	movs	r4, #0
    20d6:	2300      	movs	r3, #0
    20d8:	2500      	movs	r5, #0
    20da:	2600      	movs	r6, #0
    20dc:	051b      	lsls	r3, r3, #20
    20de:	432b      	orrs	r3, r5
    20e0:	07e4      	lsls	r4, r4, #31
    20e2:	4323      	orrs	r3, r4
    20e4:	0030      	movs	r0, r6
    20e6:	0019      	movs	r1, r3
    20e8:	bd70      	pop	{r4, r5, r6, pc}
    20ea:	380b      	subs	r0, #11
    20ec:	4085      	lsls	r5, r0
    20ee:	0552      	lsls	r2, r2, #21
    20f0:	032d      	lsls	r5, r5, #12
    20f2:	2600      	movs	r6, #0
    20f4:	0b2d      	lsrs	r5, r5, #12
    20f6:	0d53      	lsrs	r3, r2, #21
    20f8:	e7f0      	b.n	20dc <__aeabi_i2d+0x3c>
    20fa:	46c0      	nop			; (mov r8, r8)
    20fc:	0000041e 	.word	0x0000041e

00002100 <__aeabi_ui2d>:
    2100:	b510      	push	{r4, lr}
    2102:	1e04      	subs	r4, r0, #0
    2104:	d010      	beq.n	2128 <__aeabi_ui2d+0x28>
    2106:	f000 f821 	bl	214c <__clzsi2>
    210a:	4b0f      	ldr	r3, [pc, #60]	; (2148 <__aeabi_ui2d+0x48>)
    210c:	1a1b      	subs	r3, r3, r0
    210e:	280a      	cmp	r0, #10
    2110:	dc11      	bgt.n	2136 <__aeabi_ui2d+0x36>
    2112:	220b      	movs	r2, #11
    2114:	0021      	movs	r1, r4
    2116:	1a12      	subs	r2, r2, r0
    2118:	40d1      	lsrs	r1, r2
    211a:	3015      	adds	r0, #21
    211c:	030a      	lsls	r2, r1, #12
    211e:	055b      	lsls	r3, r3, #21
    2120:	4084      	lsls	r4, r0
    2122:	0b12      	lsrs	r2, r2, #12
    2124:	0d5b      	lsrs	r3, r3, #21
    2126:	e001      	b.n	212c <__aeabi_ui2d+0x2c>
    2128:	2300      	movs	r3, #0
    212a:	2200      	movs	r2, #0
    212c:	051b      	lsls	r3, r3, #20
    212e:	4313      	orrs	r3, r2
    2130:	0020      	movs	r0, r4
    2132:	0019      	movs	r1, r3
    2134:	bd10      	pop	{r4, pc}
    2136:	0022      	movs	r2, r4
    2138:	380b      	subs	r0, #11
    213a:	4082      	lsls	r2, r0
    213c:	055b      	lsls	r3, r3, #21
    213e:	0312      	lsls	r2, r2, #12
    2140:	2400      	movs	r4, #0
    2142:	0b12      	lsrs	r2, r2, #12
    2144:	0d5b      	lsrs	r3, r3, #21
    2146:	e7f1      	b.n	212c <__aeabi_ui2d+0x2c>
    2148:	0000041e 	.word	0x0000041e

0000214c <__clzsi2>:
    214c:	211c      	movs	r1, #28
    214e:	2301      	movs	r3, #1
    2150:	041b      	lsls	r3, r3, #16
    2152:	4298      	cmp	r0, r3
    2154:	d301      	bcc.n	215a <__clzsi2+0xe>
    2156:	0c00      	lsrs	r0, r0, #16
    2158:	3910      	subs	r1, #16
    215a:	0a1b      	lsrs	r3, r3, #8
    215c:	4298      	cmp	r0, r3
    215e:	d301      	bcc.n	2164 <__clzsi2+0x18>
    2160:	0a00      	lsrs	r0, r0, #8
    2162:	3908      	subs	r1, #8
    2164:	091b      	lsrs	r3, r3, #4
    2166:	4298      	cmp	r0, r3
    2168:	d301      	bcc.n	216e <__clzsi2+0x22>
    216a:	0900      	lsrs	r0, r0, #4
    216c:	3904      	subs	r1, #4
    216e:	a202      	add	r2, pc, #8	; (adr r2, 2178 <__clzsi2+0x2c>)
    2170:	5c10      	ldrb	r0, [r2, r0]
    2172:	1840      	adds	r0, r0, r1
    2174:	4770      	bx	lr
    2176:	46c0      	nop			; (mov r8, r8)
    2178:	02020304 	.word	0x02020304
    217c:	01010101 	.word	0x01010101
	...

00002188 <__clzdi2>:
    2188:	b510      	push	{r4, lr}
    218a:	2900      	cmp	r1, #0
    218c:	d103      	bne.n	2196 <__clzdi2+0xe>
    218e:	f7ff ffdd 	bl	214c <__clzsi2>
    2192:	3020      	adds	r0, #32
    2194:	e002      	b.n	219c <__clzdi2+0x14>
    2196:	0008      	movs	r0, r1
    2198:	f7ff ffd8 	bl	214c <__clzsi2>
    219c:	bd10      	pop	{r4, pc}
    219e:	46c0      	nop			; (mov r8, r8)

000021a0 <main>:
					| ((uint32_t)GPIO_PIN_CNF_DRIVE_S0S1 << GPIO_PIN_CNF_DRIVE_Pos)
					| ((uint32_t)GPIO_PIN_CNF_SENSE_Disabled << GPIO_PIN_CNF_SENSE_Pos);
}

int main()
{		
    21a0:	b5f0      	push	{r4, r5, r6, r7, lr}
    21a2:	46c6      	mov	lr, r8
	NRF_GPIO->PIN_CNF[LED1] = ((uint32_t)GPIO_PIN_CNF_DIR_Output << GPIO_PIN_CNF_DIR_Pos)
    21a4:	26a0      	movs	r6, #160	; 0xa0
    21a6:	23e9      	movs	r3, #233	; 0xe9
    21a8:	2203      	movs	r2, #3
{		
    21aa:	b500      	push	{lr}
	NRF_GPIO->PIN_CNF[LED1] = ((uint32_t)GPIO_PIN_CNF_DIR_Output << GPIO_PIN_CNF_DIR_Pos)
    21ac:	00db      	lsls	r3, r3, #3
    21ae:	05f6      	lsls	r6, r6, #23
    21b0:	50f2      	str	r2, [r6, r3]
{		
    21b2:	b082      	sub	sp, #8
	led_init();
	uart_init();
    21b4:	f000 f8a0 	bl	22f8 <uart_init>

	printf("\n\rHello Uart");
    21b8:	4815      	ldr	r0, [pc, #84]	; (2210 <main+0x70>)
    21ba:	f000 f97d 	bl	24b8 <printf>
	uint32_t loop_counter = 0;
    21be:	4b15      	ldr	r3, [pc, #84]	; (2214 <main+0x74>)
    21c0:	2500      	movs	r5, #0
    21c2:	4698      	mov	r8, r3
    for (volatile uint32_t i = 0; i < 123456; ++i)
    21c4:	2700      	movs	r7, #0
    21c6:	4c14      	ldr	r4, [pc, #80]	; (2218 <main+0x78>)
    21c8:	9701      	str	r7, [sp, #4]
    21ca:	9b01      	ldr	r3, [sp, #4]
    21cc:	42a3      	cmp	r3, r4
    21ce:	d805      	bhi.n	21dc <main+0x3c>
    21d0:	9b01      	ldr	r3, [sp, #4]
    21d2:	3301      	adds	r3, #1
    21d4:	9301      	str	r3, [sp, #4]
    21d6:	9b01      	ldr	r3, [sp, #4]
    21d8:	42a3      	cmp	r3, r4
    21da:	d9f9      	bls.n	21d0 <main+0x30>
	while(1)
	{
		delay();
		NRF_GPIO->OUTCLR = (1<<LED1);
    21dc:	2280      	movs	r2, #128	; 0x80
    21de:	4b0f      	ldr	r3, [pc, #60]	; (221c <main+0x7c>)
    21e0:	02d2      	lsls	r2, r2, #11
    21e2:	50f2      	str	r2, [r6, r3]
    for (volatile uint32_t i = 0; i < 123456; ++i)
    21e4:	9700      	str	r7, [sp, #0]
    21e6:	9b00      	ldr	r3, [sp, #0]
    21e8:	42a3      	cmp	r3, r4
    21ea:	d805      	bhi.n	21f8 <main+0x58>
    21ec:	9b00      	ldr	r3, [sp, #0]
    21ee:	3301      	adds	r3, #1
    21f0:	9300      	str	r3, [sp, #0]
    21f2:	9b00      	ldr	r3, [sp, #0]
    21f4:	42a3      	cmp	r3, r4
    21f6:	d9f9      	bls.n	21ec <main+0x4c>
		delay();
		NRF_GPIO->OUTSET = (1<<LED1);
    21f8:	23a1      	movs	r3, #161	; 0xa1
    21fa:	2280      	movs	r2, #128	; 0x80
    21fc:	00db      	lsls	r3, r3, #3
    21fe:	02d2      	lsls	r2, r2, #11
		printf("\n\rloop: %ld", loop_counter);
    2200:	0029      	movs	r1, r5
    2202:	4640      	mov	r0, r8
		NRF_GPIO->OUTSET = (1<<LED1);
    2204:	50f2      	str	r2, [r6, r3]
		printf("\n\rloop: %ld", loop_counter);
    2206:	f000 f957 	bl	24b8 <printf>
		loop_counter++;
    220a:	3501      	adds	r5, #1
		delay();
    220c:	e7dc      	b.n	21c8 <main+0x28>
    220e:	46c0      	nop			; (mov r8, r8)
    2210:	0000865c 	.word	0x0000865c
    2214:	0000866c 	.word	0x0000866c
    2218:	0001e23f 	.word	0x0001e23f
    221c:	0000050c 	.word	0x0000050c

00002220 <Default_Handler>:
	}
}

void Default_Handler(void)
{
	while(1);
    2220:	e7fe      	b.n	2220 <Default_Handler>
    2222:	46c0      	nop			; (mov r8, r8)

00002224 <HardFault_Handler>:

int main(void);


static void Default_Handler(void) {
  for (;;);
    2224:	e7fe      	b.n	2224 <HardFault_Handler>
    2226:	46c0      	nop			; (mov r8, r8)

00002228 <Reset_Handler>:
}

static void Reset_Handler(void) {
  unsigned long *src, *dst;

  for (dst = &_sdata, src = &_sidata; dst < &_edata; ++dst, ++src)
    2228:	480d      	ldr	r0, [pc, #52]	; (2260 <Reset_Handler+0x38>)
    222a:	4b0e      	ldr	r3, [pc, #56]	; (2264 <Reset_Handler+0x3c>)
static void Reset_Handler(void) {
    222c:	b510      	push	{r4, lr}
  for (dst = &_sdata, src = &_sidata; dst < &_edata; ++dst, ++src)
    222e:	4298      	cmp	r0, r3
    2230:	d207      	bcs.n	2242 <Reset_Handler+0x1a>
    *dst = *src;
    2232:	3b01      	subs	r3, #1
    2234:	1a1a      	subs	r2, r3, r0
    2236:	0892      	lsrs	r2, r2, #2
    2238:	3201      	adds	r2, #1
    223a:	490b      	ldr	r1, [pc, #44]	; (2268 <Reset_Handler+0x40>)
    223c:	0092      	lsls	r2, r2, #2
    223e:	f000 f895 	bl	236c <memcpy>
 
  for (dst = &_sbss; dst < &_ebss; ++dst)
    2242:	480a      	ldr	r0, [pc, #40]	; (226c <Reset_Handler+0x44>)
    2244:	4b0a      	ldr	r3, [pc, #40]	; (2270 <Reset_Handler+0x48>)
    2246:	4298      	cmp	r0, r3
    2248:	d207      	bcs.n	225a <Reset_Handler+0x32>
    *dst = 0;
    224a:	3b01      	subs	r3, #1
    224c:	1a1a      	subs	r2, r3, r0
    224e:	0892      	lsrs	r2, r2, #2
    2250:	3201      	adds	r2, #1
    2252:	2100      	movs	r1, #0
    2254:	0092      	lsls	r2, r2, #2
    2256:	f000 f8db 	bl	2410 <memset>
  main();
    225a:	f7ff ffa1 	bl	21a0 <main>
  for (;;);
    225e:	e7fe      	b.n	225e <Reset_Handler+0x36>
    2260:	20000000 	.word	0x20000000
    2264:	200009ac 	.word	0x200009ac
    2268:	00008d4c 	.word	0x00008d4c
    226c:	200009ac 	.word	0x200009ac
    2270:	200011f4 	.word	0x200011f4

00002274 <_write>:
// https://www.embecosm.com/appnotes/ean9/ean9-howto-newlib-1.0.html#id2719973
int
_write (int   file,
        char *buf,
        int   nbytes)
{
    2274:	b570      	push	{r4, r5, r6, lr}
    2276:	1e16      	subs	r6, r2, #0
  int i;

  /* Output character at at time */
  for (i = 0; i < nbytes; i++)
    2278:	dd07      	ble.n	228a <_write+0x16>
    227a:	000c      	movs	r4, r1
    227c:	188d      	adds	r5, r1, r2
    {
      uart_put (buf[i]);
    227e:	7820      	ldrb	r0, [r4, #0]
  for (i = 0; i < nbytes; i++)
    2280:	3401      	adds	r4, #1
      uart_put (buf[i]);
    2282:	f000 f863 	bl	234c <uart_put>
  for (i = 0; i < nbytes; i++)
    2286:	42ac      	cmp	r4, r5
    2288:	d1f9      	bne.n	227e <_write+0xa>
    }
        
  return nbytes;

} 
    228a:	0030      	movs	r0, r6
    228c:	bd70      	pop	{r4, r5, r6, pc}
    228e:	46c0      	nop			; (mov r8, r8)

00002290 <_sbrk>:
void *
_sbrk (int nbytes)
{
  static uint8_t heap[2048];
  static uint16_t last = 0;
  if(last+nbytes < 1024)
    2290:	4906      	ldr	r1, [pc, #24]	; (22ac <_sbrk+0x1c>)
    2292:	880b      	ldrh	r3, [r1, #0]
    2294:	181a      	adds	r2, r3, r0
    2296:	2080      	movs	r0, #128	; 0x80
    2298:	00c0      	lsls	r0, r0, #3
    229a:	4282      	cmp	r2, r0
    229c:	da03      	bge.n	22a6 <_sbrk+0x16>
  {
    void* pointer = &heap[last];
    229e:	4804      	ldr	r0, [pc, #16]	; (22b0 <_sbrk+0x20>)
    last+=nbytes;
    22a0:	800a      	strh	r2, [r1, #0]
    void* pointer = &heap[last];
    22a2:	1818      	adds	r0, r3, r0
  }
  else
  {
    return  (void *) -1;
  }
}
    22a4:	4770      	bx	lr
    return  (void *) -1;
    22a6:	2001      	movs	r0, #1
    22a8:	4240      	negs	r0, r0
    22aa:	e7fb      	b.n	22a4 <_sbrk+0x14>
    22ac:	200011ac 	.word	0x200011ac
    22b0:	200009ac 	.word	0x200009ac

000022b4 <_close>:

int
_close (int   file)
{
  errno = EBADF;
    22b4:	2209      	movs	r2, #9
  
  return -1;                    /* Always fails */
    22b6:	2001      	movs	r0, #1
  errno = EBADF;
    22b8:	4b01      	ldr	r3, [pc, #4]	; (22c0 <_close+0xc>)
}
    22ba:	4240      	negs	r0, r0
  errno = EBADF;
    22bc:	601a      	str	r2, [r3, #0]
}
    22be:	4770      	bx	lr
    22c0:	200011b0 	.word	0x200011b0

000022c4 <_lseek>:
        int   offset,
        int   whence)
{
  return  0;

} 
    22c4:	2000      	movs	r0, #0
    22c6:	4770      	bx	lr

000022c8 <_read>:
       char *ptr,
       int   len)
{
  return  0;                            /* EOF */

} 
    22c8:	2000      	movs	r0, #0
    22ca:	4770      	bx	lr

000022cc <_fstat>:

int
_fstat (int          file,
        struct stat *st)
{
  st->st_mode = S_IFCHR;
    22cc:	2380      	movs	r3, #128	; 0x80
    22ce:	019b      	lsls	r3, r3, #6
  return  0;

}
    22d0:	2000      	movs	r0, #0
  st->st_mode = S_IFCHR;
    22d2:	604b      	str	r3, [r1, #4]
}
    22d4:	4770      	bx	lr
    22d6:	46c0      	nop			; (mov r8, r8)

000022d8 <_isatty>:
int
_isatty (int   file)
{
  return  1;

}
    22d8:	2001      	movs	r0, #1
    22da:	4770      	bx	lr

000022dc <_exit>:

void Default_Handler(void);
void 
_exit (int  rc)
{
    22dc:	b510      	push	{r4, lr}
 Default_Handler();
    22de:	f7ff ff9f 	bl	2220 <Default_Handler>
 while(1){}
    22e2:	e7fe      	b.n	22e2 <_exit+0x6>

000022e4 <_kill>:

int
_kill (int  pid,
       int  sig)
{
  errno = EINVAL;
    22e4:	2216      	movs	r2, #22
  return -1;                    /* Always fails */
    22e6:	2001      	movs	r0, #1
  errno = EINVAL;
    22e8:	4b01      	ldr	r3, [pc, #4]	; (22f0 <_kill+0xc>)

} 
    22ea:	4240      	negs	r0, r0
  errno = EINVAL;
    22ec:	601a      	str	r2, [r3, #0]
} 
    22ee:	4770      	bx	lr
    22f0:	200011b0 	.word	0x200011b0

000022f4 <_getpid>:
int
_getpid ()
{
  return  1;                            /* Success */

    22f4:	2001      	movs	r0, #1
    22f6:	4770      	bx	lr

000022f8 <uart_init>:
#include "nrf51_bitfields.h"

void uart_init(void)
{
	const uint32_t txd_pin = 26;//P.26 TXD
	NRF_GPIO->OUTSET = (1<<txd_pin);
    22f8:	23a0      	movs	r3, #160	; 0xa0
    22fa:	22a1      	movs	r2, #161	; 0xa1
    22fc:	2180      	movs	r1, #128	; 0x80
    22fe:	05db      	lsls	r3, r3, #23
    2300:	00d2      	lsls	r2, r2, #3
    2302:	04c9      	lsls	r1, r1, #19
    2304:	5099      	str	r1, [r3, r2]
	NRF_GPIO->PIN_CNF[txd_pin] = ((uint32_t)GPIO_PIN_CNF_DIR_Output << GPIO_PIN_CNF_DIR_Pos)
    2306:	22ed      	movs	r2, #237	; 0xed
    2308:	2103      	movs	r1, #3
    230a:	00d2      	lsls	r2, r2, #3
    230c:	5099      	str	r1, [r3, r2]
						| ((uint32_t)GPIO_PIN_CNF_INPUT_Disconnect << GPIO_PIN_CNF_INPUT_Pos)
						| ((uint32_t)GPIO_PIN_CNF_PULL_Disabled << GPIO_PIN_CNF_PULL_Pos)
						| ((uint32_t)GPIO_PIN_CNF_DRIVE_S0S1 << GPIO_PIN_CNF_DRIVE_Pos)
						| ((uint32_t)GPIO_PIN_CNF_SENSE_Disabled << GPIO_PIN_CNF_SENSE_Pos);

	NRF_UART0->BAUDRATE = 0x01D7E000; //115200
    230e:	4b09      	ldr	r3, [pc, #36]	; (2334 <uart_init+0x3c>)
    2310:	4a09      	ldr	r2, [pc, #36]	; (2338 <uart_init+0x40>)
    2312:	490a      	ldr	r1, [pc, #40]	; (233c <uart_init+0x44>)
    2314:	5099      	str	r1, [r3, r2]
	NRF_UART0->CONFIG = UART_CONFIG_PARITY_Excluded << UART_CONFIG_PARITY_Pos | UART_CONFIG_HWFC_Disabled;
    2316:	2100      	movs	r1, #0
    2318:	4a09      	ldr	r2, [pc, #36]	; (2340 <uart_init+0x48>)
    231a:	5099      	str	r1, [r3, r2]
	NRF_UART0->PSELTXD = txd_pin;
    231c:	4a09      	ldr	r2, [pc, #36]	; (2344 <uart_init+0x4c>)
    231e:	311a      	adds	r1, #26
    2320:	5099      	str	r1, [r3, r2]
	NRF_UART0->ENABLE = UART_ENABLE_ENABLE_Enabled;
    2322:	3a0c      	subs	r2, #12
    2324:	3916      	subs	r1, #22
    2326:	5099      	str	r1, [r3, r2]
	NRF_UART0->TASKS_STARTTX = 1;
    2328:	2201      	movs	r2, #1
    232a:	609a      	str	r2, [r3, #8]
    NRF_UART0->TXD = ' '; //First character needs to be send to generate TXDRDY event and not be stuck in while loop
    232c:	4a06      	ldr	r2, [pc, #24]	; (2348 <uart_init+0x50>)
    232e:	311c      	adds	r1, #28
    2330:	5099      	str	r1, [r3, r2]
}
    2332:	4770      	bx	lr
    2334:	40002000 	.word	0x40002000
    2338:	00000524 	.word	0x00000524
    233c:	01d7e000 	.word	0x01d7e000
    2340:	0000056c 	.word	0x0000056c
    2344:	0000050c 	.word	0x0000050c
    2348:	0000051c 	.word	0x0000051c

0000234c <uart_put>:

void uart_put(char c)
{
    while(NRF_UART0->EVENTS_TXDRDY == 0) {}
    234c:	218e      	movs	r1, #142	; 0x8e
    234e:	4a05      	ldr	r2, [pc, #20]	; (2364 <uart_put+0x18>)
    2350:	0049      	lsls	r1, r1, #1
    2352:	5853      	ldr	r3, [r2, r1]
    2354:	2b00      	cmp	r3, #0
    2356:	d0fc      	beq.n	2352 <uart_put+0x6>
    NRF_UART0->EVENTS_TXDRDY = 0;
    2358:	2300      	movs	r3, #0
    235a:	5053      	str	r3, [r2, r1]
    NRF_UART0->TXD = c;
    235c:	4b02      	ldr	r3, [pc, #8]	; (2368 <uart_put+0x1c>)
    235e:	50d0      	str	r0, [r2, r3]
    
    2360:	4770      	bx	lr
    2362:	46c0      	nop			; (mov r8, r8)
    2364:	40002000 	.word	0x40002000
    2368:	0000051c 	.word	0x0000051c

0000236c <memcpy>:
    236c:	b5f0      	push	{r4, r5, r6, r7, lr}
    236e:	46c6      	mov	lr, r8
    2370:	b500      	push	{lr}
    2372:	2a0f      	cmp	r2, #15
    2374:	d941      	bls.n	23fa <memcpy+0x8e>
    2376:	2703      	movs	r7, #3
    2378:	000d      	movs	r5, r1
    237a:	003e      	movs	r6, r7
    237c:	4305      	orrs	r5, r0
    237e:	000c      	movs	r4, r1
    2380:	0003      	movs	r3, r0
    2382:	402e      	ands	r6, r5
    2384:	422f      	tst	r7, r5
    2386:	d13d      	bne.n	2404 <memcpy+0x98>
    2388:	0015      	movs	r5, r2
    238a:	3d10      	subs	r5, #16
    238c:	092d      	lsrs	r5, r5, #4
    238e:	46a8      	mov	r8, r5
    2390:	012d      	lsls	r5, r5, #4
    2392:	46ac      	mov	ip, r5
    2394:	4484      	add	ip, r0
    2396:	6827      	ldr	r7, [r4, #0]
    2398:	001d      	movs	r5, r3
    239a:	601f      	str	r7, [r3, #0]
    239c:	6867      	ldr	r7, [r4, #4]
    239e:	605f      	str	r7, [r3, #4]
    23a0:	68a7      	ldr	r7, [r4, #8]
    23a2:	609f      	str	r7, [r3, #8]
    23a4:	68e7      	ldr	r7, [r4, #12]
    23a6:	3410      	adds	r4, #16
    23a8:	60df      	str	r7, [r3, #12]
    23aa:	3310      	adds	r3, #16
    23ac:	4565      	cmp	r5, ip
    23ae:	d1f2      	bne.n	2396 <memcpy+0x2a>
    23b0:	4645      	mov	r5, r8
    23b2:	230f      	movs	r3, #15
    23b4:	240c      	movs	r4, #12
    23b6:	3501      	adds	r5, #1
    23b8:	012d      	lsls	r5, r5, #4
    23ba:	1949      	adds	r1, r1, r5
    23bc:	4013      	ands	r3, r2
    23be:	1945      	adds	r5, r0, r5
    23c0:	4214      	tst	r4, r2
    23c2:	d022      	beq.n	240a <memcpy+0x9e>
    23c4:	598c      	ldr	r4, [r1, r6]
    23c6:	51ac      	str	r4, [r5, r6]
    23c8:	3604      	adds	r6, #4
    23ca:	1b9c      	subs	r4, r3, r6
    23cc:	2c03      	cmp	r4, #3
    23ce:	d8f9      	bhi.n	23c4 <memcpy+0x58>
    23d0:	3b04      	subs	r3, #4
    23d2:	089b      	lsrs	r3, r3, #2
    23d4:	3301      	adds	r3, #1
    23d6:	009b      	lsls	r3, r3, #2
    23d8:	18ed      	adds	r5, r5, r3
    23da:	18c9      	adds	r1, r1, r3
    23dc:	2303      	movs	r3, #3
    23de:	401a      	ands	r2, r3
    23e0:	1e56      	subs	r6, r2, #1
    23e2:	2a00      	cmp	r2, #0
    23e4:	d006      	beq.n	23f4 <memcpy+0x88>
    23e6:	2300      	movs	r3, #0
    23e8:	5ccc      	ldrb	r4, [r1, r3]
    23ea:	001a      	movs	r2, r3
    23ec:	54ec      	strb	r4, [r5, r3]
    23ee:	3301      	adds	r3, #1
    23f0:	4296      	cmp	r6, r2
    23f2:	d1f9      	bne.n	23e8 <memcpy+0x7c>
    23f4:	bc80      	pop	{r7}
    23f6:	46b8      	mov	r8, r7
    23f8:	bdf0      	pop	{r4, r5, r6, r7, pc}
    23fa:	0005      	movs	r5, r0
    23fc:	1e56      	subs	r6, r2, #1
    23fe:	2a00      	cmp	r2, #0
    2400:	d1f1      	bne.n	23e6 <memcpy+0x7a>
    2402:	e7f7      	b.n	23f4 <memcpy+0x88>
    2404:	0005      	movs	r5, r0
    2406:	1e56      	subs	r6, r2, #1
    2408:	e7ed      	b.n	23e6 <memcpy+0x7a>
    240a:	001a      	movs	r2, r3
    240c:	e7f6      	b.n	23fc <memcpy+0x90>
    240e:	46c0      	nop			; (mov r8, r8)

00002410 <memset>:
    2410:	b5f0      	push	{r4, r5, r6, r7, lr}
    2412:	0005      	movs	r5, r0
    2414:	0783      	lsls	r3, r0, #30
    2416:	d049      	beq.n	24ac <memset+0x9c>
    2418:	1e54      	subs	r4, r2, #1
    241a:	2a00      	cmp	r2, #0
    241c:	d045      	beq.n	24aa <memset+0x9a>
    241e:	0003      	movs	r3, r0
    2420:	2603      	movs	r6, #3
    2422:	b2ca      	uxtb	r2, r1
    2424:	e002      	b.n	242c <memset+0x1c>
    2426:	3501      	adds	r5, #1
    2428:	3c01      	subs	r4, #1
    242a:	d33e      	bcc.n	24aa <memset+0x9a>
    242c:	3301      	adds	r3, #1
    242e:	702a      	strb	r2, [r5, #0]
    2430:	4233      	tst	r3, r6
    2432:	d1f8      	bne.n	2426 <memset+0x16>
    2434:	2c03      	cmp	r4, #3
    2436:	d930      	bls.n	249a <memset+0x8a>
    2438:	22ff      	movs	r2, #255	; 0xff
    243a:	400a      	ands	r2, r1
    243c:	0215      	lsls	r5, r2, #8
    243e:	4315      	orrs	r5, r2
    2440:	042a      	lsls	r2, r5, #16
    2442:	4315      	orrs	r5, r2
    2444:	2c0f      	cmp	r4, #15
    2446:	d934      	bls.n	24b2 <memset+0xa2>
    2448:	0027      	movs	r7, r4
    244a:	3f10      	subs	r7, #16
    244c:	093f      	lsrs	r7, r7, #4
    244e:	013e      	lsls	r6, r7, #4
    2450:	46b4      	mov	ip, r6
    2452:	001e      	movs	r6, r3
    2454:	001a      	movs	r2, r3
    2456:	3610      	adds	r6, #16
    2458:	4466      	add	r6, ip
    245a:	6015      	str	r5, [r2, #0]
    245c:	6055      	str	r5, [r2, #4]
    245e:	6095      	str	r5, [r2, #8]
    2460:	60d5      	str	r5, [r2, #12]
    2462:	3210      	adds	r2, #16
    2464:	42b2      	cmp	r2, r6
    2466:	d1f8      	bne.n	245a <memset+0x4a>
    2468:	3701      	adds	r7, #1
    246a:	013f      	lsls	r7, r7, #4
    246c:	19db      	adds	r3, r3, r7
    246e:	270f      	movs	r7, #15
    2470:	220c      	movs	r2, #12
    2472:	4027      	ands	r7, r4
    2474:	4022      	ands	r2, r4
    2476:	003c      	movs	r4, r7
    2478:	2a00      	cmp	r2, #0
    247a:	d00e      	beq.n	249a <memset+0x8a>
    247c:	1f3e      	subs	r6, r7, #4
    247e:	08b6      	lsrs	r6, r6, #2
    2480:	00b4      	lsls	r4, r6, #2
    2482:	46a4      	mov	ip, r4
    2484:	001a      	movs	r2, r3
    2486:	1d1c      	adds	r4, r3, #4
    2488:	4464      	add	r4, ip
    248a:	c220      	stmia	r2!, {r5}
    248c:	42a2      	cmp	r2, r4
    248e:	d1fc      	bne.n	248a <memset+0x7a>
    2490:	2403      	movs	r4, #3
    2492:	3601      	adds	r6, #1
    2494:	00b6      	lsls	r6, r6, #2
    2496:	199b      	adds	r3, r3, r6
    2498:	403c      	ands	r4, r7
    249a:	2c00      	cmp	r4, #0
    249c:	d005      	beq.n	24aa <memset+0x9a>
    249e:	b2c9      	uxtb	r1, r1
    24a0:	191c      	adds	r4, r3, r4
    24a2:	7019      	strb	r1, [r3, #0]
    24a4:	3301      	adds	r3, #1
    24a6:	429c      	cmp	r4, r3
    24a8:	d1fb      	bne.n	24a2 <memset+0x92>
    24aa:	bdf0      	pop	{r4, r5, r6, r7, pc}
    24ac:	0003      	movs	r3, r0
    24ae:	0014      	movs	r4, r2
    24b0:	e7c0      	b.n	2434 <memset+0x24>
    24b2:	0027      	movs	r7, r4
    24b4:	e7e2      	b.n	247c <memset+0x6c>
    24b6:	46c0      	nop			; (mov r8, r8)

000024b8 <printf>:
    24b8:	b40f      	push	{r0, r1, r2, r3}
    24ba:	b500      	push	{lr}
    24bc:	4906      	ldr	r1, [pc, #24]	; (24d8 <printf+0x20>)
    24be:	b083      	sub	sp, #12
    24c0:	ab04      	add	r3, sp, #16
    24c2:	6808      	ldr	r0, [r1, #0]
    24c4:	cb04      	ldmia	r3!, {r2}
    24c6:	6881      	ldr	r1, [r0, #8]
    24c8:	9301      	str	r3, [sp, #4]
    24ca:	f000 f807 	bl	24dc <_vfprintf_r>
    24ce:	b003      	add	sp, #12
    24d0:	bc08      	pop	{r3}
    24d2:	b004      	add	sp, #16
    24d4:	4718      	bx	r3
    24d6:	46c0      	nop			; (mov r8, r8)
    24d8:	20000000 	.word	0x20000000

000024dc <_vfprintf_r>:
    24dc:	b5f0      	push	{r4, r5, r6, r7, lr}
    24de:	46de      	mov	lr, fp
    24e0:	464e      	mov	r6, r9
    24e2:	4645      	mov	r5, r8
    24e4:	4657      	mov	r7, sl
    24e6:	b5e0      	push	{r5, r6, r7, lr}
    24e8:	b0d7      	sub	sp, #348	; 0x15c
    24ea:	4683      	mov	fp, r0
    24ec:	4689      	mov	r9, r1
    24ee:	4690      	mov	r8, r2
    24f0:	001c      	movs	r4, r3
    24f2:	930f      	str	r3, [sp, #60]	; 0x3c
    24f4:	f003 fa1c 	bl	5930 <_localeconv_r>
    24f8:	6803      	ldr	r3, [r0, #0]
    24fa:	0018      	movs	r0, r3
    24fc:	931c      	str	r3, [sp, #112]	; 0x70
    24fe:	f004 fa3d 	bl	697c <strlen>
    2502:	465b      	mov	r3, fp
    2504:	901b      	str	r0, [sp, #108]	; 0x6c
    2506:	2b00      	cmp	r3, #0
    2508:	d003      	beq.n	2512 <_vfprintf_r+0x36>
    250a:	6b9b      	ldr	r3, [r3, #56]	; 0x38
    250c:	2b00      	cmp	r3, #0
    250e:	d100      	bne.n	2512 <_vfprintf_r+0x36>
    2510:	e25a      	b.n	29c8 <_vfprintf_r+0x4ec>
    2512:	464b      	mov	r3, r9
    2514:	6e5b      	ldr	r3, [r3, #100]	; 0x64
    2516:	07db      	lsls	r3, r3, #31
    2518:	d500      	bpl.n	251c <_vfprintf_r+0x40>
    251a:	e0b3      	b.n	2684 <_vfprintf_r+0x1a8>
    251c:	464b      	mov	r3, r9
    251e:	210c      	movs	r1, #12
    2520:	5e59      	ldrsh	r1, [r3, r1]
    2522:	464b      	mov	r3, r9
    2524:	899b      	ldrh	r3, [r3, #12]
    2526:	059a      	lsls	r2, r3, #22
    2528:	d400      	bmi.n	252c <_vfprintf_r+0x50>
    252a:	e0a7      	b.n	267c <_vfprintf_r+0x1a0>
    252c:	2280      	movs	r2, #128	; 0x80
    252e:	0192      	lsls	r2, r2, #6
    2530:	4213      	tst	r3, r2
    2532:	d109      	bne.n	2548 <_vfprintf_r+0x6c>
    2534:	430a      	orrs	r2, r1
    2536:	464b      	mov	r3, r9
    2538:	4649      	mov	r1, r9
    253a:	819a      	strh	r2, [r3, #12]
    253c:	6e49      	ldr	r1, [r1, #100]	; 0x64
    253e:	4bde      	ldr	r3, [pc, #888]	; (28b8 <_vfprintf_r+0x3dc>)
    2540:	400b      	ands	r3, r1
    2542:	4649      	mov	r1, r9
    2544:	664b      	str	r3, [r1, #100]	; 0x64
    2546:	b293      	uxth	r3, r2
    2548:	071a      	lsls	r2, r3, #28
    254a:	d546      	bpl.n	25da <_vfprintf_r+0xfe>
    254c:	464a      	mov	r2, r9
    254e:	6912      	ldr	r2, [r2, #16]
    2550:	2a00      	cmp	r2, #0
    2552:	d042      	beq.n	25da <_vfprintf_r+0xfe>
    2554:	221a      	movs	r2, #26
    2556:	401a      	ands	r2, r3
    2558:	2a0a      	cmp	r2, #10
    255a:	d04c      	beq.n	25f6 <_vfprintf_r+0x11a>
    255c:	ab2d      	add	r3, sp, #180	; 0xb4
    255e:	932a      	str	r3, [sp, #168]	; 0xa8
    2560:	2300      	movs	r3, #0
    2562:	2400      	movs	r4, #0
    2564:	932c      	str	r3, [sp, #176]	; 0xb0
    2566:	932b      	str	r3, [sp, #172]	; 0xac
    2568:	9315      	str	r3, [sp, #84]	; 0x54
    256a:	2300      	movs	r3, #0
    256c:	4646      	mov	r6, r8
    256e:	9316      	str	r3, [sp, #88]	; 0x58
    2570:	9417      	str	r4, [sp, #92]	; 0x5c
    2572:	2300      	movs	r3, #0
    2574:	931d      	str	r3, [sp, #116]	; 0x74
    2576:	931e      	str	r3, [sp, #120]	; 0x78
    2578:	931a      	str	r3, [sp, #104]	; 0x68
    257a:	931f      	str	r3, [sp, #124]	; 0x7c
    257c:	9320      	str	r3, [sp, #128]	; 0x80
    257e:	9309      	str	r3, [sp, #36]	; 0x24
    2580:	7833      	ldrb	r3, [r6, #0]
    2582:	46c8      	mov	r8, r9
    2584:	af2d      	add	r7, sp, #180	; 0xb4
    2586:	2b00      	cmp	r3, #0
    2588:	d100      	bne.n	258c <_vfprintf_r+0xb0>
    258a:	e123      	b.n	27d4 <_vfprintf_r+0x2f8>
    258c:	0034      	movs	r4, r6
    258e:	e003      	b.n	2598 <_vfprintf_r+0xbc>
    2590:	7863      	ldrb	r3, [r4, #1]
    2592:	3401      	adds	r4, #1
    2594:	2b00      	cmp	r3, #0
    2596:	d05b      	beq.n	2650 <_vfprintf_r+0x174>
    2598:	2b25      	cmp	r3, #37	; 0x25
    259a:	d1f9      	bne.n	2590 <_vfprintf_r+0xb4>
    259c:	1ba5      	subs	r5, r4, r6
    259e:	42b4      	cmp	r4, r6
    25a0:	d15a      	bne.n	2658 <_vfprintf_r+0x17c>
    25a2:	7823      	ldrb	r3, [r4, #0]
    25a4:	2b00      	cmp	r3, #0
    25a6:	d100      	bne.n	25aa <_vfprintf_r+0xce>
    25a8:	e114      	b.n	27d4 <_vfprintf_r+0x2f8>
    25aa:	1c63      	adds	r3, r4, #1
    25ac:	9306      	str	r3, [sp, #24]
    25ae:	2300      	movs	r3, #0
    25b0:	aa1c      	add	r2, sp, #112	; 0x70
    25b2:	76d3      	strb	r3, [r2, #27]
    25b4:	2201      	movs	r2, #1
    25b6:	4252      	negs	r2, r2
    25b8:	9208      	str	r2, [sp, #32]
    25ba:	2200      	movs	r2, #0
    25bc:	7863      	ldrb	r3, [r4, #1]
    25be:	465d      	mov	r5, fp
    25c0:	0014      	movs	r4, r2
    25c2:	920a      	str	r2, [sp, #40]	; 0x28
    25c4:	9a06      	ldr	r2, [sp, #24]
    25c6:	3201      	adds	r2, #1
    25c8:	9206      	str	r2, [sp, #24]
    25ca:	001a      	movs	r2, r3
    25cc:	3a20      	subs	r2, #32
    25ce:	2a5a      	cmp	r2, #90	; 0x5a
    25d0:	d869      	bhi.n	26a6 <_vfprintf_r+0x1ca>
    25d2:	49ba      	ldr	r1, [pc, #744]	; (28bc <_vfprintf_r+0x3e0>)
    25d4:	0092      	lsls	r2, r2, #2
    25d6:	588a      	ldr	r2, [r1, r2]
    25d8:	4697      	mov	pc, r2
    25da:	4649      	mov	r1, r9
    25dc:	4658      	mov	r0, fp
    25de:	f001 fde5 	bl	41ac <__swsetup_r>
    25e2:	464b      	mov	r3, r9
    25e4:	2800      	cmp	r0, #0
    25e6:	d001      	beq.n	25ec <_vfprintf_r+0x110>
    25e8:	f001 fc38 	bl	3e5c <_vfprintf_r+0x1980>
    25ec:	221a      	movs	r2, #26
    25ee:	899b      	ldrh	r3, [r3, #12]
    25f0:	401a      	ands	r2, r3
    25f2:	2a0a      	cmp	r2, #10
    25f4:	d1b2      	bne.n	255c <_vfprintf_r+0x80>
    25f6:	464a      	mov	r2, r9
    25f8:	210e      	movs	r1, #14
    25fa:	5e52      	ldrsh	r2, [r2, r1]
    25fc:	2a00      	cmp	r2, #0
    25fe:	dbad      	blt.n	255c <_vfprintf_r+0x80>
    2600:	464a      	mov	r2, r9
    2602:	6e52      	ldr	r2, [r2, #100]	; 0x64
    2604:	07d2      	lsls	r2, r2, #31
    2606:	d403      	bmi.n	2610 <_vfprintf_r+0x134>
    2608:	059b      	lsls	r3, r3, #22
    260a:	d401      	bmi.n	2610 <_vfprintf_r+0x134>
    260c:	f001 fa1b 	bl	3a46 <_vfprintf_r+0x156a>
    2610:	0023      	movs	r3, r4
    2612:	4642      	mov	r2, r8
    2614:	4649      	mov	r1, r9
    2616:	4658      	mov	r0, fp
    2618:	f001 fd82 	bl	4120 <__sbprintf>
    261c:	9009      	str	r0, [sp, #36]	; 0x24
    261e:	f000 fca7 	bl	2f70 <_vfprintf_r+0xa94>
    2622:	0028      	movs	r0, r5
    2624:	f003 f984 	bl	5930 <_localeconv_r>
    2628:	6843      	ldr	r3, [r0, #4]
    262a:	0018      	movs	r0, r3
    262c:	9320      	str	r3, [sp, #128]	; 0x80
    262e:	f004 f9a5 	bl	697c <strlen>
    2632:	4681      	mov	r9, r0
    2634:	901f      	str	r0, [sp, #124]	; 0x7c
    2636:	0028      	movs	r0, r5
    2638:	f003 f97a 	bl	5930 <_localeconv_r>
    263c:	6883      	ldr	r3, [r0, #8]
    263e:	931a      	str	r3, [sp, #104]	; 0x68
    2640:	464b      	mov	r3, r9
    2642:	2b00      	cmp	r3, #0
    2644:	d001      	beq.n	264a <_vfprintf_r+0x16e>
    2646:	f000 fe54 	bl	32f2 <_vfprintf_r+0xe16>
    264a:	9b06      	ldr	r3, [sp, #24]
    264c:	781b      	ldrb	r3, [r3, #0]
    264e:	e7b9      	b.n	25c4 <_vfprintf_r+0xe8>
    2650:	1ba5      	subs	r5, r4, r6
    2652:	42b4      	cmp	r4, r6
    2654:	d100      	bne.n	2658 <_vfprintf_r+0x17c>
    2656:	e0bd      	b.n	27d4 <_vfprintf_r+0x2f8>
    2658:	9b2c      	ldr	r3, [sp, #176]	; 0xb0
    265a:	603e      	str	r6, [r7, #0]
    265c:	195b      	adds	r3, r3, r5
    265e:	932c      	str	r3, [sp, #176]	; 0xb0
    2660:	9b2b      	ldr	r3, [sp, #172]	; 0xac
    2662:	607d      	str	r5, [r7, #4]
    2664:	9306      	str	r3, [sp, #24]
    2666:	3301      	adds	r3, #1
    2668:	932b      	str	r3, [sp, #172]	; 0xac
    266a:	2b07      	cmp	r3, #7
    266c:	dc10      	bgt.n	2690 <_vfprintf_r+0x1b4>
    266e:	3708      	adds	r7, #8
    2670:	9b09      	ldr	r3, [sp, #36]	; 0x24
    2672:	469c      	mov	ip, r3
    2674:	44ac      	add	ip, r5
    2676:	4663      	mov	r3, ip
    2678:	9309      	str	r3, [sp, #36]	; 0x24
    267a:	e792      	b.n	25a2 <_vfprintf_r+0xc6>
    267c:	464b      	mov	r3, r9
    267e:	6d98      	ldr	r0, [r3, #88]	; 0x58
    2680:	f003 f95e 	bl	5940 <__retarget_lock_acquire_recursive>
    2684:	464b      	mov	r3, r9
    2686:	210c      	movs	r1, #12
    2688:	5e59      	ldrsh	r1, [r3, r1]
    268a:	464b      	mov	r3, r9
    268c:	899b      	ldrh	r3, [r3, #12]
    268e:	e74d      	b.n	252c <_vfprintf_r+0x50>
    2690:	4641      	mov	r1, r8
    2692:	4658      	mov	r0, fp
    2694:	aa2a      	add	r2, sp, #168	; 0xa8
    2696:	f004 fa19 	bl	6acc <__sprint_r>
    269a:	2800      	cmp	r0, #0
    269c:	d001      	beq.n	26a2 <_vfprintf_r+0x1c6>
    269e:	f001 fca0 	bl	3fe2 <_vfprintf_r+0x1b06>
    26a2:	af2d      	add	r7, sp, #180	; 0xb4
    26a4:	e7e4      	b.n	2670 <_vfprintf_r+0x194>
    26a6:	46a2      	mov	sl, r4
    26a8:	46ab      	mov	fp, r5
    26aa:	9312      	str	r3, [sp, #72]	; 0x48
    26ac:	2b00      	cmp	r3, #0
    26ae:	d100      	bne.n	26b2 <_vfprintf_r+0x1d6>
    26b0:	e090      	b.n	27d4 <_vfprintf_r+0x2f8>
    26b2:	ae3d      	add	r6, sp, #244	; 0xf4
    26b4:	7033      	strb	r3, [r6, #0]
    26b6:	2300      	movs	r3, #0
    26b8:	aa1c      	add	r2, sp, #112	; 0x70
    26ba:	76d3      	strb	r3, [r2, #27]
    26bc:	2200      	movs	r2, #0
    26be:	920e      	str	r2, [sp, #56]	; 0x38
    26c0:	3201      	adds	r2, #1
    26c2:	3301      	adds	r3, #1
    26c4:	920b      	str	r2, [sp, #44]	; 0x2c
    26c6:	2200      	movs	r2, #0
    26c8:	9307      	str	r3, [sp, #28]
    26ca:	2300      	movs	r3, #0
    26cc:	9208      	str	r2, [sp, #32]
    26ce:	9218      	str	r2, [sp, #96]	; 0x60
    26d0:	9213      	str	r2, [sp, #76]	; 0x4c
    26d2:	9214      	str	r2, [sp, #80]	; 0x50
    26d4:	2202      	movs	r2, #2
    26d6:	4651      	mov	r1, sl
    26d8:	4011      	ands	r1, r2
    26da:	9110      	str	r1, [sp, #64]	; 0x40
    26dc:	4651      	mov	r1, sl
    26de:	420a      	tst	r2, r1
    26e0:	d002      	beq.n	26e8 <_vfprintf_r+0x20c>
    26e2:	9a07      	ldr	r2, [sp, #28]
    26e4:	3202      	adds	r2, #2
    26e6:	9207      	str	r2, [sp, #28]
    26e8:	2284      	movs	r2, #132	; 0x84
    26ea:	4651      	mov	r1, sl
    26ec:	4011      	ands	r1, r2
    26ee:	9111      	str	r1, [sp, #68]	; 0x44
    26f0:	4651      	mov	r1, sl
    26f2:	420a      	tst	r2, r1
    26f4:	d105      	bne.n	2702 <_vfprintf_r+0x226>
    26f6:	9a0a      	ldr	r2, [sp, #40]	; 0x28
    26f8:	9907      	ldr	r1, [sp, #28]
    26fa:	1a54      	subs	r4, r2, r1
    26fc:	2c00      	cmp	r4, #0
    26fe:	dd00      	ble.n	2702 <_vfprintf_r+0x226>
    2700:	e0cd      	b.n	289e <_vfprintf_r+0x3c2>
    2702:	9c2c      	ldr	r4, [sp, #176]	; 0xb0
    2704:	2b00      	cmp	r3, #0
    2706:	d011      	beq.n	272c <_vfprintf_r+0x250>
    2708:	aa1c      	add	r2, sp, #112	; 0x70
    270a:	231b      	movs	r3, #27
    270c:	4694      	mov	ip, r2
    270e:	4463      	add	r3, ip
    2710:	603b      	str	r3, [r7, #0]
    2712:	2301      	movs	r3, #1
    2714:	607b      	str	r3, [r7, #4]
    2716:	9b2b      	ldr	r3, [sp, #172]	; 0xac
    2718:	3401      	adds	r4, #1
    271a:	9319      	str	r3, [sp, #100]	; 0x64
    271c:	3301      	adds	r3, #1
    271e:	942c      	str	r4, [sp, #176]	; 0xb0
    2720:	932b      	str	r3, [sp, #172]	; 0xac
    2722:	2b07      	cmp	r3, #7
    2724:	dd01      	ble.n	272a <_vfprintf_r+0x24e>
    2726:	f000 fc59 	bl	2fdc <_vfprintf_r+0xb00>
    272a:	3708      	adds	r7, #8
    272c:	9b10      	ldr	r3, [sp, #64]	; 0x40
    272e:	2b00      	cmp	r3, #0
    2730:	d00e      	beq.n	2750 <_vfprintf_r+0x274>
    2732:	ab23      	add	r3, sp, #140	; 0x8c
    2734:	603b      	str	r3, [r7, #0]
    2736:	2302      	movs	r3, #2
    2738:	607b      	str	r3, [r7, #4]
    273a:	9b2b      	ldr	r3, [sp, #172]	; 0xac
    273c:	3402      	adds	r4, #2
    273e:	9310      	str	r3, [sp, #64]	; 0x40
    2740:	3301      	adds	r3, #1
    2742:	942c      	str	r4, [sp, #176]	; 0xb0
    2744:	932b      	str	r3, [sp, #172]	; 0xac
    2746:	2b07      	cmp	r3, #7
    2748:	dd01      	ble.n	274e <_vfprintf_r+0x272>
    274a:	f000 fc3c 	bl	2fc6 <_vfprintf_r+0xaea>
    274e:	3708      	adds	r7, #8
    2750:	9b11      	ldr	r3, [sp, #68]	; 0x44
    2752:	2b80      	cmp	r3, #128	; 0x80
    2754:	d100      	bne.n	2758 <_vfprintf_r+0x27c>
    2756:	e373      	b.n	2e40 <_vfprintf_r+0x964>
    2758:	9b08      	ldr	r3, [sp, #32]
    275a:	9a0b      	ldr	r2, [sp, #44]	; 0x2c
    275c:	1a9d      	subs	r5, r3, r2
    275e:	2d00      	cmp	r5, #0
    2760:	dd00      	ble.n	2764 <_vfprintf_r+0x288>
    2762:	e3ad      	b.n	2ec0 <_vfprintf_r+0x9e4>
    2764:	4653      	mov	r3, sl
    2766:	05db      	lsls	r3, r3, #23
    2768:	d500      	bpl.n	276c <_vfprintf_r+0x290>
    276a:	e30e      	b.n	2d8a <_vfprintf_r+0x8ae>
    276c:	9b0b      	ldr	r3, [sp, #44]	; 0x2c
    276e:	603e      	str	r6, [r7, #0]
    2770:	469c      	mov	ip, r3
    2772:	607b      	str	r3, [r7, #4]
    2774:	9b2b      	ldr	r3, [sp, #172]	; 0xac
    2776:	4464      	add	r4, ip
    2778:	9308      	str	r3, [sp, #32]
    277a:	3301      	adds	r3, #1
    277c:	942c      	str	r4, [sp, #176]	; 0xb0
    277e:	932b      	str	r3, [sp, #172]	; 0xac
    2780:	2b07      	cmp	r3, #7
    2782:	dd00      	ble.n	2786 <_vfprintf_r+0x2aa>
    2784:	e115      	b.n	29b2 <_vfprintf_r+0x4d6>
    2786:	3708      	adds	r7, #8
    2788:	4653      	mov	r3, sl
    278a:	075b      	lsls	r3, r3, #29
    278c:	d506      	bpl.n	279c <_vfprintf_r+0x2c0>
    278e:	9b0a      	ldr	r3, [sp, #40]	; 0x28
    2790:	9a07      	ldr	r2, [sp, #28]
    2792:	1a9e      	subs	r6, r3, r2
    2794:	2e00      	cmp	r6, #0
    2796:	dd01      	ble.n	279c <_vfprintf_r+0x2c0>
    2798:	f000 fc2b 	bl	2ff2 <_vfprintf_r+0xb16>
    279c:	9b0a      	ldr	r3, [sp, #40]	; 0x28
    279e:	9a07      	ldr	r2, [sp, #28]
    27a0:	4293      	cmp	r3, r2
    27a2:	da00      	bge.n	27a6 <_vfprintf_r+0x2ca>
    27a4:	0013      	movs	r3, r2
    27a6:	9a09      	ldr	r2, [sp, #36]	; 0x24
    27a8:	4694      	mov	ip, r2
    27aa:	449c      	add	ip, r3
    27ac:	4663      	mov	r3, ip
    27ae:	9309      	str	r3, [sp, #36]	; 0x24
    27b0:	2c00      	cmp	r4, #0
    27b2:	d000      	beq.n	27b6 <_vfprintf_r+0x2da>
    27b4:	e3c1      	b.n	2f3a <_vfprintf_r+0xa5e>
    27b6:	2300      	movs	r3, #0
    27b8:	932b      	str	r3, [sp, #172]	; 0xac
    27ba:	9b0e      	ldr	r3, [sp, #56]	; 0x38
    27bc:	2b00      	cmp	r3, #0
    27be:	d003      	beq.n	27c8 <_vfprintf_r+0x2ec>
    27c0:	4658      	mov	r0, fp
    27c2:	990e      	ldr	r1, [sp, #56]	; 0x38
    27c4:	f002 ffae 	bl	5724 <_free_r>
    27c8:	9e06      	ldr	r6, [sp, #24]
    27ca:	af2d      	add	r7, sp, #180	; 0xb4
    27cc:	7833      	ldrb	r3, [r6, #0]
    27ce:	2b00      	cmp	r3, #0
    27d0:	d000      	beq.n	27d4 <_vfprintf_r+0x2f8>
    27d2:	e6db      	b.n	258c <_vfprintf_r+0xb0>
    27d4:	9b2c      	ldr	r3, [sp, #176]	; 0xb0
    27d6:	46c1      	mov	r9, r8
    27d8:	9306      	str	r3, [sp, #24]
    27da:	2b00      	cmp	r3, #0
    27dc:	d001      	beq.n	27e2 <_vfprintf_r+0x306>
    27de:	f001 f846 	bl	386e <_vfprintf_r+0x1392>
    27e2:	2300      	movs	r3, #0
    27e4:	932b      	str	r3, [sp, #172]	; 0xac
    27e6:	e3b7      	b.n	2f58 <_vfprintf_r+0xa7c>
    27e8:	3b30      	subs	r3, #48	; 0x30
    27ea:	2000      	movs	r0, #0
    27ec:	001a      	movs	r2, r3
    27ee:	9906      	ldr	r1, [sp, #24]
    27f0:	0083      	lsls	r3, r0, #2
    27f2:	1818      	adds	r0, r3, r0
    27f4:	000b      	movs	r3, r1
    27f6:	781b      	ldrb	r3, [r3, #0]
    27f8:	0040      	lsls	r0, r0, #1
    27fa:	1810      	adds	r0, r2, r0
    27fc:	001a      	movs	r2, r3
    27fe:	3a30      	subs	r2, #48	; 0x30
    2800:	3101      	adds	r1, #1
    2802:	2a09      	cmp	r2, #9
    2804:	d9f4      	bls.n	27f0 <_vfprintf_r+0x314>
    2806:	9106      	str	r1, [sp, #24]
    2808:	900a      	str	r0, [sp, #40]	; 0x28
    280a:	e6de      	b.n	25ca <_vfprintf_r+0xee>
    280c:	9312      	str	r3, [sp, #72]	; 0x48
    280e:	2307      	movs	r3, #7
    2810:	46a2      	mov	sl, r4
    2812:	9c0f      	ldr	r4, [sp, #60]	; 0x3c
    2814:	46ab      	mov	fp, r5
    2816:	3407      	adds	r4, #7
    2818:	439c      	bics	r4, r3
    281a:	0022      	movs	r2, r4
    281c:	ca18      	ldmia	r2!, {r3, r4}
    281e:	9316      	str	r3, [sp, #88]	; 0x58
    2820:	9417      	str	r4, [sp, #92]	; 0x5c
    2822:	9b16      	ldr	r3, [sp, #88]	; 0x58
    2824:	9c17      	ldr	r4, [sp, #92]	; 0x5c
    2826:	920f      	str	r2, [sp, #60]	; 0x3c
    2828:	001d      	movs	r5, r3
    282a:	2201      	movs	r2, #1
    282c:	0064      	lsls	r4, r4, #1
    282e:	0864      	lsrs	r4, r4, #1
    2830:	0028      	movs	r0, r5
    2832:	0021      	movs	r1, r4
    2834:	4b22      	ldr	r3, [pc, #136]	; (28c0 <_vfprintf_r+0x3e4>)
    2836:	4252      	negs	r2, r2
    2838:	f7ff fbde 	bl	1ff8 <__aeabi_dcmpun>
    283c:	2800      	cmp	r0, #0
    283e:	d001      	beq.n	2844 <_vfprintf_r+0x368>
    2840:	f000 fd98 	bl	3374 <_vfprintf_r+0xe98>
    2844:	2201      	movs	r2, #1
    2846:	0028      	movs	r0, r5
    2848:	0021      	movs	r1, r4
    284a:	4b1d      	ldr	r3, [pc, #116]	; (28c0 <_vfprintf_r+0x3e4>)
    284c:	4252      	negs	r2, r2
    284e:	f7fd fd8d 	bl	36c <__aeabi_dcmple>
    2852:	2800      	cmp	r0, #0
    2854:	d001      	beq.n	285a <_vfprintf_r+0x37e>
    2856:	f000 fd8d 	bl	3374 <_vfprintf_r+0xe98>
    285a:	9816      	ldr	r0, [sp, #88]	; 0x58
    285c:	9917      	ldr	r1, [sp, #92]	; 0x5c
    285e:	2200      	movs	r2, #0
    2860:	2300      	movs	r3, #0
    2862:	f7fd fd79 	bl	358 <__aeabi_dcmplt>
    2866:	2800      	cmp	r0, #0
    2868:	d001      	beq.n	286e <_vfprintf_r+0x392>
    286a:	f000 fffb 	bl	3864 <_vfprintf_r+0x1388>
    286e:	ab1c      	add	r3, sp, #112	; 0x70
    2870:	7edb      	ldrb	r3, [r3, #27]
    2872:	9a12      	ldr	r2, [sp, #72]	; 0x48
    2874:	2a47      	cmp	r2, #71	; 0x47
    2876:	dc01      	bgt.n	287c <_vfprintf_r+0x3a0>
    2878:	f000 ffe1 	bl	383e <_vfprintf_r+0x1362>
    287c:	4e11      	ldr	r6, [pc, #68]	; (28c4 <_vfprintf_r+0x3e8>)
    287e:	2280      	movs	r2, #128	; 0x80
    2880:	4651      	mov	r1, sl
    2882:	4391      	bics	r1, r2
    2884:	3a7d      	subs	r2, #125	; 0x7d
    2886:	9207      	str	r2, [sp, #28]
    2888:	2200      	movs	r2, #0
    288a:	468a      	mov	sl, r1
    288c:	920e      	str	r2, [sp, #56]	; 0x38
    288e:	3203      	adds	r2, #3
    2890:	920b      	str	r2, [sp, #44]	; 0x2c
    2892:	2200      	movs	r2, #0
    2894:	9208      	str	r2, [sp, #32]
    2896:	9218      	str	r2, [sp, #96]	; 0x60
    2898:	9213      	str	r2, [sp, #76]	; 0x4c
    289a:	9214      	str	r2, [sp, #80]	; 0x50
    289c:	e168      	b.n	2b70 <_vfprintf_r+0x694>
    289e:	9a2c      	ldr	r2, [sp, #176]	; 0xb0
    28a0:	9b2b      	ldr	r3, [sp, #172]	; 0xac
    28a2:	4d09      	ldr	r5, [pc, #36]	; (28c8 <_vfprintf_r+0x3ec>)
    28a4:	2c10      	cmp	r4, #16
    28a6:	dd31      	ble.n	290c <_vfprintf_r+0x430>
    28a8:	2110      	movs	r1, #16
    28aa:	4689      	mov	r9, r1
    28ac:	0039      	movs	r1, r7
    28ae:	4647      	mov	r7, r8
    28b0:	46b0      	mov	r8, r6
    28b2:	465e      	mov	r6, fp
    28b4:	e00e      	b.n	28d4 <_vfprintf_r+0x3f8>
    28b6:	46c0      	nop			; (mov r8, r8)
    28b8:	ffffdfff 	.word	0xffffdfff
    28bc:	000086bc 	.word	0x000086bc
    28c0:	7fefffff 	.word	0x7fefffff
    28c4:	0000867c 	.word	0x0000867c
    28c8:	00008828 	.word	0x00008828
    28cc:	3c10      	subs	r4, #16
    28ce:	3108      	adds	r1, #8
    28d0:	2c10      	cmp	r4, #16
    28d2:	dd17      	ble.n	2904 <_vfprintf_r+0x428>
    28d4:	4648      	mov	r0, r9
    28d6:	3210      	adds	r2, #16
    28d8:	3301      	adds	r3, #1
    28da:	600d      	str	r5, [r1, #0]
    28dc:	6048      	str	r0, [r1, #4]
    28de:	922c      	str	r2, [sp, #176]	; 0xb0
    28e0:	932b      	str	r3, [sp, #172]	; 0xac
    28e2:	2b07      	cmp	r3, #7
    28e4:	ddf2      	ble.n	28cc <_vfprintf_r+0x3f0>
    28e6:	0039      	movs	r1, r7
    28e8:	0030      	movs	r0, r6
    28ea:	aa2a      	add	r2, sp, #168	; 0xa8
    28ec:	f004 f8ee 	bl	6acc <__sprint_r>
    28f0:	2800      	cmp	r0, #0
    28f2:	d001      	beq.n	28f8 <_vfprintf_r+0x41c>
    28f4:	f000 fee5 	bl	36c2 <_vfprintf_r+0x11e6>
    28f8:	3c10      	subs	r4, #16
    28fa:	9a2c      	ldr	r2, [sp, #176]	; 0xb0
    28fc:	9b2b      	ldr	r3, [sp, #172]	; 0xac
    28fe:	a92d      	add	r1, sp, #180	; 0xb4
    2900:	2c10      	cmp	r4, #16
    2902:	dce7      	bgt.n	28d4 <_vfprintf_r+0x3f8>
    2904:	46b3      	mov	fp, r6
    2906:	4646      	mov	r6, r8
    2908:	46b8      	mov	r8, r7
    290a:	000f      	movs	r7, r1
    290c:	607c      	str	r4, [r7, #4]
    290e:	3301      	adds	r3, #1
    2910:	18a4      	adds	r4, r4, r2
    2912:	603d      	str	r5, [r7, #0]
    2914:	942c      	str	r4, [sp, #176]	; 0xb0
    2916:	932b      	str	r3, [sp, #172]	; 0xac
    2918:	2b07      	cmp	r3, #7
    291a:	dd01      	ble.n	2920 <_vfprintf_r+0x444>
    291c:	f000 fec3 	bl	36a6 <_vfprintf_r+0x11ca>
    2920:	ab1c      	add	r3, sp, #112	; 0x70
    2922:	7edb      	ldrb	r3, [r3, #27]
    2924:	3708      	adds	r7, #8
    2926:	e6ed      	b.n	2704 <_vfprintf_r+0x228>
    2928:	9b15      	ldr	r3, [sp, #84]	; 0x54
    292a:	603e      	str	r6, [r7, #0]
    292c:	2b01      	cmp	r3, #1
    292e:	dc01      	bgt.n	2934 <_vfprintf_r+0x458>
    2930:	f000 fc1d 	bl	316e <_vfprintf_r+0xc92>
    2934:	2301      	movs	r3, #1
    2936:	607b      	str	r3, [r7, #4]
    2938:	9b2b      	ldr	r3, [sp, #172]	; 0xac
    293a:	3401      	adds	r4, #1
    293c:	1c5d      	adds	r5, r3, #1
    293e:	942c      	str	r4, [sp, #176]	; 0xb0
    2940:	9308      	str	r3, [sp, #32]
    2942:	952b      	str	r5, [sp, #172]	; 0xac
    2944:	2d07      	cmp	r5, #7
    2946:	dd01      	ble.n	294c <_vfprintf_r+0x470>
    2948:	f000 fe93 	bl	3672 <_vfprintf_r+0x1196>
    294c:	3708      	adds	r7, #8
    294e:	9b1c      	ldr	r3, [sp, #112]	; 0x70
    2950:	3501      	adds	r5, #1
    2952:	603b      	str	r3, [r7, #0]
    2954:	9b1b      	ldr	r3, [sp, #108]	; 0x6c
    2956:	952b      	str	r5, [sp, #172]	; 0xac
    2958:	469c      	mov	ip, r3
    295a:	4464      	add	r4, ip
    295c:	607b      	str	r3, [r7, #4]
    295e:	942c      	str	r4, [sp, #176]	; 0xb0
    2960:	2d07      	cmp	r5, #7
    2962:	dd01      	ble.n	2968 <_vfprintf_r+0x48c>
    2964:	f000 fe92 	bl	368c <_vfprintf_r+0x11b0>
    2968:	3708      	adds	r7, #8
    296a:	2200      	movs	r2, #0
    296c:	9816      	ldr	r0, [sp, #88]	; 0x58
    296e:	9917      	ldr	r1, [sp, #92]	; 0x5c
    2970:	2300      	movs	r3, #0
    2972:	f7fd fceb 	bl	34c <__aeabi_dcmpeq>
    2976:	2800      	cmp	r0, #0
    2978:	d001      	beq.n	297e <_vfprintf_r+0x4a2>
    297a:	f000 fc16 	bl	31aa <_vfprintf_r+0xcce>
    297e:	9b15      	ldr	r3, [sp, #84]	; 0x54
    2980:	3601      	adds	r6, #1
    2982:	3b01      	subs	r3, #1
    2984:	18e4      	adds	r4, r4, r3
    2986:	3501      	adds	r5, #1
    2988:	603e      	str	r6, [r7, #0]
    298a:	607b      	str	r3, [r7, #4]
    298c:	942c      	str	r4, [sp, #176]	; 0xb0
    298e:	952b      	str	r5, [sp, #172]	; 0xac
    2990:	2d07      	cmp	r5, #7
    2992:	dd01      	ble.n	2998 <_vfprintf_r+0x4bc>
    2994:	f000 fbfc 	bl	3190 <_vfprintf_r+0xcb4>
    2998:	3708      	adds	r7, #8
    299a:	ab26      	add	r3, sp, #152	; 0x98
    299c:	603b      	str	r3, [r7, #0]
    299e:	9b1e      	ldr	r3, [sp, #120]	; 0x78
    29a0:	3501      	adds	r5, #1
    29a2:	469c      	mov	ip, r3
    29a4:	4464      	add	r4, ip
    29a6:	607b      	str	r3, [r7, #4]
    29a8:	942c      	str	r4, [sp, #176]	; 0xb0
    29aa:	952b      	str	r5, [sp, #172]	; 0xac
    29ac:	2d07      	cmp	r5, #7
    29ae:	dc00      	bgt.n	29b2 <_vfprintf_r+0x4d6>
    29b0:	e6e9      	b.n	2786 <_vfprintf_r+0x2aa>
    29b2:	4641      	mov	r1, r8
    29b4:	4658      	mov	r0, fp
    29b6:	aa2a      	add	r2, sp, #168	; 0xa8
    29b8:	f004 f888 	bl	6acc <__sprint_r>
    29bc:	2800      	cmp	r0, #0
    29be:	d000      	beq.n	29c2 <_vfprintf_r+0x4e6>
    29c0:	e2c3      	b.n	2f4a <_vfprintf_r+0xa6e>
    29c2:	9c2c      	ldr	r4, [sp, #176]	; 0xb0
    29c4:	af2d      	add	r7, sp, #180	; 0xb4
    29c6:	e6df      	b.n	2788 <_vfprintf_r+0x2ac>
    29c8:	4658      	mov	r0, fp
    29ca:	f002 fdbd 	bl	5548 <__sinit>
    29ce:	e5a0      	b.n	2512 <_vfprintf_r+0x36>
    29d0:	2320      	movs	r3, #32
    29d2:	431c      	orrs	r4, r3
    29d4:	9b06      	ldr	r3, [sp, #24]
    29d6:	781b      	ldrb	r3, [r3, #0]
    29d8:	e5f4      	b.n	25c4 <_vfprintf_r+0xe8>
    29da:	9312      	str	r3, [sp, #72]	; 0x48
    29dc:	2300      	movs	r3, #0
    29de:	46a2      	mov	sl, r4
    29e0:	9c0f      	ldr	r4, [sp, #60]	; 0x3c
    29e2:	aa1c      	add	r2, sp, #112	; 0x70
    29e4:	cc40      	ldmia	r4!, {r6}
    29e6:	46ab      	mov	fp, r5
    29e8:	76d3      	strb	r3, [r2, #27]
    29ea:	2e00      	cmp	r6, #0
    29ec:	d101      	bne.n	29f2 <_vfprintf_r+0x516>
    29ee:	f000 fe0b 	bl	3608 <_vfprintf_r+0x112c>
    29f2:	9a08      	ldr	r2, [sp, #32]
    29f4:	1c53      	adds	r3, r2, #1
    29f6:	d101      	bne.n	29fc <_vfprintf_r+0x520>
    29f8:	f000 fe9c 	bl	3734 <_vfprintf_r+0x1258>
    29fc:	2100      	movs	r1, #0
    29fe:	0030      	movs	r0, r6
    2a00:	f003 fad6 	bl	5fb0 <memchr>
    2a04:	900e      	str	r0, [sp, #56]	; 0x38
    2a06:	2800      	cmp	r0, #0
    2a08:	d101      	bne.n	2a0e <_vfprintf_r+0x532>
    2a0a:	f001 f9bd 	bl	3d88 <_vfprintf_r+0x18ac>
    2a0e:	9b0e      	ldr	r3, [sp, #56]	; 0x38
    2a10:	1b99      	subs	r1, r3, r6
    2a12:	43ca      	mvns	r2, r1
    2a14:	17d2      	asrs	r2, r2, #31
    2a16:	910b      	str	r1, [sp, #44]	; 0x2c
    2a18:	4011      	ands	r1, r2
    2a1a:	2200      	movs	r2, #0
    2a1c:	ab1c      	add	r3, sp, #112	; 0x70
    2a1e:	7edb      	ldrb	r3, [r3, #27]
    2a20:	9107      	str	r1, [sp, #28]
    2a22:	940f      	str	r4, [sp, #60]	; 0x3c
    2a24:	920e      	str	r2, [sp, #56]	; 0x38
    2a26:	9208      	str	r2, [sp, #32]
    2a28:	9218      	str	r2, [sp, #96]	; 0x60
    2a2a:	9213      	str	r2, [sp, #76]	; 0x4c
    2a2c:	9214      	str	r2, [sp, #80]	; 0x50
    2a2e:	e09f      	b.n	2b70 <_vfprintf_r+0x694>
    2a30:	46a2      	mov	sl, r4
    2a32:	9c0f      	ldr	r4, [sp, #60]	; 0x3c
    2a34:	9312      	str	r3, [sp, #72]	; 0x48
    2a36:	cc08      	ldmia	r4!, {r3}
    2a38:	ae3d      	add	r6, sp, #244	; 0xf4
    2a3a:	7033      	strb	r3, [r6, #0]
    2a3c:	2300      	movs	r3, #0
    2a3e:	aa1c      	add	r2, sp, #112	; 0x70
    2a40:	46ab      	mov	fp, r5
    2a42:	76d3      	strb	r3, [r2, #27]
    2a44:	940f      	str	r4, [sp, #60]	; 0x3c
    2a46:	e639      	b.n	26bc <_vfprintf_r+0x1e0>
    2a48:	9a0f      	ldr	r2, [sp, #60]	; 0x3c
    2a4a:	ca08      	ldmia	r2!, {r3}
    2a4c:	930a      	str	r3, [sp, #40]	; 0x28
    2a4e:	2b00      	cmp	r3, #0
    2a50:	db01      	blt.n	2a56 <_vfprintf_r+0x57a>
    2a52:	f000 fc15 	bl	3280 <_vfprintf_r+0xda4>
    2a56:	9b0a      	ldr	r3, [sp, #40]	; 0x28
    2a58:	920f      	str	r2, [sp, #60]	; 0x3c
    2a5a:	425b      	negs	r3, r3
    2a5c:	930a      	str	r3, [sp, #40]	; 0x28
    2a5e:	2304      	movs	r3, #4
    2a60:	431c      	orrs	r4, r3
    2a62:	9b06      	ldr	r3, [sp, #24]
    2a64:	781b      	ldrb	r3, [r3, #0]
    2a66:	e5ad      	b.n	25c4 <_vfprintf_r+0xe8>
    2a68:	232b      	movs	r3, #43	; 0x2b
    2a6a:	aa1c      	add	r2, sp, #112	; 0x70
    2a6c:	76d3      	strb	r3, [r2, #27]
    2a6e:	9b06      	ldr	r3, [sp, #24]
    2a70:	781b      	ldrb	r3, [r3, #0]
    2a72:	e5a7      	b.n	25c4 <_vfprintf_r+0xe8>
    2a74:	2380      	movs	r3, #128	; 0x80
    2a76:	431c      	orrs	r4, r3
    2a78:	9b06      	ldr	r3, [sp, #24]
    2a7a:	781b      	ldrb	r3, [r3, #0]
    2a7c:	e5a2      	b.n	25c4 <_vfprintf_r+0xe8>
    2a7e:	9b06      	ldr	r3, [sp, #24]
    2a80:	1c58      	adds	r0, r3, #1
    2a82:	781b      	ldrb	r3, [r3, #0]
    2a84:	2b2a      	cmp	r3, #42	; 0x2a
    2a86:	d101      	bne.n	2a8c <_vfprintf_r+0x5b0>
    2a88:	f001 fb1d 	bl	40c6 <_vfprintf_r+0x1bea>
    2a8c:	001a      	movs	r2, r3
    2a8e:	2100      	movs	r1, #0
    2a90:	3a30      	subs	r2, #48	; 0x30
    2a92:	4684      	mov	ip, r0
    2a94:	9108      	str	r1, [sp, #32]
    2a96:	2a09      	cmp	r2, #9
    2a98:	d901      	bls.n	2a9e <_vfprintf_r+0x5c2>
    2a9a:	f001 f9af 	bl	3dfc <_vfprintf_r+0x1920>
    2a9e:	2000      	movs	r0, #0
    2aa0:	4661      	mov	r1, ip
    2aa2:	0083      	lsls	r3, r0, #2
    2aa4:	1818      	adds	r0, r3, r0
    2aa6:	000b      	movs	r3, r1
    2aa8:	781b      	ldrb	r3, [r3, #0]
    2aaa:	0040      	lsls	r0, r0, #1
    2aac:	1880      	adds	r0, r0, r2
    2aae:	001a      	movs	r2, r3
    2ab0:	3a30      	subs	r2, #48	; 0x30
    2ab2:	3101      	adds	r1, #1
    2ab4:	2a09      	cmp	r2, #9
    2ab6:	d9f4      	bls.n	2aa2 <_vfprintf_r+0x5c6>
    2ab8:	9106      	str	r1, [sp, #24]
    2aba:	9008      	str	r0, [sp, #32]
    2abc:	e585      	b.n	25ca <_vfprintf_r+0xee>
    2abe:	2301      	movs	r3, #1
    2ac0:	431c      	orrs	r4, r3
    2ac2:	9b06      	ldr	r3, [sp, #24]
    2ac4:	781b      	ldrb	r3, [r3, #0]
    2ac6:	e57d      	b.n	25c4 <_vfprintf_r+0xe8>
    2ac8:	ab1c      	add	r3, sp, #112	; 0x70
    2aca:	7edb      	ldrb	r3, [r3, #27]
    2acc:	2b00      	cmp	r3, #0
    2ace:	d000      	beq.n	2ad2 <_vfprintf_r+0x5f6>
    2ad0:	e5bb      	b.n	264a <_vfprintf_r+0x16e>
    2ad2:	2320      	movs	r3, #32
    2ad4:	aa1c      	add	r2, sp, #112	; 0x70
    2ad6:	76d3      	strb	r3, [r2, #27]
    2ad8:	9b06      	ldr	r3, [sp, #24]
    2ada:	781b      	ldrb	r3, [r3, #0]
    2adc:	e572      	b.n	25c4 <_vfprintf_r+0xe8>
    2ade:	9b06      	ldr	r3, [sp, #24]
    2ae0:	781b      	ldrb	r3, [r3, #0]
    2ae2:	2b68      	cmp	r3, #104	; 0x68
    2ae4:	d101      	bne.n	2aea <_vfprintf_r+0x60e>
    2ae6:	f000 fd80 	bl	35ea <_vfprintf_r+0x110e>
    2aea:	2240      	movs	r2, #64	; 0x40
    2aec:	4314      	orrs	r4, r2
    2aee:	e569      	b.n	25c4 <_vfprintf_r+0xe8>
    2af0:	46a2      	mov	sl, r4
    2af2:	9312      	str	r3, [sp, #72]	; 0x48
    2af4:	2410      	movs	r4, #16
    2af6:	4653      	mov	r3, sl
    2af8:	4323      	orrs	r3, r4
    2afa:	46ab      	mov	fp, r5
    2afc:	001c      	movs	r4, r3
    2afe:	06a3      	lsls	r3, r4, #26
    2b00:	d400      	bmi.n	2b04 <_vfprintf_r+0x628>
    2b02:	e38f      	b.n	3224 <_vfprintf_r+0xd48>
    2b04:	2207      	movs	r2, #7
    2b06:	9b0f      	ldr	r3, [sp, #60]	; 0x3c
    2b08:	3307      	adds	r3, #7
    2b0a:	4393      	bics	r3, r2
    2b0c:	0019      	movs	r1, r3
    2b0e:	c90c      	ldmia	r1!, {r2, r3}
    2b10:	920c      	str	r2, [sp, #48]	; 0x30
    2b12:	930d      	str	r3, [sp, #52]	; 0x34
    2b14:	2301      	movs	r3, #1
    2b16:	910f      	str	r1, [sp, #60]	; 0x3c
    2b18:	2200      	movs	r2, #0
    2b1a:	a91c      	add	r1, sp, #112	; 0x70
    2b1c:	76ca      	strb	r2, [r1, #27]
    2b1e:	9808      	ldr	r0, [sp, #32]
    2b20:	1c42      	adds	r2, r0, #1
    2b22:	d100      	bne.n	2b26 <_vfprintf_r+0x64a>
    2b24:	e0c6      	b.n	2cb4 <_vfprintf_r+0x7d8>
    2b26:	2280      	movs	r2, #128	; 0x80
    2b28:	0021      	movs	r1, r4
    2b2a:	4391      	bics	r1, r2
    2b2c:	468a      	mov	sl, r1
    2b2e:	990c      	ldr	r1, [sp, #48]	; 0x30
    2b30:	9a0d      	ldr	r2, [sp, #52]	; 0x34
    2b32:	000d      	movs	r5, r1
    2b34:	4315      	orrs	r5, r2
    2b36:	d000      	beq.n	2b3a <_vfprintf_r+0x65e>
    2b38:	e0bb      	b.n	2cb2 <_vfprintf_r+0x7d6>
    2b3a:	2800      	cmp	r0, #0
    2b3c:	d001      	beq.n	2b42 <_vfprintf_r+0x666>
    2b3e:	f000 fdea 	bl	3716 <_vfprintf_r+0x123a>
    2b42:	2b00      	cmp	r3, #0
    2b44:	d162      	bne.n	2c0c <_vfprintf_r+0x730>
    2b46:	3301      	adds	r3, #1
    2b48:	001a      	movs	r2, r3
    2b4a:	4022      	ands	r2, r4
    2b4c:	920b      	str	r2, [sp, #44]	; 0x2c
    2b4e:	ae56      	add	r6, sp, #344	; 0x158
    2b50:	4223      	tst	r3, r4
    2b52:	d000      	beq.n	2b56 <_vfprintf_r+0x67a>
    2b54:	e3c4      	b.n	32e0 <_vfprintf_r+0xe04>
    2b56:	9a08      	ldr	r2, [sp, #32]
    2b58:	990b      	ldr	r1, [sp, #44]	; 0x2c
    2b5a:	ab1c      	add	r3, sp, #112	; 0x70
    2b5c:	7edb      	ldrb	r3, [r3, #27]
    2b5e:	9207      	str	r2, [sp, #28]
    2b60:	428a      	cmp	r2, r1
    2b62:	da00      	bge.n	2b66 <_vfprintf_r+0x68a>
    2b64:	9107      	str	r1, [sp, #28]
    2b66:	2200      	movs	r2, #0
    2b68:	920e      	str	r2, [sp, #56]	; 0x38
    2b6a:	9218      	str	r2, [sp, #96]	; 0x60
    2b6c:	9213      	str	r2, [sp, #76]	; 0x4c
    2b6e:	9214      	str	r2, [sp, #80]	; 0x50
    2b70:	2b00      	cmp	r3, #0
    2b72:	d100      	bne.n	2b76 <_vfprintf_r+0x69a>
    2b74:	e5ae      	b.n	26d4 <_vfprintf_r+0x1f8>
    2b76:	9a07      	ldr	r2, [sp, #28]
    2b78:	3201      	adds	r2, #1
    2b7a:	9207      	str	r2, [sp, #28]
    2b7c:	e5aa      	b.n	26d4 <_vfprintf_r+0x1f8>
    2b7e:	0022      	movs	r2, r4
    2b80:	9312      	str	r3, [sp, #72]	; 0x48
    2b82:	2310      	movs	r3, #16
    2b84:	431a      	orrs	r2, r3
    2b86:	46ab      	mov	fp, r5
    2b88:	4692      	mov	sl, r2
    2b8a:	4653      	mov	r3, sl
    2b8c:	069b      	lsls	r3, r3, #26
    2b8e:	d400      	bmi.n	2b92 <_vfprintf_r+0x6b6>
    2b90:	e33d      	b.n	320e <_vfprintf_r+0xd32>
    2b92:	2307      	movs	r3, #7
    2b94:	9c0f      	ldr	r4, [sp, #60]	; 0x3c
    2b96:	3407      	adds	r4, #7
    2b98:	439c      	bics	r4, r3
    2b9a:	0022      	movs	r2, r4
    2b9c:	ca18      	ldmia	r2!, {r3, r4}
    2b9e:	930c      	str	r3, [sp, #48]	; 0x30
    2ba0:	940d      	str	r4, [sp, #52]	; 0x34
    2ba2:	920f      	str	r2, [sp, #60]	; 0x3c
    2ba4:	4653      	mov	r3, sl
    2ba6:	4ccb      	ldr	r4, [pc, #812]	; (2ed4 <_vfprintf_r+0x9f8>)
    2ba8:	4023      	ands	r3, r4
    2baa:	001c      	movs	r4, r3
    2bac:	2300      	movs	r3, #0
    2bae:	e7b3      	b.n	2b18 <_vfprintf_r+0x63c>
    2bb0:	2308      	movs	r3, #8
    2bb2:	431c      	orrs	r4, r3
    2bb4:	9b06      	ldr	r3, [sp, #24]
    2bb6:	781b      	ldrb	r3, [r3, #0]
    2bb8:	e504      	b.n	25c4 <_vfprintf_r+0xe8>
    2bba:	0022      	movs	r2, r4
    2bbc:	9312      	str	r3, [sp, #72]	; 0x48
    2bbe:	2310      	movs	r3, #16
    2bc0:	431a      	orrs	r2, r3
    2bc2:	46ab      	mov	fp, r5
    2bc4:	4692      	mov	sl, r2
    2bc6:	4653      	mov	r3, sl
    2bc8:	069b      	lsls	r3, r3, #26
    2bca:	d400      	bmi.n	2bce <_vfprintf_r+0x6f2>
    2bcc:	e335      	b.n	323a <_vfprintf_r+0xd5e>
    2bce:	2307      	movs	r3, #7
    2bd0:	9c0f      	ldr	r4, [sp, #60]	; 0x3c
    2bd2:	3407      	adds	r4, #7
    2bd4:	439c      	bics	r4, r3
    2bd6:	3301      	adds	r3, #1
    2bd8:	469c      	mov	ip, r3
    2bda:	44a4      	add	ip, r4
    2bdc:	4663      	mov	r3, ip
    2bde:	6822      	ldr	r2, [r4, #0]
    2be0:	930f      	str	r3, [sp, #60]	; 0x3c
    2be2:	6863      	ldr	r3, [r4, #4]
    2be4:	920c      	str	r2, [sp, #48]	; 0x30
    2be6:	930d      	str	r3, [sp, #52]	; 0x34
    2be8:	2b00      	cmp	r3, #0
    2bea:	da00      	bge.n	2bee <_vfprintf_r+0x712>
    2bec:	e331      	b.n	3252 <_vfprintf_r+0xd76>
    2bee:	9b08      	ldr	r3, [sp, #32]
    2bf0:	4654      	mov	r4, sl
    2bf2:	3301      	adds	r3, #1
    2bf4:	d00f      	beq.n	2c16 <_vfprintf_r+0x73a>
    2bf6:	2380      	movs	r3, #128	; 0x80
    2bf8:	439c      	bics	r4, r3
    2bfa:	9a0c      	ldr	r2, [sp, #48]	; 0x30
    2bfc:	9b0d      	ldr	r3, [sp, #52]	; 0x34
    2bfe:	0011      	movs	r1, r2
    2c00:	4319      	orrs	r1, r3
    2c02:	d108      	bne.n	2c16 <_vfprintf_r+0x73a>
    2c04:	9b08      	ldr	r3, [sp, #32]
    2c06:	2b00      	cmp	r3, #0
    2c08:	d10b      	bne.n	2c22 <_vfprintf_r+0x746>
    2c0a:	46a2      	mov	sl, r4
    2c0c:	2300      	movs	r3, #0
    2c0e:	ae56      	add	r6, sp, #344	; 0x158
    2c10:	9308      	str	r3, [sp, #32]
    2c12:	930b      	str	r3, [sp, #44]	; 0x2c
    2c14:	e79f      	b.n	2b56 <_vfprintf_r+0x67a>
    2c16:	9a0c      	ldr	r2, [sp, #48]	; 0x30
    2c18:	9b0d      	ldr	r3, [sp, #52]	; 0x34
    2c1a:	2b00      	cmp	r3, #0
    2c1c:	d178      	bne.n	2d10 <_vfprintf_r+0x834>
    2c1e:	2a09      	cmp	r2, #9
    2c20:	d876      	bhi.n	2d10 <_vfprintf_r+0x834>
    2c22:	2263      	movs	r2, #99	; 0x63
    2c24:	9b0c      	ldr	r3, [sp, #48]	; 0x30
    2c26:	a93d      	add	r1, sp, #244	; 0xf4
    2c28:	3330      	adds	r3, #48	; 0x30
    2c2a:	548b      	strb	r3, [r1, r2]
    2c2c:	2301      	movs	r3, #1
    2c2e:	930b      	str	r3, [sp, #44]	; 0x2c
    2c30:	ab1c      	add	r3, sp, #112	; 0x70
    2c32:	26e7      	movs	r6, #231	; 0xe7
    2c34:	469c      	mov	ip, r3
    2c36:	46a2      	mov	sl, r4
    2c38:	4466      	add	r6, ip
    2c3a:	e78c      	b.n	2b56 <_vfprintf_r+0x67a>
    2c3c:	9b0f      	ldr	r3, [sp, #60]	; 0x3c
    2c3e:	46a2      	mov	sl, r4
    2c40:	cb04      	ldmia	r3!, {r2}
    2c42:	2402      	movs	r4, #2
    2c44:	920c      	str	r2, [sp, #48]	; 0x30
    2c46:	2200      	movs	r2, #0
    2c48:	920d      	str	r2, [sp, #52]	; 0x34
    2c4a:	4652      	mov	r2, sl
    2c4c:	2130      	movs	r1, #48	; 0x30
    2c4e:	4322      	orrs	r2, r4
    2c50:	0014      	movs	r4, r2
    2c52:	aa23      	add	r2, sp, #140	; 0x8c
    2c54:	7011      	strb	r1, [r2, #0]
    2c56:	3148      	adds	r1, #72	; 0x48
    2c58:	7051      	strb	r1, [r2, #1]
    2c5a:	2278      	movs	r2, #120	; 0x78
    2c5c:	930f      	str	r3, [sp, #60]	; 0x3c
    2c5e:	4b9e      	ldr	r3, [pc, #632]	; (2ed8 <_vfprintf_r+0x9fc>)
    2c60:	46ab      	mov	fp, r5
    2c62:	931d      	str	r3, [sp, #116]	; 0x74
    2c64:	9212      	str	r2, [sp, #72]	; 0x48
    2c66:	2302      	movs	r3, #2
    2c68:	e756      	b.n	2b18 <_vfprintf_r+0x63c>
    2c6a:	0023      	movs	r3, r4
    2c6c:	46ab      	mov	fp, r5
    2c6e:	069b      	lsls	r3, r3, #26
    2c70:	d500      	bpl.n	2c74 <_vfprintf_r+0x798>
    2c72:	e350      	b.n	3316 <_vfprintf_r+0xe3a>
    2c74:	0023      	movs	r3, r4
    2c76:	06db      	lsls	r3, r3, #27
    2c78:	d501      	bpl.n	2c7e <_vfprintf_r+0x7a2>
    2c7a:	f000 fd53 	bl	3724 <_vfprintf_r+0x1248>
    2c7e:	0023      	movs	r3, r4
    2c80:	065b      	lsls	r3, r3, #25
    2c82:	d501      	bpl.n	2c88 <_vfprintf_r+0x7ac>
    2c84:	f000 fe0b 	bl	389e <_vfprintf_r+0x13c2>
    2c88:	0023      	movs	r3, r4
    2c8a:	059b      	lsls	r3, r3, #22
    2c8c:	d401      	bmi.n	2c92 <_vfprintf_r+0x7b6>
    2c8e:	f000 fd49 	bl	3724 <_vfprintf_r+0x1248>
    2c92:	9c0f      	ldr	r4, [sp, #60]	; 0x3c
    2c94:	9a09      	ldr	r2, [sp, #36]	; 0x24
    2c96:	cc08      	ldmia	r4!, {r3}
    2c98:	9e06      	ldr	r6, [sp, #24]
    2c9a:	701a      	strb	r2, [r3, #0]
    2c9c:	940f      	str	r4, [sp, #60]	; 0x3c
    2c9e:	e595      	b.n	27cc <_vfprintf_r+0x2f0>
    2ca0:	9b06      	ldr	r3, [sp, #24]
    2ca2:	781b      	ldrb	r3, [r3, #0]
    2ca4:	2b6c      	cmp	r3, #108	; 0x6c
    2ca6:	d101      	bne.n	2cac <_vfprintf_r+0x7d0>
    2ca8:	f000 fc97 	bl	35da <_vfprintf_r+0x10fe>
    2cac:	2210      	movs	r2, #16
    2cae:	4314      	orrs	r4, r2
    2cb0:	e488      	b.n	25c4 <_vfprintf_r+0xe8>
    2cb2:	4654      	mov	r4, sl
    2cb4:	2b01      	cmp	r3, #1
    2cb6:	d0ae      	beq.n	2c16 <_vfprintf_r+0x73a>
    2cb8:	ae56      	add	r6, sp, #344	; 0x158
    2cba:	2b02      	cmp	r3, #2
    2cbc:	d100      	bne.n	2cc0 <_vfprintf_r+0x7e4>
    2cbe:	e166      	b.n	2f8e <_vfprintf_r+0xab2>
    2cc0:	2307      	movs	r3, #7
    2cc2:	46a1      	mov	r9, r4
    2cc4:	46ba      	mov	sl, r7
    2cc6:	469c      	mov	ip, r3
    2cc8:	9a0c      	ldr	r2, [sp, #48]	; 0x30
    2cca:	9b0d      	ldr	r3, [sp, #52]	; 0x34
    2ccc:	075f      	lsls	r7, r3, #29
    2cce:	08d5      	lsrs	r5, r2, #3
    2cd0:	4661      	mov	r1, ip
    2cd2:	08d8      	lsrs	r0, r3, #3
    2cd4:	432f      	orrs	r7, r5
    2cd6:	0003      	movs	r3, r0
    2cd8:	0038      	movs	r0, r7
    2cda:	4011      	ands	r1, r2
    2cdc:	0034      	movs	r4, r6
    2cde:	3130      	adds	r1, #48	; 0x30
    2ce0:	3e01      	subs	r6, #1
    2ce2:	003a      	movs	r2, r7
    2ce4:	7031      	strb	r1, [r6, #0]
    2ce6:	4318      	orrs	r0, r3
    2ce8:	d1f0      	bne.n	2ccc <_vfprintf_r+0x7f0>
    2cea:	0025      	movs	r5, r4
    2cec:	464c      	mov	r4, r9
    2cee:	4657      	mov	r7, sl
    2cf0:	920c      	str	r2, [sp, #48]	; 0x30
    2cf2:	930d      	str	r3, [sp, #52]	; 0x34
    2cf4:	07e2      	lsls	r2, r4, #31
    2cf6:	d543      	bpl.n	2d80 <_vfprintf_r+0x8a4>
    2cf8:	2930      	cmp	r1, #48	; 0x30
    2cfa:	d041      	beq.n	2d80 <_vfprintf_r+0x8a4>
    2cfc:	2330      	movs	r3, #48	; 0x30
    2cfe:	3e01      	subs	r6, #1
    2d00:	3d02      	subs	r5, #2
    2d02:	7033      	strb	r3, [r6, #0]
    2d04:	ab56      	add	r3, sp, #344	; 0x158
    2d06:	1b5b      	subs	r3, r3, r5
    2d08:	46ca      	mov	sl, r9
    2d0a:	002e      	movs	r6, r5
    2d0c:	930b      	str	r3, [sp, #44]	; 0x2c
    2d0e:	e722      	b.n	2b56 <_vfprintf_r+0x67a>
    2d10:	2580      	movs	r5, #128	; 0x80
    2d12:	2300      	movs	r3, #0
    2d14:	00ed      	lsls	r5, r5, #3
    2d16:	4025      	ands	r5, r4
    2d18:	46ba      	mov	sl, r7
    2d1a:	46a9      	mov	r9, r5
    2d1c:	9407      	str	r4, [sp, #28]
    2d1e:	001f      	movs	r7, r3
    2d20:	9c0c      	ldr	r4, [sp, #48]	; 0x30
    2d22:	9d0d      	ldr	r5, [sp, #52]	; 0x34
    2d24:	ae56      	add	r6, sp, #344	; 0x158
    2d26:	e00b      	b.n	2d40 <_vfprintf_r+0x864>
    2d28:	220a      	movs	r2, #10
    2d2a:	2300      	movs	r3, #0
    2d2c:	0020      	movs	r0, r4
    2d2e:	0029      	movs	r1, r5
    2d30:	f7fd fb3a 	bl	3a8 <__aeabi_uldivmod>
    2d34:	2d00      	cmp	r5, #0
    2d36:	d101      	bne.n	2d3c <_vfprintf_r+0x860>
    2d38:	f000 ff80 	bl	3c3c <_vfprintf_r+0x1760>
    2d3c:	0004      	movs	r4, r0
    2d3e:	000d      	movs	r5, r1
    2d40:	220a      	movs	r2, #10
    2d42:	2300      	movs	r3, #0
    2d44:	0020      	movs	r0, r4
    2d46:	0029      	movs	r1, r5
    2d48:	f7fd fb2e 	bl	3a8 <__aeabi_uldivmod>
    2d4c:	464b      	mov	r3, r9
    2d4e:	3e01      	subs	r6, #1
    2d50:	3230      	adds	r2, #48	; 0x30
    2d52:	7032      	strb	r2, [r6, #0]
    2d54:	3701      	adds	r7, #1
    2d56:	2b00      	cmp	r3, #0
    2d58:	d0e6      	beq.n	2d28 <_vfprintf_r+0x84c>
    2d5a:	9b1a      	ldr	r3, [sp, #104]	; 0x68
    2d5c:	781b      	ldrb	r3, [r3, #0]
    2d5e:	429f      	cmp	r7, r3
    2d60:	d1e2      	bne.n	2d28 <_vfprintf_r+0x84c>
    2d62:	2fff      	cmp	r7, #255	; 0xff
    2d64:	d0e0      	beq.n	2d28 <_vfprintf_r+0x84c>
    2d66:	2d00      	cmp	r5, #0
    2d68:	d001      	beq.n	2d6e <_vfprintf_r+0x892>
    2d6a:	f000 fc60 	bl	362e <_vfprintf_r+0x1152>
    2d6e:	2c09      	cmp	r4, #9
    2d70:	d901      	bls.n	2d76 <_vfprintf_r+0x89a>
    2d72:	f000 fc5c 	bl	362e <_vfprintf_r+0x1152>
    2d76:	9715      	str	r7, [sp, #84]	; 0x54
    2d78:	4657      	mov	r7, sl
    2d7a:	940c      	str	r4, [sp, #48]	; 0x30
    2d7c:	950d      	str	r5, [sp, #52]	; 0x34
    2d7e:	9c07      	ldr	r4, [sp, #28]
    2d80:	ab56      	add	r3, sp, #344	; 0x158
    2d82:	1b9b      	subs	r3, r3, r6
    2d84:	46a2      	mov	sl, r4
    2d86:	930b      	str	r3, [sp, #44]	; 0x2c
    2d88:	e6e5      	b.n	2b56 <_vfprintf_r+0x67a>
    2d8a:	9b12      	ldr	r3, [sp, #72]	; 0x48
    2d8c:	2b65      	cmp	r3, #101	; 0x65
    2d8e:	dc00      	bgt.n	2d92 <_vfprintf_r+0x8b6>
    2d90:	e5ca      	b.n	2928 <_vfprintf_r+0x44c>
    2d92:	9816      	ldr	r0, [sp, #88]	; 0x58
    2d94:	9917      	ldr	r1, [sp, #92]	; 0x5c
    2d96:	2200      	movs	r2, #0
    2d98:	2300      	movs	r3, #0
    2d9a:	f7fd fad7 	bl	34c <__aeabi_dcmpeq>
    2d9e:	2800      	cmp	r0, #0
    2da0:	d100      	bne.n	2da4 <_vfprintf_r+0x8c8>
    2da2:	e15f      	b.n	3064 <_vfprintf_r+0xb88>
    2da4:	4b4d      	ldr	r3, [pc, #308]	; (2edc <_vfprintf_r+0xa00>)
    2da6:	3401      	adds	r4, #1
    2da8:	603b      	str	r3, [r7, #0]
    2daa:	2301      	movs	r3, #1
    2dac:	607b      	str	r3, [r7, #4]
    2dae:	9b2b      	ldr	r3, [sp, #172]	; 0xac
    2db0:	942c      	str	r4, [sp, #176]	; 0xb0
    2db2:	9308      	str	r3, [sp, #32]
    2db4:	3301      	adds	r3, #1
    2db6:	932b      	str	r3, [sp, #172]	; 0xac
    2db8:	2b07      	cmp	r3, #7
    2dba:	dd01      	ble.n	2dc0 <_vfprintf_r+0x8e4>
    2dbc:	f000 fc90 	bl	36e0 <_vfprintf_r+0x1204>
    2dc0:	3708      	adds	r7, #8
    2dc2:	9b24      	ldr	r3, [sp, #144]	; 0x90
    2dc4:	9a15      	ldr	r2, [sp, #84]	; 0x54
    2dc6:	4293      	cmp	r3, r2
    2dc8:	db00      	blt.n	2dcc <_vfprintf_r+0x8f0>
    2dca:	e24f      	b.n	326c <_vfprintf_r+0xd90>
    2dcc:	9b1c      	ldr	r3, [sp, #112]	; 0x70
    2dce:	603b      	str	r3, [r7, #0]
    2dd0:	9b1b      	ldr	r3, [sp, #108]	; 0x6c
    2dd2:	469c      	mov	ip, r3
    2dd4:	607b      	str	r3, [r7, #4]
    2dd6:	9b2b      	ldr	r3, [sp, #172]	; 0xac
    2dd8:	4464      	add	r4, ip
    2dda:	9308      	str	r3, [sp, #32]
    2ddc:	3301      	adds	r3, #1
    2dde:	942c      	str	r4, [sp, #176]	; 0xb0
    2de0:	932b      	str	r3, [sp, #172]	; 0xac
    2de2:	2b07      	cmp	r3, #7
    2de4:	dd01      	ble.n	2dea <_vfprintf_r+0x90e>
    2de6:	f000 fc03 	bl	35f0 <_vfprintf_r+0x1114>
    2dea:	3708      	adds	r7, #8
    2dec:	9b15      	ldr	r3, [sp, #84]	; 0x54
    2dee:	1e5d      	subs	r5, r3, #1
    2df0:	2d00      	cmp	r5, #0
    2df2:	dc00      	bgt.n	2df6 <_vfprintf_r+0x91a>
    2df4:	e4c8      	b.n	2788 <_vfprintf_r+0x2ac>
    2df6:	4a3a      	ldr	r2, [pc, #232]	; (2ee0 <_vfprintf_r+0xa04>)
    2df8:	9b2b      	ldr	r3, [sp, #172]	; 0xac
    2dfa:	4691      	mov	r9, r2
    2dfc:	2d10      	cmp	r5, #16
    2dfe:	dc01      	bgt.n	2e04 <_vfprintf_r+0x928>
    2e00:	f000 fc7c 	bl	36fc <_vfprintf_r+0x1220>
    2e04:	0022      	movs	r2, r4
    2e06:	2610      	movs	r6, #16
    2e08:	464c      	mov	r4, r9
    2e0a:	e005      	b.n	2e18 <_vfprintf_r+0x93c>
    2e0c:	3708      	adds	r7, #8
    2e0e:	3d10      	subs	r5, #16
    2e10:	2d10      	cmp	r5, #16
    2e12:	dc01      	bgt.n	2e18 <_vfprintf_r+0x93c>
    2e14:	f000 fc70 	bl	36f8 <_vfprintf_r+0x121c>
    2e18:	3210      	adds	r2, #16
    2e1a:	3301      	adds	r3, #1
    2e1c:	603c      	str	r4, [r7, #0]
    2e1e:	607e      	str	r6, [r7, #4]
    2e20:	922c      	str	r2, [sp, #176]	; 0xb0
    2e22:	932b      	str	r3, [sp, #172]	; 0xac
    2e24:	2b07      	cmp	r3, #7
    2e26:	ddf1      	ble.n	2e0c <_vfprintf_r+0x930>
    2e28:	4641      	mov	r1, r8
    2e2a:	4658      	mov	r0, fp
    2e2c:	aa2a      	add	r2, sp, #168	; 0xa8
    2e2e:	f003 fe4d 	bl	6acc <__sprint_r>
    2e32:	2800      	cmp	r0, #0
    2e34:	d000      	beq.n	2e38 <_vfprintf_r+0x95c>
    2e36:	e088      	b.n	2f4a <_vfprintf_r+0xa6e>
    2e38:	9a2c      	ldr	r2, [sp, #176]	; 0xb0
    2e3a:	9b2b      	ldr	r3, [sp, #172]	; 0xac
    2e3c:	af2d      	add	r7, sp, #180	; 0xb4
    2e3e:	e7e6      	b.n	2e0e <_vfprintf_r+0x932>
    2e40:	9b0a      	ldr	r3, [sp, #40]	; 0x28
    2e42:	9a07      	ldr	r2, [sp, #28]
    2e44:	1a9d      	subs	r5, r3, r2
    2e46:	2d00      	cmp	r5, #0
    2e48:	dc00      	bgt.n	2e4c <_vfprintf_r+0x970>
    2e4a:	e485      	b.n	2758 <_vfprintf_r+0x27c>
    2e4c:	4a24      	ldr	r2, [pc, #144]	; (2ee0 <_vfprintf_r+0xa04>)
    2e4e:	9b2b      	ldr	r3, [sp, #172]	; 0xac
    2e50:	4691      	mov	r9, r2
    2e52:	2d10      	cmp	r5, #16
    2e54:	dd23      	ble.n	2e9e <_vfprintf_r+0x9c2>
    2e56:	0022      	movs	r2, r4
    2e58:	464c      	mov	r4, r9
    2e5a:	46b1      	mov	r9, r6
    2e5c:	465e      	mov	r6, fp
    2e5e:	e003      	b.n	2e68 <_vfprintf_r+0x98c>
    2e60:	3d10      	subs	r5, #16
    2e62:	3708      	adds	r7, #8
    2e64:	2d10      	cmp	r5, #16
    2e66:	dd16      	ble.n	2e96 <_vfprintf_r+0x9ba>
    2e68:	2110      	movs	r1, #16
    2e6a:	3210      	adds	r2, #16
    2e6c:	3301      	adds	r3, #1
    2e6e:	603c      	str	r4, [r7, #0]
    2e70:	6079      	str	r1, [r7, #4]
    2e72:	922c      	str	r2, [sp, #176]	; 0xb0
    2e74:	932b      	str	r3, [sp, #172]	; 0xac
    2e76:	2b07      	cmp	r3, #7
    2e78:	ddf2      	ble.n	2e60 <_vfprintf_r+0x984>
    2e7a:	4641      	mov	r1, r8
    2e7c:	0030      	movs	r0, r6
    2e7e:	aa2a      	add	r2, sp, #168	; 0xa8
    2e80:	f003 fe24 	bl	6acc <__sprint_r>
    2e84:	2800      	cmp	r0, #0
    2e86:	d000      	beq.n	2e8a <_vfprintf_r+0x9ae>
    2e88:	e0e9      	b.n	305e <_vfprintf_r+0xb82>
    2e8a:	3d10      	subs	r5, #16
    2e8c:	9a2c      	ldr	r2, [sp, #176]	; 0xb0
    2e8e:	9b2b      	ldr	r3, [sp, #172]	; 0xac
    2e90:	af2d      	add	r7, sp, #180	; 0xb4
    2e92:	2d10      	cmp	r5, #16
    2e94:	dce8      	bgt.n	2e68 <_vfprintf_r+0x98c>
    2e96:	46b3      	mov	fp, r6
    2e98:	464e      	mov	r6, r9
    2e9a:	46a1      	mov	r9, r4
    2e9c:	0014      	movs	r4, r2
    2e9e:	464a      	mov	r2, r9
    2ea0:	1964      	adds	r4, r4, r5
    2ea2:	3301      	adds	r3, #1
    2ea4:	603a      	str	r2, [r7, #0]
    2ea6:	607d      	str	r5, [r7, #4]
    2ea8:	942c      	str	r4, [sp, #176]	; 0xb0
    2eaa:	932b      	str	r3, [sp, #172]	; 0xac
    2eac:	2b07      	cmp	r3, #7
    2eae:	dd00      	ble.n	2eb2 <_vfprintf_r+0x9d6>
    2eb0:	e34f      	b.n	3552 <_vfprintf_r+0x1076>
    2eb2:	9b08      	ldr	r3, [sp, #32]
    2eb4:	9a0b      	ldr	r2, [sp, #44]	; 0x2c
    2eb6:	3708      	adds	r7, #8
    2eb8:	1a9d      	subs	r5, r3, r2
    2eba:	2d00      	cmp	r5, #0
    2ebc:	dc00      	bgt.n	2ec0 <_vfprintf_r+0x9e4>
    2ebe:	e451      	b.n	2764 <_vfprintf_r+0x288>
    2ec0:	4a07      	ldr	r2, [pc, #28]	; (2ee0 <_vfprintf_r+0xa04>)
    2ec2:	9b2b      	ldr	r3, [sp, #172]	; 0xac
    2ec4:	4691      	mov	r9, r2
    2ec6:	2d10      	cmp	r5, #16
    2ec8:	dd2b      	ble.n	2f22 <_vfprintf_r+0xa46>
    2eca:	0022      	movs	r2, r4
    2ecc:	464c      	mov	r4, r9
    2ece:	46b1      	mov	r9, r6
    2ed0:	465e      	mov	r6, fp
    2ed2:	e00b      	b.n	2eec <_vfprintf_r+0xa10>
    2ed4:	fffffbff 	.word	0xfffffbff
    2ed8:	00008688 	.word	0x00008688
    2edc:	000086b8 	.word	0x000086b8
    2ee0:	00008838 	.word	0x00008838
    2ee4:	3d10      	subs	r5, #16
    2ee6:	3708      	adds	r7, #8
    2ee8:	2d10      	cmp	r5, #16
    2eea:	dd16      	ble.n	2f1a <_vfprintf_r+0xa3e>
    2eec:	2110      	movs	r1, #16
    2eee:	3210      	adds	r2, #16
    2ef0:	3301      	adds	r3, #1
    2ef2:	603c      	str	r4, [r7, #0]
    2ef4:	6079      	str	r1, [r7, #4]
    2ef6:	922c      	str	r2, [sp, #176]	; 0xb0
    2ef8:	932b      	str	r3, [sp, #172]	; 0xac
    2efa:	2b07      	cmp	r3, #7
    2efc:	ddf2      	ble.n	2ee4 <_vfprintf_r+0xa08>
    2efe:	4641      	mov	r1, r8
    2f00:	0030      	movs	r0, r6
    2f02:	aa2a      	add	r2, sp, #168	; 0xa8
    2f04:	f003 fde2 	bl	6acc <__sprint_r>
    2f08:	2800      	cmp	r0, #0
    2f0a:	d000      	beq.n	2f0e <_vfprintf_r+0xa32>
    2f0c:	e0a7      	b.n	305e <_vfprintf_r+0xb82>
    2f0e:	3d10      	subs	r5, #16
    2f10:	9a2c      	ldr	r2, [sp, #176]	; 0xb0
    2f12:	9b2b      	ldr	r3, [sp, #172]	; 0xac
    2f14:	af2d      	add	r7, sp, #180	; 0xb4
    2f16:	2d10      	cmp	r5, #16
    2f18:	dce8      	bgt.n	2eec <_vfprintf_r+0xa10>
    2f1a:	46b3      	mov	fp, r6
    2f1c:	464e      	mov	r6, r9
    2f1e:	46a1      	mov	r9, r4
    2f20:	0014      	movs	r4, r2
    2f22:	464a      	mov	r2, r9
    2f24:	1964      	adds	r4, r4, r5
    2f26:	3301      	adds	r3, #1
    2f28:	603a      	str	r2, [r7, #0]
    2f2a:	607d      	str	r5, [r7, #4]
    2f2c:	942c      	str	r4, [sp, #176]	; 0xb0
    2f2e:	932b      	str	r3, [sp, #172]	; 0xac
    2f30:	2b07      	cmp	r3, #7
    2f32:	dd00      	ble.n	2f36 <_vfprintf_r+0xa5a>
    2f34:	e15f      	b.n	31f6 <_vfprintf_r+0xd1a>
    2f36:	3708      	adds	r7, #8
    2f38:	e414      	b.n	2764 <_vfprintf_r+0x288>
    2f3a:	4641      	mov	r1, r8
    2f3c:	4658      	mov	r0, fp
    2f3e:	aa2a      	add	r2, sp, #168	; 0xa8
    2f40:	f003 fdc4 	bl	6acc <__sprint_r>
    2f44:	2800      	cmp	r0, #0
    2f46:	d100      	bne.n	2f4a <_vfprintf_r+0xa6e>
    2f48:	e435      	b.n	27b6 <_vfprintf_r+0x2da>
    2f4a:	46c1      	mov	r9, r8
    2f4c:	990e      	ldr	r1, [sp, #56]	; 0x38
    2f4e:	2900      	cmp	r1, #0
    2f50:	d002      	beq.n	2f58 <_vfprintf_r+0xa7c>
    2f52:	4658      	mov	r0, fp
    2f54:	f002 fbe6 	bl	5724 <_free_r>
    2f58:	464b      	mov	r3, r9
    2f5a:	6e5b      	ldr	r3, [r3, #100]	; 0x64
    2f5c:	07db      	lsls	r3, r3, #31
    2f5e:	d413      	bmi.n	2f88 <_vfprintf_r+0xaac>
    2f60:	464b      	mov	r3, r9
    2f62:	899b      	ldrh	r3, [r3, #12]
    2f64:	059a      	lsls	r2, r3, #22
    2f66:	d50b      	bpl.n	2f80 <_vfprintf_r+0xaa4>
    2f68:	065b      	lsls	r3, r3, #25
    2f6a:	d501      	bpl.n	2f70 <_vfprintf_r+0xa94>
    2f6c:	f000 ff81 	bl	3e72 <_vfprintf_r+0x1996>
    2f70:	9809      	ldr	r0, [sp, #36]	; 0x24
    2f72:	b057      	add	sp, #348	; 0x15c
    2f74:	bcf0      	pop	{r4, r5, r6, r7}
    2f76:	46bb      	mov	fp, r7
    2f78:	46b2      	mov	sl, r6
    2f7a:	46a9      	mov	r9, r5
    2f7c:	46a0      	mov	r8, r4
    2f7e:	bdf0      	pop	{r4, r5, r6, r7, pc}
    2f80:	464b      	mov	r3, r9
    2f82:	6d98      	ldr	r0, [r3, #88]	; 0x58
    2f84:	f002 fcde 	bl	5944 <__retarget_lock_release_recursive>
    2f88:	464b      	mov	r3, r9
    2f8a:	899b      	ldrh	r3, [r3, #12]
    2f8c:	e7ec      	b.n	2f68 <_vfprintf_r+0xa8c>
    2f8e:	200f      	movs	r0, #15
    2f90:	9a0c      	ldr	r2, [sp, #48]	; 0x30
    2f92:	9b0d      	ldr	r3, [sp, #52]	; 0x34
    2f94:	46a4      	mov	ip, r4
    2f96:	46b9      	mov	r9, r7
    2f98:	9f1d      	ldr	r7, [sp, #116]	; 0x74
    2f9a:	0001      	movs	r1, r0
    2f9c:	4011      	ands	r1, r2
    2f9e:	5c79      	ldrb	r1, [r7, r1]
    2fa0:	071c      	lsls	r4, r3, #28
    2fa2:	0915      	lsrs	r5, r2, #4
    2fa4:	3e01      	subs	r6, #1
    2fa6:	432c      	orrs	r4, r5
    2fa8:	7031      	strb	r1, [r6, #0]
    2faa:	0919      	lsrs	r1, r3, #4
    2fac:	000b      	movs	r3, r1
    2fae:	0021      	movs	r1, r4
    2fb0:	0022      	movs	r2, r4
    2fb2:	4319      	orrs	r1, r3
    2fb4:	d1f1      	bne.n	2f9a <_vfprintf_r+0xabe>
    2fb6:	920c      	str	r2, [sp, #48]	; 0x30
    2fb8:	930d      	str	r3, [sp, #52]	; 0x34
    2fba:	ab56      	add	r3, sp, #344	; 0x158
    2fbc:	1b9b      	subs	r3, r3, r6
    2fbe:	464f      	mov	r7, r9
    2fc0:	46e2      	mov	sl, ip
    2fc2:	930b      	str	r3, [sp, #44]	; 0x2c
    2fc4:	e5c7      	b.n	2b56 <_vfprintf_r+0x67a>
    2fc6:	4641      	mov	r1, r8
    2fc8:	4658      	mov	r0, fp
    2fca:	aa2a      	add	r2, sp, #168	; 0xa8
    2fcc:	f003 fd7e 	bl	6acc <__sprint_r>
    2fd0:	2800      	cmp	r0, #0
    2fd2:	d1ba      	bne.n	2f4a <_vfprintf_r+0xa6e>
    2fd4:	9c2c      	ldr	r4, [sp, #176]	; 0xb0
    2fd6:	af2d      	add	r7, sp, #180	; 0xb4
    2fd8:	f7ff fbba 	bl	2750 <_vfprintf_r+0x274>
    2fdc:	4641      	mov	r1, r8
    2fde:	4658      	mov	r0, fp
    2fe0:	aa2a      	add	r2, sp, #168	; 0xa8
    2fe2:	f003 fd73 	bl	6acc <__sprint_r>
    2fe6:	2800      	cmp	r0, #0
    2fe8:	d1af      	bne.n	2f4a <_vfprintf_r+0xa6e>
    2fea:	9c2c      	ldr	r4, [sp, #176]	; 0xb0
    2fec:	af2d      	add	r7, sp, #180	; 0xb4
    2fee:	f7ff fb9d 	bl	272c <_vfprintf_r+0x250>
    2ff2:	9b2b      	ldr	r3, [sp, #172]	; 0xac
    2ff4:	4ddc      	ldr	r5, [pc, #880]	; (3368 <_vfprintf_r+0xe8c>)
    2ff6:	2e10      	cmp	r6, #16
    2ff8:	dd1d      	ble.n	3036 <_vfprintf_r+0xb5a>
    2ffa:	2210      	movs	r2, #16
    2ffc:	4691      	mov	r9, r2
    2ffe:	e003      	b.n	3008 <_vfprintf_r+0xb2c>
    3000:	3e10      	subs	r6, #16
    3002:	3708      	adds	r7, #8
    3004:	2e10      	cmp	r6, #16
    3006:	dd16      	ble.n	3036 <_vfprintf_r+0xb5a>
    3008:	464a      	mov	r2, r9
    300a:	3410      	adds	r4, #16
    300c:	3301      	adds	r3, #1
    300e:	603d      	str	r5, [r7, #0]
    3010:	607a      	str	r2, [r7, #4]
    3012:	942c      	str	r4, [sp, #176]	; 0xb0
    3014:	932b      	str	r3, [sp, #172]	; 0xac
    3016:	2b07      	cmp	r3, #7
    3018:	ddf2      	ble.n	3000 <_vfprintf_r+0xb24>
    301a:	4641      	mov	r1, r8
    301c:	4658      	mov	r0, fp
    301e:	aa2a      	add	r2, sp, #168	; 0xa8
    3020:	f003 fd54 	bl	6acc <__sprint_r>
    3024:	2800      	cmp	r0, #0
    3026:	d000      	beq.n	302a <_vfprintf_r+0xb4e>
    3028:	e78f      	b.n	2f4a <_vfprintf_r+0xa6e>
    302a:	3e10      	subs	r6, #16
    302c:	9c2c      	ldr	r4, [sp, #176]	; 0xb0
    302e:	9b2b      	ldr	r3, [sp, #172]	; 0xac
    3030:	af2d      	add	r7, sp, #180	; 0xb4
    3032:	2e10      	cmp	r6, #16
    3034:	dce8      	bgt.n	3008 <_vfprintf_r+0xb2c>
    3036:	19a4      	adds	r4, r4, r6
    3038:	3301      	adds	r3, #1
    303a:	c760      	stmia	r7!, {r5, r6}
    303c:	942c      	str	r4, [sp, #176]	; 0xb0
    303e:	932b      	str	r3, [sp, #172]	; 0xac
    3040:	2b07      	cmp	r3, #7
    3042:	dc01      	bgt.n	3048 <_vfprintf_r+0xb6c>
    3044:	f7ff fbaa 	bl	279c <_vfprintf_r+0x2c0>
    3048:	4641      	mov	r1, r8
    304a:	4658      	mov	r0, fp
    304c:	aa2a      	add	r2, sp, #168	; 0xa8
    304e:	f003 fd3d 	bl	6acc <__sprint_r>
    3052:	2800      	cmp	r0, #0
    3054:	d000      	beq.n	3058 <_vfprintf_r+0xb7c>
    3056:	e778      	b.n	2f4a <_vfprintf_r+0xa6e>
    3058:	9c2c      	ldr	r4, [sp, #176]	; 0xb0
    305a:	f7ff fb9f 	bl	279c <_vfprintf_r+0x2c0>
    305e:	46b3      	mov	fp, r6
    3060:	46c1      	mov	r9, r8
    3062:	e773      	b.n	2f4c <_vfprintf_r+0xa70>
    3064:	9924      	ldr	r1, [sp, #144]	; 0x90
    3066:	2900      	cmp	r1, #0
    3068:	dc00      	bgt.n	306c <_vfprintf_r+0xb90>
    306a:	e10e      	b.n	328a <_vfprintf_r+0xdae>
    306c:	9a14      	ldr	r2, [sp, #80]	; 0x50
    306e:	9b15      	ldr	r3, [sp, #84]	; 0x54
    3070:	0015      	movs	r5, r2
    3072:	429a      	cmp	r2, r3
    3074:	dd00      	ble.n	3078 <_vfprintf_r+0xb9c>
    3076:	001d      	movs	r5, r3
    3078:	2d00      	cmp	r5, #0
    307a:	dd0c      	ble.n	3096 <_vfprintf_r+0xbba>
    307c:	9b2b      	ldr	r3, [sp, #172]	; 0xac
    307e:	1964      	adds	r4, r4, r5
    3080:	9308      	str	r3, [sp, #32]
    3082:	3301      	adds	r3, #1
    3084:	603e      	str	r6, [r7, #0]
    3086:	607d      	str	r5, [r7, #4]
    3088:	942c      	str	r4, [sp, #176]	; 0xb0
    308a:	932b      	str	r3, [sp, #172]	; 0xac
    308c:	2b07      	cmp	r3, #7
    308e:	dd01      	ble.n	3094 <_vfprintf_r+0xbb8>
    3090:	f000 fdfa 	bl	3c88 <_vfprintf_r+0x17ac>
    3094:	3708      	adds	r7, #8
    3096:	43eb      	mvns	r3, r5
    3098:	17db      	asrs	r3, r3, #31
    309a:	401d      	ands	r5, r3
    309c:	9b14      	ldr	r3, [sp, #80]	; 0x50
    309e:	1b5d      	subs	r5, r3, r5
    30a0:	2d00      	cmp	r5, #0
    30a2:	dd00      	ble.n	30a6 <_vfprintf_r+0xbca>
    30a4:	e37b      	b.n	379e <_vfprintf_r+0x12c2>
    30a6:	9b14      	ldr	r3, [sp, #80]	; 0x50
    30a8:	469c      	mov	ip, r3
    30aa:	4653      	mov	r3, sl
    30ac:	44b4      	add	ip, r6
    30ae:	4665      	mov	r5, ip
    30b0:	055b      	lsls	r3, r3, #21
    30b2:	d501      	bpl.n	30b8 <_vfprintf_r+0xbdc>
    30b4:	f000 fd0f 	bl	3ad6 <_vfprintf_r+0x15fa>
    30b8:	9b24      	ldr	r3, [sp, #144]	; 0x90
    30ba:	9a15      	ldr	r2, [sp, #84]	; 0x54
    30bc:	4293      	cmp	r3, r2
    30be:	db03      	blt.n	30c8 <_vfprintf_r+0xbec>
    30c0:	4652      	mov	r2, sl
    30c2:	07d2      	lsls	r2, r2, #31
    30c4:	d400      	bmi.n	30c8 <_vfprintf_r+0xbec>
    30c6:	e3e0      	b.n	388a <_vfprintf_r+0x13ae>
    30c8:	9a1c      	ldr	r2, [sp, #112]	; 0x70
    30ca:	603a      	str	r2, [r7, #0]
    30cc:	9a1b      	ldr	r2, [sp, #108]	; 0x6c
    30ce:	4694      	mov	ip, r2
    30d0:	607a      	str	r2, [r7, #4]
    30d2:	9a2b      	ldr	r2, [sp, #172]	; 0xac
    30d4:	4464      	add	r4, ip
    30d6:	9208      	str	r2, [sp, #32]
    30d8:	3201      	adds	r2, #1
    30da:	942c      	str	r4, [sp, #176]	; 0xb0
    30dc:	922b      	str	r2, [sp, #172]	; 0xac
    30de:	2a07      	cmp	r2, #7
    30e0:	dd01      	ble.n	30e6 <_vfprintf_r+0xc0a>
    30e2:	f000 fdde 	bl	3ca2 <_vfprintf_r+0x17c6>
    30e6:	3708      	adds	r7, #8
    30e8:	9915      	ldr	r1, [sp, #84]	; 0x54
    30ea:	468c      	mov	ip, r1
    30ec:	1acb      	subs	r3, r1, r3
    30ee:	4466      	add	r6, ip
    30f0:	1b72      	subs	r2, r6, r5
    30f2:	001e      	movs	r6, r3
    30f4:	4293      	cmp	r3, r2
    30f6:	dd00      	ble.n	30fa <_vfprintf_r+0xc1e>
    30f8:	0016      	movs	r6, r2
    30fa:	2e00      	cmp	r6, #0
    30fc:	dd0c      	ble.n	3118 <_vfprintf_r+0xc3c>
    30fe:	9a2b      	ldr	r2, [sp, #172]	; 0xac
    3100:	19a4      	adds	r4, r4, r6
    3102:	9208      	str	r2, [sp, #32]
    3104:	3201      	adds	r2, #1
    3106:	603d      	str	r5, [r7, #0]
    3108:	607e      	str	r6, [r7, #4]
    310a:	942c      	str	r4, [sp, #176]	; 0xb0
    310c:	922b      	str	r2, [sp, #172]	; 0xac
    310e:	2a07      	cmp	r2, #7
    3110:	dd01      	ble.n	3116 <_vfprintf_r+0xc3a>
    3112:	f000 fe51 	bl	3db8 <_vfprintf_r+0x18dc>
    3116:	3708      	adds	r7, #8
    3118:	43f5      	mvns	r5, r6
    311a:	17ed      	asrs	r5, r5, #31
    311c:	4035      	ands	r5, r6
    311e:	1b5d      	subs	r5, r3, r5
    3120:	2d00      	cmp	r5, #0
    3122:	dc01      	bgt.n	3128 <_vfprintf_r+0xc4c>
    3124:	f7ff fb30 	bl	2788 <_vfprintf_r+0x2ac>
    3128:	4a90      	ldr	r2, [pc, #576]	; (336c <_vfprintf_r+0xe90>)
    312a:	9b2b      	ldr	r3, [sp, #172]	; 0xac
    312c:	4691      	mov	r9, r2
    312e:	2d10      	cmp	r5, #16
    3130:	dc00      	bgt.n	3134 <_vfprintf_r+0xc58>
    3132:	e2e3      	b.n	36fc <_vfprintf_r+0x1220>
    3134:	0022      	movs	r2, r4
    3136:	2610      	movs	r6, #16
    3138:	464c      	mov	r4, r9
    313a:	e004      	b.n	3146 <_vfprintf_r+0xc6a>
    313c:	3708      	adds	r7, #8
    313e:	3d10      	subs	r5, #16
    3140:	2d10      	cmp	r5, #16
    3142:	dc00      	bgt.n	3146 <_vfprintf_r+0xc6a>
    3144:	e2d8      	b.n	36f8 <_vfprintf_r+0x121c>
    3146:	3210      	adds	r2, #16
    3148:	3301      	adds	r3, #1
    314a:	603c      	str	r4, [r7, #0]
    314c:	607e      	str	r6, [r7, #4]
    314e:	922c      	str	r2, [sp, #176]	; 0xb0
    3150:	932b      	str	r3, [sp, #172]	; 0xac
    3152:	2b07      	cmp	r3, #7
    3154:	ddf2      	ble.n	313c <_vfprintf_r+0xc60>
    3156:	4641      	mov	r1, r8
    3158:	4658      	mov	r0, fp
    315a:	aa2a      	add	r2, sp, #168	; 0xa8
    315c:	f003 fcb6 	bl	6acc <__sprint_r>
    3160:	2800      	cmp	r0, #0
    3162:	d000      	beq.n	3166 <_vfprintf_r+0xc8a>
    3164:	e6f1      	b.n	2f4a <_vfprintf_r+0xa6e>
    3166:	9a2c      	ldr	r2, [sp, #176]	; 0xb0
    3168:	9b2b      	ldr	r3, [sp, #172]	; 0xac
    316a:	af2d      	add	r7, sp, #180	; 0xb4
    316c:	e7e7      	b.n	313e <_vfprintf_r+0xc62>
    316e:	2301      	movs	r3, #1
    3170:	4652      	mov	r2, sl
    3172:	4213      	tst	r3, r2
    3174:	d001      	beq.n	317a <_vfprintf_r+0xc9e>
    3176:	f7ff fbdd 	bl	2934 <_vfprintf_r+0x458>
    317a:	607b      	str	r3, [r7, #4]
    317c:	9b2b      	ldr	r3, [sp, #172]	; 0xac
    317e:	3401      	adds	r4, #1
    3180:	1c5d      	adds	r5, r3, #1
    3182:	942c      	str	r4, [sp, #176]	; 0xb0
    3184:	9308      	str	r3, [sp, #32]
    3186:	952b      	str	r5, [sp, #172]	; 0xac
    3188:	2d07      	cmp	r5, #7
    318a:	dc01      	bgt.n	3190 <_vfprintf_r+0xcb4>
    318c:	f7ff fc04 	bl	2998 <_vfprintf_r+0x4bc>
    3190:	4641      	mov	r1, r8
    3192:	4658      	mov	r0, fp
    3194:	aa2a      	add	r2, sp, #168	; 0xa8
    3196:	f003 fc99 	bl	6acc <__sprint_r>
    319a:	2800      	cmp	r0, #0
    319c:	d000      	beq.n	31a0 <_vfprintf_r+0xcc4>
    319e:	e6d4      	b.n	2f4a <_vfprintf_r+0xa6e>
    31a0:	9c2c      	ldr	r4, [sp, #176]	; 0xb0
    31a2:	9d2b      	ldr	r5, [sp, #172]	; 0xac
    31a4:	af2d      	add	r7, sp, #180	; 0xb4
    31a6:	f7ff fbf8 	bl	299a <_vfprintf_r+0x4be>
    31aa:	9b15      	ldr	r3, [sp, #84]	; 0x54
    31ac:	1e5e      	subs	r6, r3, #1
    31ae:	2e00      	cmp	r6, #0
    31b0:	dc01      	bgt.n	31b6 <_vfprintf_r+0xcda>
    31b2:	f7ff fbf2 	bl	299a <_vfprintf_r+0x4be>
    31b6:	4b6d      	ldr	r3, [pc, #436]	; (336c <_vfprintf_r+0xe90>)
    31b8:	4699      	mov	r9, r3
    31ba:	2e10      	cmp	r6, #16
    31bc:	dc05      	bgt.n	31ca <_vfprintf_r+0xcee>
    31be:	e2bf      	b.n	3740 <_vfprintf_r+0x1264>
    31c0:	3708      	adds	r7, #8
    31c2:	3e10      	subs	r6, #16
    31c4:	2e10      	cmp	r6, #16
    31c6:	dc00      	bgt.n	31ca <_vfprintf_r+0xcee>
    31c8:	e2ba      	b.n	3740 <_vfprintf_r+0x1264>
    31ca:	464b      	mov	r3, r9
    31cc:	603b      	str	r3, [r7, #0]
    31ce:	2310      	movs	r3, #16
    31d0:	3410      	adds	r4, #16
    31d2:	3501      	adds	r5, #1
    31d4:	607b      	str	r3, [r7, #4]
    31d6:	942c      	str	r4, [sp, #176]	; 0xb0
    31d8:	952b      	str	r5, [sp, #172]	; 0xac
    31da:	2d07      	cmp	r5, #7
    31dc:	ddf0      	ble.n	31c0 <_vfprintf_r+0xce4>
    31de:	4641      	mov	r1, r8
    31e0:	4658      	mov	r0, fp
    31e2:	aa2a      	add	r2, sp, #168	; 0xa8
    31e4:	f003 fc72 	bl	6acc <__sprint_r>
    31e8:	2800      	cmp	r0, #0
    31ea:	d000      	beq.n	31ee <_vfprintf_r+0xd12>
    31ec:	e6ad      	b.n	2f4a <_vfprintf_r+0xa6e>
    31ee:	9c2c      	ldr	r4, [sp, #176]	; 0xb0
    31f0:	9d2b      	ldr	r5, [sp, #172]	; 0xac
    31f2:	af2d      	add	r7, sp, #180	; 0xb4
    31f4:	e7e5      	b.n	31c2 <_vfprintf_r+0xce6>
    31f6:	4641      	mov	r1, r8
    31f8:	4658      	mov	r0, fp
    31fa:	aa2a      	add	r2, sp, #168	; 0xa8
    31fc:	f003 fc66 	bl	6acc <__sprint_r>
    3200:	2800      	cmp	r0, #0
    3202:	d000      	beq.n	3206 <_vfprintf_r+0xd2a>
    3204:	e6a1      	b.n	2f4a <_vfprintf_r+0xa6e>
    3206:	9c2c      	ldr	r4, [sp, #176]	; 0xb0
    3208:	af2d      	add	r7, sp, #180	; 0xb4
    320a:	f7ff faab 	bl	2764 <_vfprintf_r+0x288>
    320e:	4653      	mov	r3, sl
    3210:	06db      	lsls	r3, r3, #27
    3212:	d400      	bmi.n	3216 <_vfprintf_r+0xd3a>
    3214:	e090      	b.n	3338 <_vfprintf_r+0xe5c>
    3216:	9c0f      	ldr	r4, [sp, #60]	; 0x3c
    3218:	cc08      	ldmia	r4!, {r3}
    321a:	930c      	str	r3, [sp, #48]	; 0x30
    321c:	2300      	movs	r3, #0
    321e:	940f      	str	r4, [sp, #60]	; 0x3c
    3220:	930d      	str	r3, [sp, #52]	; 0x34
    3222:	e4bf      	b.n	2ba4 <_vfprintf_r+0x6c8>
    3224:	06e3      	lsls	r3, r4, #27
    3226:	d400      	bmi.n	322a <_vfprintf_r+0xd4e>
    3228:	e07f      	b.n	332a <_vfprintf_r+0xe4e>
    322a:	9b0f      	ldr	r3, [sp, #60]	; 0x3c
    322c:	cb04      	ldmia	r3!, {r2}
    322e:	920c      	str	r2, [sp, #48]	; 0x30
    3230:	2200      	movs	r2, #0
    3232:	930f      	str	r3, [sp, #60]	; 0x3c
    3234:	920d      	str	r2, [sp, #52]	; 0x34
    3236:	2301      	movs	r3, #1
    3238:	e46e      	b.n	2b18 <_vfprintf_r+0x63c>
    323a:	4653      	mov	r3, sl
    323c:	06db      	lsls	r3, r3, #27
    323e:	d400      	bmi.n	3242 <_vfprintf_r+0xd66>
    3240:	e086      	b.n	3350 <_vfprintf_r+0xe74>
    3242:	9c0f      	ldr	r4, [sp, #60]	; 0x3c
    3244:	cc08      	ldmia	r4!, {r3}
    3246:	930c      	str	r3, [sp, #48]	; 0x30
    3248:	17db      	asrs	r3, r3, #31
    324a:	930d      	str	r3, [sp, #52]	; 0x34
    324c:	940f      	str	r4, [sp, #60]	; 0x3c
    324e:	d400      	bmi.n	3252 <_vfprintf_r+0xd76>
    3250:	e4cd      	b.n	2bee <_vfprintf_r+0x712>
    3252:	990c      	ldr	r1, [sp, #48]	; 0x30
    3254:	9a0d      	ldr	r2, [sp, #52]	; 0x34
    3256:	2400      	movs	r4, #0
    3258:	424b      	negs	r3, r1
    325a:	4194      	sbcs	r4, r2
    325c:	930c      	str	r3, [sp, #48]	; 0x30
    325e:	940d      	str	r4, [sp, #52]	; 0x34
    3260:	232d      	movs	r3, #45	; 0x2d
    3262:	aa1c      	add	r2, sp, #112	; 0x70
    3264:	76d3      	strb	r3, [r2, #27]
    3266:	4654      	mov	r4, sl
    3268:	3b2c      	subs	r3, #44	; 0x2c
    326a:	e458      	b.n	2b1e <_vfprintf_r+0x642>
    326c:	4653      	mov	r3, sl
    326e:	07db      	lsls	r3, r3, #31
    3270:	d401      	bmi.n	3276 <_vfprintf_r+0xd9a>
    3272:	f7ff fa89 	bl	2788 <_vfprintf_r+0x2ac>
    3276:	e5a9      	b.n	2dcc <_vfprintf_r+0x8f0>
    3278:	46a2      	mov	sl, r4
    327a:	46ab      	mov	fp, r5
    327c:	9312      	str	r3, [sp, #72]	; 0x48
    327e:	e4a2      	b.n	2bc6 <_vfprintf_r+0x6ea>
    3280:	9b06      	ldr	r3, [sp, #24]
    3282:	920f      	str	r2, [sp, #60]	; 0x3c
    3284:	781b      	ldrb	r3, [r3, #0]
    3286:	f7ff f99d 	bl	25c4 <_vfprintf_r+0xe8>
    328a:	4b39      	ldr	r3, [pc, #228]	; (3370 <_vfprintf_r+0xe94>)
    328c:	3401      	adds	r4, #1
    328e:	603b      	str	r3, [r7, #0]
    3290:	2301      	movs	r3, #1
    3292:	607b      	str	r3, [r7, #4]
    3294:	9b2b      	ldr	r3, [sp, #172]	; 0xac
    3296:	942c      	str	r4, [sp, #176]	; 0xb0
    3298:	9308      	str	r3, [sp, #32]
    329a:	3301      	adds	r3, #1
    329c:	932b      	str	r3, [sp, #172]	; 0xac
    329e:	2b07      	cmp	r3, #7
    32a0:	dd01      	ble.n	32a6 <_vfprintf_r+0xdca>
    32a2:	f000 fcd1 	bl	3c48 <_vfprintf_r+0x176c>
    32a6:	3708      	adds	r7, #8
    32a8:	2900      	cmp	r1, #0
    32aa:	d000      	beq.n	32ae <_vfprintf_r+0xdd2>
    32ac:	e254      	b.n	3758 <_vfprintf_r+0x127c>
    32ae:	4652      	mov	r2, sl
    32b0:	2301      	movs	r3, #1
    32b2:	4013      	ands	r3, r2
    32b4:	9a15      	ldr	r2, [sp, #84]	; 0x54
    32b6:	4313      	orrs	r3, r2
    32b8:	d101      	bne.n	32be <_vfprintf_r+0xde2>
    32ba:	f7ff fa65 	bl	2788 <_vfprintf_r+0x2ac>
    32be:	9b1c      	ldr	r3, [sp, #112]	; 0x70
    32c0:	603b      	str	r3, [r7, #0]
    32c2:	9b1b      	ldr	r3, [sp, #108]	; 0x6c
    32c4:	469c      	mov	ip, r3
    32c6:	607b      	str	r3, [r7, #4]
    32c8:	9b2b      	ldr	r3, [sp, #172]	; 0xac
    32ca:	4464      	add	r4, ip
    32cc:	9308      	str	r3, [sp, #32]
    32ce:	3301      	adds	r3, #1
    32d0:	942c      	str	r4, [sp, #176]	; 0xb0
    32d2:	932b      	str	r3, [sp, #172]	; 0xac
    32d4:	2b07      	cmp	r3, #7
    32d6:	dd00      	ble.n	32da <_vfprintf_r+0xdfe>
